                              1 ;--------------------------------------------------------
                              2 ; File Created by SDCC : free open source ANSI-C Compiler
                              3 ; Version 3.5.0 #9253 (Sep 22 2015) (CYGWIN)
                              4 ; This file was generated Mon Oct 19 10:32:47 2015
                              5 ;--------------------------------------------------------
                              6 	.module main
                              7 	.optsdcc -mz80
                              8 	
                              9 ;--------------------------------------------------------
                             10 ; Public variables in this module
                             11 ;--------------------------------------------------------
                             12 	.globl _main
                             13 	.globl _credits
                             14 	.globl _game
                             15 	.globl _move
                             16 	.globl _vissionSensor
                             17 	.globl _patrol
                             18 	.globl _followPlayer
                             19 	.globl _moveObject
                             20 	.globl _checkKeyboard
                             21 	.globl _checkBoundsCollisions
                             22 	.globl _checkArrowCollisions
                             23 	.globl _checkBoundsCollisionsEnemy
                             24 	.globl _drawBullets
                             25 	.globl _drawVida
                             26 	.globl _drawPickUps
                             27 	.globl _drawFatiga
                             28 	.globl _erasePlayer
                             29 	.globl _drawPlayer
                             30 	.globl _drawMap
                             31 	.globl _menu
                             32 	.globl _gameOver
                             33 	.globl _init
                             34 	.globl _checkCollisions
                             35 	.globl _movement
                             36 	.globl _setDirection
                             37 	.globl _chooseDirection
                             38 	.globl _detectPlayerRoom
                             39 	.globl _cpct_getScreenPtr
                             40 	.globl _cpct_setPalette
                             41 	.globl _cpct_fw2hw
                             42 	.globl _cpct_waitVSYNC
                             43 	.globl _cpct_setVideoMode
                             44 	.globl _cpct_drawStringM0
                             45 	.globl _cpct_drawSolidBox
                             46 	.globl _cpct_drawSpriteMasked
                             47 	.globl _cpct_isKeyPressed
                             48 	.globl _cpct_scanKeyboard_f
                             49 	.globl _cpct_scanKeyboard
                             50 	.globl _cpct_memset
                             51 	.globl _cpct_disableFirmware
                             52 	.globl _rand
                             53 	.globl _players
                             54 	.globl _object
                             55 	.globl _path
                             56 	.globl _temp
                             57 	.globl _scene
                             58 	.globl _mapa2
                             59 	.globl _mapa1
                             60 	.globl _g_palette
                             61 ;--------------------------------------------------------
                             62 ; special function registers
                             63 ;--------------------------------------------------------
                             64 ;--------------------------------------------------------
                             65 ; ram data
                             66 ;--------------------------------------------------------
                             67 	.area _DATA
   7552                      68 _scene::
   7552                      69 	.ds 240
   7642                      70 _temp::
   7642                      71 	.ds 2
   7644                      72 _path::
   7644                      73 	.ds 1
   7645                      74 _object::
   7645                      75 	.ds 10
   764F                      76 _players::
   764F                      77 	.ds 32
                             78 ;--------------------------------------------------------
                             79 ; ram data
                             80 ;--------------------------------------------------------
                             81 	.area _INITIALIZED
                             82 ;--------------------------------------------------------
                             83 ; absolute external ram data
                             84 ;--------------------------------------------------------
                             85 	.area _DABS (ABS)
                             86 ;--------------------------------------------------------
                             87 ; global & static initialisations
                             88 ;--------------------------------------------------------
                             89 	.area _HOME
                             90 	.area _GSINIT
                             91 	.area _GSFINAL
                             92 	.area _GSINIT
                             93 ;--------------------------------------------------------
                             94 ; Home
                             95 ;--------------------------------------------------------
                             96 	.area _HOME
                             97 	.area _HOME
                             98 ;--------------------------------------------------------
                             99 ; code
                            100 ;--------------------------------------------------------
                            101 	.area _CODE
                            102 ;src/ia.h:12: u8 detectPlayerRoom(u8 px,u8 py,u8 room){
                            103 ;	---------------------------------
                            104 ; Function detectPlayerRoom
                            105 ; ---------------------------------
   4700                     106 _detectPlayerRoom::
   4700 DD E5         [15]  107 	push	ix
   4702 DD 21 00 00   [14]  108 	ld	ix,#0
   4706 DD 39         [15]  109 	add	ix,sp
                            110 ;src/ia.h:13: u8 detected = 0; // no detectado
   4708 16 00         [ 7]  111 	ld	d,#0x00
                            112 ;src/ia.h:14: if (scene[py/tileheight][px/tilewidth] == room) detected = 1;
   470A DD 7E 05      [19]  113 	ld	a,5 (ix)
   470D 07            [ 4]  114 	rlca
   470E 07            [ 4]  115 	rlca
   470F 07            [ 4]  116 	rlca
   4710 07            [ 4]  117 	rlca
   4711 E6 0F         [ 7]  118 	and	a,#0x0F
   4713 4F            [ 4]  119 	ld	c,a
   4714 06 00         [ 7]  120 	ld	b,#0x00
   4716 69            [ 4]  121 	ld	l, c
   4717 60            [ 4]  122 	ld	h, b
   4718 29            [11]  123 	add	hl, hl
   4719 29            [11]  124 	add	hl, hl
   471A 09            [11]  125 	add	hl, bc
   471B 29            [11]  126 	add	hl, hl
   471C 29            [11]  127 	add	hl, hl
   471D 01 52 75      [10]  128 	ld	bc,#_scene
   4720 09            [11]  129 	add	hl,bc
   4721 DD 5E 04      [19]  130 	ld	e,4 (ix)
   4724 CB 3B         [ 8]  131 	srl	e
   4726 CB 3B         [ 8]  132 	srl	e
   4728 4B            [ 4]  133 	ld	c,e
   4729 06 00         [ 7]  134 	ld	b,#0x00
   472B 09            [11]  135 	add	hl,bc
   472C DD 7E 06      [19]  136 	ld	a,6 (ix)
   472F 96            [ 7]  137 	sub	a,(hl)
   4730 20 02         [12]  138 	jr	NZ,00102$
   4732 16 01         [ 7]  139 	ld	d,#0x01
   4734                     140 00102$:
                            141 ;src/ia.h:15: return detected;
   4734 6A            [ 4]  142 	ld	l,d
   4735 DD E1         [14]  143 	pop	ix
   4737 C9            [10]  144 	ret
   4738                     145 _g_palette:
   4738 00                  146 	.db #0x00	; 0
   4739 1A                  147 	.db #0x1A	; 26
   473A 06                  148 	.db #0x06	; 6
   473B 0D                  149 	.db #0x0D	; 13
   473C 00                  150 	.db 0x00
   473D                     151 _mapa1:
   473D 01                  152 	.db #0x01	; 1
   473E 01                  153 	.db #0x01	; 1
   473F 01                  154 	.db #0x01	; 1
   4740 01                  155 	.db #0x01	; 1
   4741 01                  156 	.db #0x01	; 1
   4742 01                  157 	.db #0x01	; 1
   4743 01                  158 	.db #0x01	; 1
   4744 01                  159 	.db #0x01	; 1
   4745 01                  160 	.db #0x01	; 1
   4746 01                  161 	.db #0x01	; 1
   4747 01                  162 	.db #0x01	; 1
   4748 01                  163 	.db #0x01	; 1
   4749 01                  164 	.db #0x01	; 1
   474A 01                  165 	.db #0x01	; 1
   474B 01                  166 	.db #0x01	; 1
   474C 01                  167 	.db #0x01	; 1
   474D 01                  168 	.db #0x01	; 1
   474E 01                  169 	.db #0x01	; 1
   474F 01                  170 	.db #0x01	; 1
   4750 01                  171 	.db #0x01	; 1
   4751 01                  172 	.db #0x01	; 1
   4752 00                  173 	.db #0x00	; 0
   4753 05                  174 	.db #0x05	; 5
   4754 00                  175 	.db #0x00	; 0
   4755 00                  176 	.db #0x00	; 0
   4756 00                  177 	.db #0x00	; 0
   4757 00                  178 	.db #0x00	; 0
   4758 00                  179 	.db #0x00	; 0
   4759 00                  180 	.db #0x00	; 0
   475A 00                  181 	.db #0x00	; 0
   475B 00                  182 	.db #0x00	; 0
   475C 00                  183 	.db #0x00	; 0
   475D 00                  184 	.db #0x00	; 0
   475E 00                  185 	.db #0x00	; 0
   475F 00                  186 	.db #0x00	; 0
   4760 00                  187 	.db #0x00	; 0
   4761 00                  188 	.db #0x00	; 0
   4762 00                  189 	.db #0x00	; 0
   4763 00                  190 	.db #0x00	; 0
   4764 01                  191 	.db #0x01	; 1
   4765 01                  192 	.db #0x01	; 1
   4766 00                  193 	.db #0x00	; 0
   4767 00                  194 	.db #0x00	; 0
   4768 00                  195 	.db #0x00	; 0
   4769 00                  196 	.db #0x00	; 0
   476A 00                  197 	.db #0x00	; 0
   476B 00                  198 	.db #0x00	; 0
   476C 00                  199 	.db #0x00	; 0
   476D 00                  200 	.db #0x00	; 0
   476E 00                  201 	.db #0x00	; 0
   476F 00                  202 	.db #0x00	; 0
   4770 00                  203 	.db #0x00	; 0
   4771 00                  204 	.db #0x00	; 0
   4772 00                  205 	.db #0x00	; 0
   4773 00                  206 	.db #0x00	; 0
   4774 00                  207 	.db #0x00	; 0
   4775 00                  208 	.db #0x00	; 0
   4776 00                  209 	.db #0x00	; 0
   4777 00                  210 	.db #0x00	; 0
   4778 01                  211 	.db #0x01	; 1
   4779 01                  212 	.db #0x01	; 1
   477A 01                  213 	.db #0x01	; 1
   477B 01                  214 	.db #0x01	; 1
   477C 01                  215 	.db #0x01	; 1
   477D 01                  216 	.db #0x01	; 1
   477E 01                  217 	.db #0x01	; 1
   477F 01                  218 	.db #0x01	; 1
   4780 01                  219 	.db #0x01	; 1
   4781 01                  220 	.db #0x01	; 1
   4782 01                  221 	.db #0x01	; 1
   4783 01                  222 	.db #0x01	; 1
   4784 01                  223 	.db #0x01	; 1
   4785 01                  224 	.db #0x01	; 1
   4786 01                  225 	.db #0x01	; 1
   4787 01                  226 	.db #0x01	; 1
   4788 00                  227 	.db #0x00	; 0
   4789 01                  228 	.db #0x01	; 1
   478A 01                  229 	.db #0x01	; 1
   478B 01                  230 	.db #0x01	; 1
   478C 01                  231 	.db #0x01	; 1
   478D 01                  232 	.db #0x01	; 1
   478E 00                  233 	.db #0x00	; 0
   478F 00                  234 	.db #0x00	; 0
   4790 00                  235 	.db #0x00	; 0
   4791 00                  236 	.db #0x00	; 0
   4792 00                  237 	.db #0x00	; 0
   4793 00                  238 	.db #0x00	; 0
   4794 00                  239 	.db #0x00	; 0
   4795 00                  240 	.db #0x00	; 0
   4796 00                  241 	.db #0x00	; 0
   4797 00                  242 	.db #0x00	; 0
   4798 01                  243 	.db #0x01	; 1
   4799 03                  244 	.db #0x03	; 3
   479A 03                  245 	.db #0x03	; 3
   479B 03                  246 	.db #0x03	; 3
   479C 03                  247 	.db #0x03	; 3
   479D 03                  248 	.db #0x03	; 3
   479E 03                  249 	.db #0x03	; 3
   479F 03                  250 	.db #0x03	; 3
   47A0 01                  251 	.db #0x01	; 1
   47A1 00                  252 	.db #0x00	; 0
   47A2 00                  253 	.db #0x00	; 0
   47A3 01                  254 	.db #0x01	; 1
   47A4 01                  255 	.db #0x01	; 1
   47A5 00                  256 	.db #0x00	; 0
   47A6 01                  257 	.db #0x01	; 1
   47A7 01                  258 	.db #0x01	; 1
   47A8 01                  259 	.db #0x01	; 1
   47A9 00                  260 	.db #0x00	; 0
   47AA 00                  261 	.db #0x00	; 0
   47AB 00                  262 	.db #0x00	; 0
   47AC 01                  263 	.db #0x01	; 1
   47AD 03                  264 	.db #0x03	; 3
   47AE 03                  265 	.db #0x03	; 3
   47AF 03                  266 	.db #0x03	; 3
   47B0 03                  267 	.db #0x03	; 3
   47B1 03                  268 	.db #0x03	; 3
   47B2 03                  269 	.db #0x03	; 3
   47B3 03                  270 	.db #0x03	; 3
   47B4 01                  271 	.db #0x01	; 1
   47B5 01                  272 	.db #0x01	; 1
   47B6 00                  273 	.db #0x00	; 0
   47B7 01                  274 	.db #0x01	; 1
   47B8 00                  275 	.db #0x00	; 0
   47B9 00                  276 	.db #0x00	; 0
   47BA 00                  277 	.db #0x00	; 0
   47BB 00                  278 	.db #0x00	; 0
   47BC 01                  279 	.db #0x01	; 1
   47BD 00                  280 	.db #0x00	; 0
   47BE 00                  281 	.db #0x00	; 0
   47BF 00                  282 	.db #0x00	; 0
   47C0 01                  283 	.db #0x01	; 1
   47C1 03                  284 	.db #0x03	; 3
   47C2 03                  285 	.db #0x03	; 3
   47C3 03                  286 	.db #0x03	; 3
   47C4 03                  287 	.db #0x03	; 3
   47C5 03                  288 	.db #0x03	; 3
   47C6 03                  289 	.db #0x03	; 3
   47C7 03                  290 	.db #0x03	; 3
   47C8 01                  291 	.db #0x01	; 1
   47C9 01                  292 	.db #0x01	; 1
   47CA 00                  293 	.db #0x00	; 0
   47CB 01                  294 	.db #0x01	; 1
   47CC 00                  295 	.db #0x00	; 0
   47CD 00                  296 	.db #0x00	; 0
   47CE 00                  297 	.db #0x00	; 0
   47CF 00                  298 	.db #0x00	; 0
   47D0 01                  299 	.db #0x01	; 1
   47D1 00                  300 	.db #0x00	; 0
   47D2 00                  301 	.db #0x00	; 0
   47D3 00                  302 	.db #0x00	; 0
   47D4 01                  303 	.db #0x01	; 1
   47D5 03                  304 	.db #0x03	; 3
   47D6 03                  305 	.db #0x03	; 3
   47D7 03                  306 	.db #0x03	; 3
   47D8 03                  307 	.db #0x03	; 3
   47D9 03                  308 	.db #0x03	; 3
   47DA 03                  309 	.db #0x03	; 3
   47DB 03                  310 	.db #0x03	; 3
   47DC 01                  311 	.db #0x01	; 1
   47DD 01                  312 	.db #0x01	; 1
   47DE 00                  313 	.db #0x00	; 0
   47DF 01                  314 	.db #0x01	; 1
   47E0 00                  315 	.db #0x00	; 0
   47E1 00                  316 	.db #0x00	; 0
   47E2 00                  317 	.db #0x00	; 0
   47E3 00                  318 	.db #0x00	; 0
   47E4 01                  319 	.db #0x01	; 1
   47E5 00                  320 	.db #0x00	; 0
   47E6 00                  321 	.db #0x00	; 0
   47E7 00                  322 	.db #0x00	; 0
   47E8 01                  323 	.db #0x01	; 1
   47E9 03                  324 	.db #0x03	; 3
   47EA 03                  325 	.db #0x03	; 3
   47EB 03                  326 	.db #0x03	; 3
   47EC 03                  327 	.db #0x03	; 3
   47ED 03                  328 	.db #0x03	; 3
   47EE 03                  329 	.db #0x03	; 3
   47EF 03                  330 	.db #0x03	; 3
   47F0 01                  331 	.db #0x01	; 1
   47F1 01                  332 	.db #0x01	; 1
   47F2 00                  333 	.db #0x00	; 0
   47F3 01                  334 	.db #0x01	; 1
   47F4 00                  335 	.db #0x00	; 0
   47F5 00                  336 	.db #0x00	; 0
   47F6 00                  337 	.db #0x00	; 0
   47F7 00                  338 	.db #0x00	; 0
   47F8 01                  339 	.db #0x01	; 1
   47F9 00                  340 	.db #0x00	; 0
   47FA 00                  341 	.db #0x00	; 0
   47FB 00                  342 	.db #0x00	; 0
   47FC 01                  343 	.db #0x01	; 1
   47FD 03                  344 	.db #0x03	; 3
   47FE 03                  345 	.db #0x03	; 3
   47FF 03                  346 	.db #0x03	; 3
   4800 03                  347 	.db #0x03	; 3
   4801 03                  348 	.db #0x03	; 3
   4802 03                  349 	.db #0x03	; 3
   4803 03                  350 	.db #0x03	; 3
   4804 01                  351 	.db #0x01	; 1
   4805 01                  352 	.db #0x01	; 1
   4806 02                  353 	.db #0x02	; 2
   4807 01                  354 	.db #0x01	; 1
   4808 00                  355 	.db #0x00	; 0
   4809 00                  356 	.db #0x00	; 0
   480A 00                  357 	.db #0x00	; 0
   480B 00                  358 	.db #0x00	; 0
   480C 01                  359 	.db #0x01	; 1
   480D 00                  360 	.db #0x00	; 0
   480E 00                  361 	.db #0x00	; 0
   480F 00                  362 	.db #0x00	; 0
   4810 0A                  363 	.db #0x0A	; 10
   4811 03                  364 	.db #0x03	; 3
   4812 03                  365 	.db #0x03	; 3
   4813 03                  366 	.db #0x03	; 3
   4814 03                  367 	.db #0x03	; 3
   4815 03                  368 	.db #0x03	; 3
   4816 03                  369 	.db #0x03	; 3
   4817 03                  370 	.db #0x03	; 3
   4818 01                  371 	.db #0x01	; 1
   4819 01                  372 	.db #0x01	; 1
   481A 01                  373 	.db #0x01	; 1
   481B 01                  374 	.db #0x01	; 1
   481C 01                  375 	.db #0x01	; 1
   481D 01                  376 	.db #0x01	; 1
   481E 01                  377 	.db #0x01	; 1
   481F 01                  378 	.db #0x01	; 1
   4820 01                  379 	.db #0x01	; 1
   4821 01                  380 	.db #0x01	; 1
   4822 01                  381 	.db #0x01	; 1
   4823 01                  382 	.db #0x01	; 1
   4824 01                  383 	.db #0x01	; 1
   4825 01                  384 	.db #0x01	; 1
   4826 01                  385 	.db #0x01	; 1
   4827 01                  386 	.db #0x01	; 1
   4828 09                  387 	.db #0x09	; 9
   4829 09                  388 	.db #0x09	; 9
   482A 01                  389 	.db #0x01	; 1
   482B 01                  390 	.db #0x01	; 1
   482C 01                  391 	.db #0x01	; 1
   482D                     392 _mapa2:
   482D 01                  393 	.db #0x01	; 1
   482E 01                  394 	.db #0x01	; 1
   482F 01                  395 	.db #0x01	; 1
   4830 01                  396 	.db #0x01	; 1
   4831 01                  397 	.db #0x01	; 1
   4832 01                  398 	.db #0x01	; 1
   4833 01                  399 	.db #0x01	; 1
   4834 01                  400 	.db #0x01	; 1
   4835 01                  401 	.db #0x01	; 1
   4836 01                  402 	.db #0x01	; 1
   4837 01                  403 	.db #0x01	; 1
   4838 01                  404 	.db #0x01	; 1
   4839 01                  405 	.db #0x01	; 1
   483A 01                  406 	.db #0x01	; 1
   483B 01                  407 	.db #0x01	; 1
   483C 01                  408 	.db #0x01	; 1
   483D 01                  409 	.db #0x01	; 1
   483E 01                  410 	.db #0x01	; 1
   483F 01                  411 	.db #0x01	; 1
   4840 01                  412 	.db #0x01	; 1
   4841 01                  413 	.db #0x01	; 1
   4842 00                  414 	.db #0x00	; 0
   4843 00                  415 	.db #0x00	; 0
   4844 00                  416 	.db #0x00	; 0
   4845 00                  417 	.db #0x00	; 0
   4846 01                  418 	.db #0x01	; 1
   4847 00                  419 	.db #0x00	; 0
   4848 00                  420 	.db #0x00	; 0
   4849 00                  421 	.db #0x00	; 0
   484A 00                  422 	.db #0x00	; 0
   484B 00                  423 	.db #0x00	; 0
   484C 00                  424 	.db #0x00	; 0
   484D 00                  425 	.db #0x00	; 0
   484E 00                  426 	.db #0x00	; 0
   484F 00                  427 	.db #0x00	; 0
   4850 00                  428 	.db #0x00	; 0
   4851 00                  429 	.db #0x00	; 0
   4852 00                  430 	.db #0x00	; 0
   4853 00                  431 	.db #0x00	; 0
   4854 06                  432 	.db #0x06	; 6
   4855 01                  433 	.db #0x01	; 1
   4856 00                  434 	.db #0x00	; 0
   4857 00                  435 	.db #0x00	; 0
   4858 01                  436 	.db #0x01	; 1
   4859 00                  437 	.db #0x00	; 0
   485A 00                  438 	.db #0x00	; 0
   485B 00                  439 	.db #0x00	; 0
   485C 00                  440 	.db #0x00	; 0
   485D 00                  441 	.db #0x00	; 0
   485E 00                  442 	.db #0x00	; 0
   485F 00                  443 	.db #0x00	; 0
   4860 00                  444 	.db #0x00	; 0
   4861 00                  445 	.db #0x00	; 0
   4862 00                  446 	.db #0x00	; 0
   4863 00                  447 	.db #0x00	; 0
   4864 00                  448 	.db #0x00	; 0
   4865 00                  449 	.db #0x00	; 0
   4866 00                  450 	.db #0x00	; 0
   4867 00                  451 	.db #0x00	; 0
   4868 01                  452 	.db #0x01	; 1
   4869 01                  453 	.db #0x01	; 1
   486A 00                  454 	.db #0x00	; 0
   486B 01                  455 	.db #0x01	; 1
   486C 01                  456 	.db #0x01	; 1
   486D 01                  457 	.db #0x01	; 1
   486E 01                  458 	.db #0x01	; 1
   486F 00                  459 	.db #0x00	; 0
   4870 00                  460 	.db #0x00	; 0
   4871 01                  461 	.db #0x01	; 1
   4872 01                  462 	.db #0x01	; 1
   4873 01                  463 	.db #0x01	; 1
   4874 01                  464 	.db #0x01	; 1
   4875 01                  465 	.db #0x01	; 1
   4876 01                  466 	.db #0x01	; 1
   4877 01                  467 	.db #0x01	; 1
   4878 01                  468 	.db #0x01	; 1
   4879 01                  469 	.db #0x01	; 1
   487A 01                  470 	.db #0x01	; 1
   487B 01                  471 	.db #0x01	; 1
   487C 01                  472 	.db #0x01	; 1
   487D 01                  473 	.db #0x01	; 1
   487E 00                  474 	.db #0x00	; 0
   487F 05                  475 	.db #0x05	; 5
   4880 01                  476 	.db #0x01	; 1
   4881 00                  477 	.db #0x00	; 0
   4882 00                  478 	.db #0x00	; 0
   4883 00                  479 	.db #0x00	; 0
   4884 00                  480 	.db #0x00	; 0
   4885 00                  481 	.db #0x00	; 0
   4886 00                  482 	.db #0x00	; 0
   4887 00                  483 	.db #0x00	; 0
   4888 01                  484 	.db #0x01	; 1
   4889 00                  485 	.db #0x00	; 0
   488A 00                  486 	.db #0x00	; 0
   488B 00                  487 	.db #0x00	; 0
   488C 00                  488 	.db #0x00	; 0
   488D 00                  489 	.db #0x00	; 0
   488E 00                  490 	.db #0x00	; 0
   488F 00                  491 	.db #0x00	; 0
   4890 01                  492 	.db #0x01	; 1
   4891 01                  493 	.db #0x01	; 1
   4892 00                  494 	.db #0x00	; 0
   4893 01                  495 	.db #0x01	; 1
   4894 01                  496 	.db #0x01	; 1
   4895 00                  497 	.db #0x00	; 0
   4896 01                  498 	.db #0x01	; 1
   4897 01                  499 	.db #0x01	; 1
   4898 01                  500 	.db #0x01	; 1
   4899 02                  501 	.db #0x02	; 2
   489A 02                  502 	.db #0x02	; 2
   489B 02                  503 	.db #0x02	; 2
   489C 01                  504 	.db #0x01	; 1
   489D 00                  505 	.db #0x00	; 0
   489E 00                  506 	.db #0x00	; 0
   489F 00                  507 	.db #0x00	; 0
   48A0 05                  508 	.db #0x05	; 5
   48A1 00                  509 	.db #0x00	; 0
   48A2 00                  510 	.db #0x00	; 0
   48A3 00                  511 	.db #0x00	; 0
   48A4 01                  512 	.db #0x01	; 1
   48A5 01                  513 	.db #0x01	; 1
   48A6 00                  514 	.db #0x00	; 0
   48A7 01                  515 	.db #0x01	; 1
   48A8 02                  516 	.db #0x02	; 2
   48A9 02                  517 	.db #0x02	; 2
   48AA 02                  518 	.db #0x02	; 2
   48AB 02                  519 	.db #0x02	; 2
   48AC 01                  520 	.db #0x01	; 1
   48AD 00                  521 	.db #0x00	; 0
   48AE 00                  522 	.db #0x00	; 0
   48AF 00                  523 	.db #0x00	; 0
   48B0 01                  524 	.db #0x01	; 1
   48B1 00                  525 	.db #0x00	; 0
   48B2 00                  526 	.db #0x00	; 0
   48B3 00                  527 	.db #0x00	; 0
   48B4 05                  528 	.db #0x05	; 5
   48B5 00                  529 	.db #0x00	; 0
   48B6 00                  530 	.db #0x00	; 0
   48B7 00                  531 	.db #0x00	; 0
   48B8 01                  532 	.db #0x01	; 1
   48B9 01                  533 	.db #0x01	; 1
   48BA 00                  534 	.db #0x00	; 0
   48BB 01                  535 	.db #0x01	; 1
   48BC 02                  536 	.db #0x02	; 2
   48BD 02                  537 	.db #0x02	; 2
   48BE 02                  538 	.db #0x02	; 2
   48BF 02                  539 	.db #0x02	; 2
   48C0 01                  540 	.db #0x01	; 1
   48C1 02                  541 	.db #0x02	; 2
   48C2 02                  542 	.db #0x02	; 2
   48C3 02                  543 	.db #0x02	; 2
   48C4 01                  544 	.db #0x01	; 1
   48C5 00                  545 	.db #0x00	; 0
   48C6 00                  546 	.db #0x00	; 0
   48C7 00                  547 	.db #0x00	; 0
   48C8 05                  548 	.db #0x05	; 5
   48C9 00                  549 	.db #0x00	; 0
   48CA 00                  550 	.db #0x00	; 0
   48CB 00                  551 	.db #0x00	; 0
   48CC 01                  552 	.db #0x01	; 1
   48CD 01                  553 	.db #0x01	; 1
   48CE 00                  554 	.db #0x00	; 0
   48CF 01                  555 	.db #0x01	; 1
   48D0 02                  556 	.db #0x02	; 2
   48D1 02                  557 	.db #0x02	; 2
   48D2 02                  558 	.db #0x02	; 2
   48D3 02                  559 	.db #0x02	; 2
   48D4 01                  560 	.db #0x01	; 1
   48D5 00                  561 	.db #0x00	; 0
   48D6 00                  562 	.db #0x00	; 0
   48D7 00                  563 	.db #0x00	; 0
   48D8 01                  564 	.db #0x01	; 1
   48D9 00                  565 	.db #0x00	; 0
   48DA 00                  566 	.db #0x00	; 0
   48DB 00                  567 	.db #0x00	; 0
   48DC 00                  568 	.db #0x00	; 0
   48DD 00                  569 	.db #0x00	; 0
   48DE 00                  570 	.db #0x00	; 0
   48DF 00                  571 	.db #0x00	; 0
   48E0 01                  572 	.db #0x01	; 1
   48E1 01                  573 	.db #0x01	; 1
   48E2 00                  574 	.db #0x00	; 0
   48E3 01                  575 	.db #0x01	; 1
   48E4 02                  576 	.db #0x02	; 2
   48E5 02                  577 	.db #0x02	; 2
   48E6 02                  578 	.db #0x02	; 2
   48E7 02                  579 	.db #0x02	; 2
   48E8 01                  580 	.db #0x01	; 1
   48E9 02                  581 	.db #0x02	; 2
   48EA 02                  582 	.db #0x02	; 2
   48EB 02                  583 	.db #0x02	; 2
   48EC 01                  584 	.db #0x01	; 1
   48ED 00                  585 	.db #0x00	; 0
   48EE 00                  586 	.db #0x00	; 0
   48EF 00                  587 	.db #0x00	; 0
   48F0 00                  588 	.db #0x00	; 0
   48F1 00                  589 	.db #0x00	; 0
   48F2 00                  590 	.db #0x00	; 0
   48F3 00                  591 	.db #0x00	; 0
   48F4 01                  592 	.db #0x01	; 1
   48F5 01                  593 	.db #0x01	; 1
   48F6 05                  594 	.db #0x05	; 5
   48F7 01                  595 	.db #0x01	; 1
   48F8 02                  596 	.db #0x02	; 2
   48F9 02                  597 	.db #0x02	; 2
   48FA 02                  598 	.db #0x02	; 2
   48FB 02                  599 	.db #0x02	; 2
   48FC 01                  600 	.db #0x01	; 1
   48FD 00                  601 	.db #0x00	; 0
   48FE 00                  602 	.db #0x00	; 0
   48FF 00                  603 	.db #0x00	; 0
   4900 00                  604 	.db #0x00	; 0
   4901 00                  605 	.db #0x00	; 0
   4902 00                  606 	.db #0x00	; 0
   4903 00                  607 	.db #0x00	; 0
   4904 00                  608 	.db #0x00	; 0
   4905 00                  609 	.db #0x00	; 0
   4906 00                  610 	.db #0x00	; 0
   4907 00                  611 	.db #0x00	; 0
   4908 01                  612 	.db #0x01	; 1
   4909 01                  613 	.db #0x01	; 1
   490A 01                  614 	.db #0x01	; 1
   490B 01                  615 	.db #0x01	; 1
   490C 01                  616 	.db #0x01	; 1
   490D 01                  617 	.db #0x01	; 1
   490E 01                  618 	.db #0x01	; 1
   490F 01                  619 	.db #0x01	; 1
   4910 01                  620 	.db #0x01	; 1
   4911 01                  621 	.db #0x01	; 1
   4912 01                  622 	.db #0x01	; 1
   4913 01                  623 	.db #0x01	; 1
   4914 01                  624 	.db #0x01	; 1
   4915 01                  625 	.db #0x01	; 1
   4916 01                  626 	.db #0x01	; 1
   4917 01                  627 	.db #0x01	; 1
   4918 00                  628 	.db #0x00	; 0
   4919 01                  629 	.db #0x01	; 1
   491A 01                  630 	.db #0x01	; 1
   491B 01                  631 	.db #0x01	; 1
   491C 01                  632 	.db #0x01	; 1
                            633 ;src/ia.h:18: u8 chooseDirection(u8 d){
                            634 ;	---------------------------------
                            635 ; Function chooseDirection
                            636 ; ---------------------------------
   491D                     637 _chooseDirection::
                            638 ;src/ia.h:20: u8 dir = 0;
   491D 16 00         [ 7]  639 	ld	d,#0x00
                            640 ;src/ia.h:21: u8 rnd = (rand()%4)+1;
   491F D5            [11]  641 	push	de
   4920 CD A9 71      [17]  642 	call	_rand
   4923 01 04 00      [10]  643 	ld	bc,#0x0004
   4926 C5            [11]  644 	push	bc
   4927 E5            [11]  645 	push	hl
   4928 CD 50 74      [17]  646 	call	__modsint
   492B F1            [10]  647 	pop	af
   492C F1            [10]  648 	pop	af
   492D D1            [10]  649 	pop	de
   492E 5D            [ 4]  650 	ld	e,l
   492F 1C            [ 4]  651 	inc	e
                            652 ;src/ia.h:22: switch(rnd){
   4930 7B            [ 4]  653 	ld	a,e
   4931 D6 01         [ 7]  654 	sub	a, #0x01
   4933 38 24         [12]  655 	jr	C,00105$
   4935 3E 04         [ 7]  656 	ld	a,#0x04
   4937 93            [ 4]  657 	sub	a, e
   4938 38 1F         [12]  658 	jr	C,00105$
   493A 1D            [ 4]  659 	dec	e
   493B 16 00         [ 7]  660 	ld	d,#0x00
   493D 21 43 49      [10]  661 	ld	hl,#00116$
   4940 19            [11]  662 	add	hl,de
   4941 19            [11]  663 	add	hl,de
                            664 ;src/ia.h:23: case 4: dir = 6;break;
   4942 E9            [ 4]  665 	jp	(hl)
   4943                     666 00116$:
   4943 18 12         [12]  667 	jr	00104$
   4945 18 0C         [12]  668 	jr	00103$
   4947 18 06         [12]  669 	jr	00102$
   4949 18 00         [12]  670 	jr	00101$
   494B                     671 00101$:
   494B 16 06         [ 7]  672 	ld	d,#0x06
   494D 18 0A         [12]  673 	jr	00105$
                            674 ;src/ia.h:24: case 3: dir = 4;break;
   494F                     675 00102$:
   494F 16 04         [ 7]  676 	ld	d,#0x04
   4951 18 06         [12]  677 	jr	00105$
                            678 ;src/ia.h:25: case 2: dir = 2;break;
   4953                     679 00103$:
   4953 16 02         [ 7]  680 	ld	d,#0x02
   4955 18 02         [12]  681 	jr	00105$
                            682 ;src/ia.h:26: case 1: dir = 8;break;
   4957                     683 00104$:
   4957 16 08         [ 7]  684 	ld	d,#0x08
                            685 ;src/ia.h:27: }
   4959                     686 00105$:
                            687 ;src/ia.h:29: return dir;
   4959 6A            [ 4]  688 	ld	l,d
   495A C9            [10]  689 	ret
                            690 ;src/ia.h:33: u8 setDirection(u8 px,u8 py,u8 x,u8 y){
                            691 ;	---------------------------------
                            692 ; Function setDirection
                            693 ; ---------------------------------
   495B                     694 _setDirection::
   495B DD E5         [15]  695 	push	ix
   495D DD 21 00 00   [14]  696 	ld	ix,#0
   4961 DD 39         [15]  697 	add	ix,sp
                            698 ;src/ia.h:35: if(px < x) dir = 4;
   4963 DD 7E 04      [19]  699 	ld	a,4 (ix)
   4966 DD 96 06      [19]  700 	sub	a, 6 (ix)
   4969 30 04         [12]  701 	jr	NC,00108$
   496B 2E 04         [ 7]  702 	ld	l,#0x04
   496D 18 1A         [12]  703 	jr	00109$
   496F                     704 00108$:
                            705 ;src/ia.h:36: else if(py > y) dir = 2;
   496F DD 7E 07      [19]  706 	ld	a,7 (ix)
   4972 DD 96 05      [19]  707 	sub	a, 5 (ix)
   4975 30 04         [12]  708 	jr	NC,00105$
   4977 2E 02         [ 7]  709 	ld	l,#0x02
   4979 18 0E         [12]  710 	jr	00109$
   497B                     711 00105$:
                            712 ;src/ia.h:37: else if(px > x) dir = 6;
   497B DD 7E 06      [19]  713 	ld	a,6 (ix)
   497E DD 96 04      [19]  714 	sub	a, 4 (ix)
   4981 30 04         [12]  715 	jr	NC,00102$
   4983 2E 06         [ 7]  716 	ld	l,#0x06
   4985 18 02         [12]  717 	jr	00109$
   4987                     718 00102$:
                            719 ;src/ia.h:38: else dir = 8;
   4987 2E 08         [ 7]  720 	ld	l,#0x08
   4989                     721 00109$:
                            722 ;src/ia.h:39: return dir;
   4989 DD E1         [14]  723 	pop	ix
   498B C9            [10]  724 	ret
                            725 ;src/ia.h:42: void movement(u8 dir,u8 *x,u8 *y){
                            726 ;	---------------------------------
                            727 ; Function movement
                            728 ; ---------------------------------
   498C                     729 _movement::
   498C DD E5         [15]  730 	push	ix
   498E DD 21 00 00   [14]  731 	ld	ix,#0
   4992 DD 39         [15]  732 	add	ix,sp
                            733 ;src/ia.h:46: case 8: y[0] -= 2; break;
   4994 DD 5E 07      [19]  734 	ld	e,7 (ix)
   4997 DD 56 08      [19]  735 	ld	d,8 (ix)
                            736 ;src/ia.h:43: switch(dir){
   499A DD 7E 04      [19]  737 	ld	a,4 (ix)
   499D D6 02         [ 7]  738 	sub	a, #0x02
   499F 28 2B         [12]  739 	jr	Z,00104$
                            740 ;src/ia.h:44: case 6: x[0] += 1; break;
   49A1 DD 6E 05      [19]  741 	ld	l,5 (ix)
   49A4 DD 66 06      [19]  742 	ld	h,6 (ix)
                            743 ;src/ia.h:43: switch(dir){
   49A7 DD 7E 04      [19]  744 	ld	a,4 (ix)
   49AA D6 04         [ 7]  745 	sub	a, #0x04
   49AC 28 13         [12]  746 	jr	Z,00102$
   49AE DD 7E 04      [19]  747 	ld	a,4 (ix)
   49B1 D6 06         [ 7]  748 	sub	a, #0x06
   49B3 28 09         [12]  749 	jr	Z,00101$
   49B5 DD 7E 04      [19]  750 	ld	a,4 (ix)
   49B8 D6 08         [ 7]  751 	sub	a, #0x08
   49BA 28 0A         [12]  752 	jr	Z,00103$
   49BC 18 12         [12]  753 	jr	00106$
                            754 ;src/ia.h:44: case 6: x[0] += 1; break;
   49BE                     755 00101$:
   49BE 34            [11]  756 	inc	(hl)
   49BF 18 0F         [12]  757 	jr	00106$
                            758 ;src/ia.h:45: case 4: x[0] -= 1; break; 
   49C1                     759 00102$:
   49C1 56            [ 7]  760 	ld	d,(hl)
   49C2 15            [ 4]  761 	dec	d
   49C3 72            [ 7]  762 	ld	(hl),d
   49C4 18 0A         [12]  763 	jr	00106$
                            764 ;src/ia.h:46: case 8: y[0] -= 2; break;
   49C6                     765 00103$:
   49C6 1A            [ 7]  766 	ld	a,(de)
   49C7 C6 FE         [ 7]  767 	add	a,#0xFE
   49C9 12            [ 7]  768 	ld	(de),a
   49CA 18 04         [12]  769 	jr	00106$
                            770 ;src/ia.h:47: case 2: y[0] += 2; break;
   49CC                     771 00104$:
   49CC 1A            [ 7]  772 	ld	a,(de)
   49CD C6 02         [ 7]  773 	add	a, #0x02
   49CF 12            [ 7]  774 	ld	(de),a
                            775 ;src/ia.h:48: }
   49D0                     776 00106$:
   49D0 DD E1         [14]  777 	pop	ix
   49D2 C9            [10]  778 	ret
                            779 ;src/CalcColision.h:7: u8 checkCollisions(u8 pX, u8 pY, u8 eX, u8 eY, u8 atk){
                            780 ;	---------------------------------
                            781 ; Function checkCollisions
                            782 ; ---------------------------------
   49D3                     783 _checkCollisions::
   49D3 DD E5         [15]  784 	push	ix
   49D5 DD 21 00 00   [14]  785 	ld	ix,#0
   49D9 DD 39         [15]  786 	add	ix,sp
   49DB 21 FA FF      [10]  787 	ld	hl,#-6
   49DE 39            [11]  788 	add	hl,sp
   49DF F9            [ 6]  789 	ld	sp,hl
                            790 ;src/CalcColision.h:8: u8 popX = pX + tilewidth;
   49E0 DD 6E 04      [19]  791 	ld	l,4 (ix)
   49E3 2C            [ 4]  792 	inc	l
   49E4 2C            [ 4]  793 	inc	l
   49E5 2C            [ 4]  794 	inc	l
   49E6 2C            [ 4]  795 	inc	l
                            796 ;src/CalcColision.h:9: u8 popY = pY + tileheight;
   49E7 DD 7E 05      [19]  797 	ld	a,5 (ix)
   49EA C6 10         [ 7]  798 	add	a, #0x10
   49EC DD 77 FB      [19]  799 	ld	-5 (ix),a
                            800 ;src/CalcColision.h:10: u8 eopX = eX + tilewidth;
   49EF DD 5E 06      [19]  801 	ld	e,6 (ix)
   49F2 1C            [ 4]  802 	inc	e
   49F3 1C            [ 4]  803 	inc	e
   49F4 1C            [ 4]  804 	inc	e
   49F5 1C            [ 4]  805 	inc	e
                            806 ;src/CalcColision.h:11: u8 eopY = eY + tileheight;
   49F6 DD 7E 07      [19]  807 	ld	a,7 (ix)
   49F9 C6 10         [ 7]  808 	add	a, #0x10
   49FB DD 77 FA      [19]  809 	ld	-6 (ix),a
                            810 ;src/CalcColision.h:13: if(eopX >= pX && eopX <= popX && eY >= pY && eY <= popY)
   49FE 7B            [ 4]  811 	ld	a,e
   49FF DD 96 04      [19]  812 	sub	a, 4 (ix)
   4A02 3E 00         [ 7]  813 	ld	a,#0x00
   4A04 17            [ 4]  814 	rla
   4A05 DD 77 FF      [19]  815 	ld	-1 (ix),a
   4A08 7D            [ 4]  816 	ld	a,l
   4A09 93            [ 4]  817 	sub	a, e
   4A0A 3E 00         [ 7]  818 	ld	a,#0x00
   4A0C 17            [ 4]  819 	rla
   4A0D DD 77 FE      [19]  820 	ld	-2 (ix),a
   4A10 DD 7E 07      [19]  821 	ld	a,7 (ix)
   4A13 DD 96 05      [19]  822 	sub	a, 5 (ix)
   4A16 3E 00         [ 7]  823 	ld	a,#0x00
   4A18 17            [ 4]  824 	rla
   4A19 5F            [ 4]  825 	ld	e,a
   4A1A DD 7E FB      [19]  826 	ld	a,-5 (ix)
   4A1D DD 96 07      [19]  827 	sub	a, 7 (ix)
   4A20 3E 00         [ 7]  828 	ld	a,#0x00
   4A22 17            [ 4]  829 	rla
   4A23 4F            [ 4]  830 	ld	c,a
                            831 ;src/CalcColision.h:14: if(atk >= 21)
   4A24 DD 7E 08      [19]  832 	ld	a,8 (ix)
   4A27 D6 15         [ 7]  833 	sub	a, #0x15
   4A29 3E 00         [ 7]  834 	ld	a,#0x00
   4A2B 17            [ 4]  835 	rla
   4A2C DD 77 FD      [19]  836 	ld	-3 (ix),a
                            837 ;src/CalcColision.h:13: if(eopX >= pX && eopX <= popX && eY >= pY && eY <= popY)
   4A2F DD 7E FF      [19]  838 	ld	a,-1 (ix)
   4A32 B7            [ 4]  839 	or	a, a
   4A33 20 1C         [12]  840 	jr	NZ,00105$
   4A35 DD 7E FE      [19]  841 	ld	a,-2 (ix)
   4A38 B7            [ 4]  842 	or	a,a
   4A39 20 16         [12]  843 	jr	NZ,00105$
   4A3B B3            [ 4]  844 	or	a,e
   4A3C 20 13         [12]  845 	jr	NZ,00105$
   4A3E B1            [ 4]  846 	or	a,c
   4A3F 20 10         [12]  847 	jr	NZ,00105$
                            848 ;src/CalcColision.h:14: if(atk >= 21)
   4A41 DD 7E FD      [19]  849 	ld	a,-3 (ix)
   4A44 B7            [ 4]  850 	or	a, a
   4A45 20 05         [12]  851 	jr	NZ,00102$
                            852 ;src/CalcColision.h:15: return 1;
   4A47 2E 01         [ 7]  853 	ld	l,#0x01
   4A49 C3 D5 4A      [10]  854 	jp	00133$
   4A4C                     855 00102$:
                            856 ;src/CalcColision.h:17: return 2;
   4A4C 2E 02         [ 7]  857 	ld	l,#0x02
   4A4E C3 D5 4A      [10]  858 	jp	00133$
   4A51                     859 00105$:
                            860 ;src/CalcColision.h:19: if(eX >= pX && eX <= popX && eY >= pY && eY <= popY)
   4A51 DD 7E 06      [19]  861 	ld	a,6 (ix)
   4A54 DD 96 04      [19]  862 	sub	a, 4 (ix)
   4A57 3E 00         [ 7]  863 	ld	a,#0x00
   4A59 17            [ 4]  864 	rla
   4A5A DD 77 FC      [19]  865 	ld	-4 (ix),a
   4A5D 7D            [ 4]  866 	ld	a,l
   4A5E DD 96 06      [19]  867 	sub	a, 6 (ix)
   4A61 3E 00         [ 7]  868 	ld	a,#0x00
   4A63 17            [ 4]  869 	rla
   4A64 6F            [ 4]  870 	ld	l,a
   4A65 DD 7E FC      [19]  871 	ld	a,-4 (ix)
   4A68 B7            [ 4]  872 	or	a,a
   4A69 20 17         [12]  873 	jr	NZ,00113$
   4A6B B5            [ 4]  874 	or	a,l
   4A6C 20 14         [12]  875 	jr	NZ,00113$
   4A6E B3            [ 4]  876 	or	a,e
   4A6F 20 11         [12]  877 	jr	NZ,00113$
   4A71 B1            [ 4]  878 	or	a,c
   4A72 20 0E         [12]  879 	jr	NZ,00113$
                            880 ;src/CalcColision.h:20: if(atk >= 21)
   4A74 DD 7E FD      [19]  881 	ld	a,-3 (ix)
   4A77 B7            [ 4]  882 	or	a, a
   4A78 20 04         [12]  883 	jr	NZ,00110$
                            884 ;src/CalcColision.h:21: return 1;
   4A7A 2E 01         [ 7]  885 	ld	l,#0x01
   4A7C 18 57         [12]  886 	jr	00133$
   4A7E                     887 00110$:
                            888 ;src/CalcColision.h:23: return 2;
   4A7E 2E 02         [ 7]  889 	ld	l,#0x02
   4A80 18 53         [12]  890 	jr	00133$
   4A82                     891 00113$:
                            892 ;src/CalcColision.h:25: if(eX >= pX && eX <= popX && eopY >= pY && eopY <= popY)
   4A82 DD 7E FA      [19]  893 	ld	a,-6 (ix)
   4A85 DD 96 05      [19]  894 	sub	a, 5 (ix)
   4A88 3E 00         [ 7]  895 	ld	a,#0x00
   4A8A 17            [ 4]  896 	rla
   4A8B 5F            [ 4]  897 	ld	e,a
   4A8C DD 7E FB      [19]  898 	ld	a,-5 (ix)
   4A8F DD 96 FA      [19]  899 	sub	a, -6 (ix)
   4A92 3E 00         [ 7]  900 	ld	a,#0x00
   4A94 17            [ 4]  901 	rla
   4A95 67            [ 4]  902 	ld	h,a
   4A96 DD 7E FC      [19]  903 	ld	a,-4 (ix)
   4A99 B7            [ 4]  904 	or	a,a
   4A9A 20 17         [12]  905 	jr	NZ,00121$
   4A9C B5            [ 4]  906 	or	a,l
   4A9D 20 14         [12]  907 	jr	NZ,00121$
   4A9F B3            [ 4]  908 	or	a,e
   4AA0 20 11         [12]  909 	jr	NZ,00121$
   4AA2 B4            [ 4]  910 	or	a,h
   4AA3 20 0E         [12]  911 	jr	NZ,00121$
                            912 ;src/CalcColision.h:26: if(atk >= 21)
   4AA5 DD 7E FD      [19]  913 	ld	a,-3 (ix)
   4AA8 B7            [ 4]  914 	or	a, a
   4AA9 20 04         [12]  915 	jr	NZ,00118$
                            916 ;src/CalcColision.h:27: return 1;
   4AAB 2E 01         [ 7]  917 	ld	l,#0x01
   4AAD 18 26         [12]  918 	jr	00133$
   4AAF                     919 00118$:
                            920 ;src/CalcColision.h:29: return 2;
   4AAF 2E 02         [ 7]  921 	ld	l,#0x02
   4AB1 18 22         [12]  922 	jr	00133$
   4AB3                     923 00121$:
                            924 ;src/CalcColision.h:31: if(eopX >= pX && eopX <= popX && eopY >= pY && eopY <= popY)
   4AB3 DD 7E FF      [19]  925 	ld	a,-1 (ix)
   4AB6 B7            [ 4]  926 	or	a, a
   4AB7 20 1A         [12]  927 	jr	NZ,00129$
   4AB9 DD 7E FE      [19]  928 	ld	a,-2 (ix)
   4ABC B7            [ 4]  929 	or	a,a
   4ABD 20 14         [12]  930 	jr	NZ,00129$
   4ABF B3            [ 4]  931 	or	a,e
   4AC0 20 11         [12]  932 	jr	NZ,00129$
   4AC2 B4            [ 4]  933 	or	a,h
   4AC3 20 0E         [12]  934 	jr	NZ,00129$
                            935 ;src/CalcColision.h:32: if(atk >= 21)
   4AC5 DD 7E FD      [19]  936 	ld	a,-3 (ix)
   4AC8 B7            [ 4]  937 	or	a, a
   4AC9 20 04         [12]  938 	jr	NZ,00126$
                            939 ;src/CalcColision.h:33: return 1;
   4ACB 2E 01         [ 7]  940 	ld	l,#0x01
   4ACD 18 06         [12]  941 	jr	00133$
   4ACF                     942 00126$:
                            943 ;src/CalcColision.h:35: return 2;
   4ACF 2E 02         [ 7]  944 	ld	l,#0x02
   4AD1 18 02         [12]  945 	jr	00133$
   4AD3                     946 00129$:
                            947 ;src/CalcColision.h:37: return 0;
   4AD3 2E 00         [ 7]  948 	ld	l,#0x00
   4AD5                     949 00133$:
   4AD5 DD F9         [10]  950 	ld	sp, ix
   4AD7 DD E1         [14]  951 	pop	ix
   4AD9 C9            [10]  952 	ret
                            953 ;src/main.c:34: void init(){
                            954 ;	---------------------------------
                            955 ; Function init
                            956 ; ---------------------------------
   4ADA                     957 _init::
                            958 ;src/main.c:35: cpct_disableFirmware();
   4ADA CD 7A 73      [17]  959 	call	_cpct_disableFirmware
                            960 ;src/main.c:36: cpct_setVideoMode(0);
   4ADD AF            [ 4]  961 	xor	a, a
   4ADE F5            [11]  962 	push	af
   4ADF 33            [ 6]  963 	inc	sp
   4AE0 CD 57 73      [17]  964 	call	_cpct_setVideoMode
   4AE3 33            [ 6]  965 	inc	sp
                            966 ;src/main.c:37: cpct_fw2hw(g_palette,4);
   4AE4 11 38 47      [10]  967 	ld	de,#_g_palette
   4AE7 3E 04         [ 7]  968 	ld	a,#0x04
   4AE9 F5            [11]  969 	push	af
   4AEA 33            [ 6]  970 	inc	sp
   4AEB D5            [11]  971 	push	de
   4AEC CD E1 72      [17]  972 	call	_cpct_fw2hw
   4AEF F1            [10]  973 	pop	af
   4AF0 33            [ 6]  974 	inc	sp
                            975 ;src/main.c:38: cpct_setPalette(g_palette,4);
   4AF1 11 38 47      [10]  976 	ld	de,#_g_palette
   4AF4 3E 04         [ 7]  977 	ld	a,#0x04
   4AF6 F5            [11]  978 	push	af
   4AF7 33            [ 6]  979 	inc	sp
   4AF8 D5            [11]  980 	push	de
   4AF9 CD 0F 71      [17]  981 	call	_cpct_setPalette
   4AFC F1            [10]  982 	pop	af
   4AFD 33            [ 6]  983 	inc	sp
   4AFE C9            [10]  984 	ret
                            985 ;src/main.c:42: void gameOver(){
                            986 ;	---------------------------------
                            987 ; Function gameOver
                            988 ; ---------------------------------
   4AFF                     989 _gameOver::
                            990 ;src/main.c:44: cpct_clearScreen(0);
   4AFF 21 00 40      [10]  991 	ld	hl,#0x4000
   4B02 E5            [11]  992 	push	hl
   4B03 AF            [ 4]  993 	xor	a, a
   4B04 F5            [11]  994 	push	af
   4B05 33            [ 6]  995 	inc	sp
   4B06 26 C0         [ 7]  996 	ld	h, #0xC0
   4B08 E5            [11]  997 	push	hl
   4B09 CD 69 73      [17]  998 	call	_cpct_memset
                            999 ;src/main.c:45: memptr = cpct_getScreenPtr(VMEM,10,10);
   4B0C 21 0A 0A      [10] 1000 	ld	hl,#0x0A0A
   4B0F E5            [11] 1001 	push	hl
   4B10 21 00 C0      [10] 1002 	ld	hl,#0xC000
   4B13 E5            [11] 1003 	push	hl
   4B14 CD 5C 74      [17] 1004 	call	_cpct_getScreenPtr
                           1005 ;src/main.c:46: cpct_drawStringM0("Lounge Gladiator",memptr,1,0);
   4B17 4D            [ 4] 1006 	ld	c, l
   4B18 44            [ 4] 1007 	ld	b, h
   4B19 11 2B 4B      [10] 1008 	ld	de,#___str_0
   4B1C 21 01 00      [10] 1009 	ld	hl,#0x0001
   4B1F E5            [11] 1010 	push	hl
   4B20 C5            [11] 1011 	push	bc
   4B21 D5            [11] 1012 	push	de
   4B22 CD 20 72      [17] 1013 	call	_cpct_drawStringM0
   4B25 21 06 00      [10] 1014 	ld	hl,#6
   4B28 39            [11] 1015 	add	hl,sp
   4B29 F9            [ 6] 1016 	ld	sp,hl
   4B2A C9            [10] 1017 	ret
   4B2B                    1018 ___str_0:
   4B2B 4C 6F 75 6E 67 65  1019 	.ascii "Lounge Gladiator"
        20 47 6C 61 64 69
        61 74 6F 72
   4B3B 00                 1020 	.db 0x00
                           1021 ;src/main.c:51: int menu(){
                           1022 ;	---------------------------------
                           1023 ; Function menu
                           1024 ; ---------------------------------
   4B3C                    1025 _menu::
   4B3C DD E5         [15] 1026 	push	ix
   4B3E DD 21 00 00   [14] 1027 	ld	ix,#0
   4B42 DD 39         [15] 1028 	add	ix,sp
   4B44 21 FA FF      [10] 1029 	ld	hl,#-6
   4B47 39            [11] 1030 	add	hl,sp
   4B48 F9            [ 6] 1031 	ld	sp,hl
                           1032 ;src/main.c:53: int init = 50;
   4B49 DD 36 FC 32   [19] 1033 	ld	-4 (ix),#0x32
   4B4D DD 36 FD 00   [19] 1034 	ld	-3 (ix),#0x00
                           1035 ;src/main.c:54: int pushed =0;
   4B51 21 00 00      [10] 1036 	ld	hl,#0x0000
   4B54 E3            [19] 1037 	ex	(sp), hl
                           1038 ;src/main.c:55: int cont =0;
   4B55 11 00 00      [10] 1039 	ld	de,#0x0000
                           1040 ;src/main.c:56: cpct_clearScreen(0);
   4B58 D5            [11] 1041 	push	de
   4B59 21 00 40      [10] 1042 	ld	hl,#0x4000
   4B5C E5            [11] 1043 	push	hl
   4B5D AF            [ 4] 1044 	xor	a, a
   4B5E F5            [11] 1045 	push	af
   4B5F 33            [ 6] 1046 	inc	sp
   4B60 26 C0         [ 7] 1047 	ld	h, #0xC0
   4B62 E5            [11] 1048 	push	hl
   4B63 CD 69 73      [17] 1049 	call	_cpct_memset
   4B66 21 0A 0A      [10] 1050 	ld	hl,#0x0A0A
   4B69 E5            [11] 1051 	push	hl
   4B6A 21 00 C0      [10] 1052 	ld	hl,#0xC000
   4B6D E5            [11] 1053 	push	hl
   4B6E CD 5C 74      [17] 1054 	call	_cpct_getScreenPtr
   4B71 D1            [10] 1055 	pop	de
                           1056 ;src/main.c:59: cpct_drawStringM0("Lounge Gladiator",memptr,1,0);
   4B72 4D            [ 4] 1057 	ld	c, l
   4B73 44            [ 4] 1058 	ld	b, h
   4B74 D5            [11] 1059 	push	de
   4B75 21 01 00      [10] 1060 	ld	hl,#0x0001
   4B78 E5            [11] 1061 	push	hl
   4B79 C5            [11] 1062 	push	bc
   4B7A 21 1F 4D      [10] 1063 	ld	hl,#___str_1
   4B7D E5            [11] 1064 	push	hl
   4B7E CD 20 72      [17] 1065 	call	_cpct_drawStringM0
   4B81 21 06 00      [10] 1066 	ld	hl,#6
   4B84 39            [11] 1067 	add	hl,sp
   4B85 F9            [ 6] 1068 	ld	sp,hl
   4B86 21 14 32      [10] 1069 	ld	hl,#0x3214
   4B89 E5            [11] 1070 	push	hl
   4B8A 21 00 C0      [10] 1071 	ld	hl,#0xC000
   4B8D E5            [11] 1072 	push	hl
   4B8E CD 5C 74      [17] 1073 	call	_cpct_getScreenPtr
   4B91 D1            [10] 1074 	pop	de
                           1075 ;src/main.c:63: cpct_drawStringM0("Nueva Partida",memptr,1,0);
   4B92 4D            [ 4] 1076 	ld	c, l
   4B93 44            [ 4] 1077 	ld	b, h
   4B94 D5            [11] 1078 	push	de
   4B95 21 01 00      [10] 1079 	ld	hl,#0x0001
   4B98 E5            [11] 1080 	push	hl
   4B99 C5            [11] 1081 	push	bc
   4B9A 21 30 4D      [10] 1082 	ld	hl,#___str_2
   4B9D E5            [11] 1083 	push	hl
   4B9E CD 20 72      [17] 1084 	call	_cpct_drawStringM0
   4BA1 21 06 00      [10] 1085 	ld	hl,#6
   4BA4 39            [11] 1086 	add	hl,sp
   4BA5 F9            [ 6] 1087 	ld	sp,hl
   4BA6 21 14 46      [10] 1088 	ld	hl,#0x4614
   4BA9 E5            [11] 1089 	push	hl
   4BAA 21 00 C0      [10] 1090 	ld	hl,#0xC000
   4BAD E5            [11] 1091 	push	hl
   4BAE CD 5C 74      [17] 1092 	call	_cpct_getScreenPtr
   4BB1 D1            [10] 1093 	pop	de
                           1094 ;src/main.c:66: cpct_drawStringM0("Creditos",memptr,1,0);
   4BB2 4D            [ 4] 1095 	ld	c, l
   4BB3 44            [ 4] 1096 	ld	b, h
   4BB4 D5            [11] 1097 	push	de
   4BB5 21 01 00      [10] 1098 	ld	hl,#0x0001
   4BB8 E5            [11] 1099 	push	hl
   4BB9 C5            [11] 1100 	push	bc
   4BBA 21 3E 4D      [10] 1101 	ld	hl,#___str_3
   4BBD E5            [11] 1102 	push	hl
   4BBE CD 20 72      [17] 1103 	call	_cpct_drawStringM0
   4BC1 21 06 00      [10] 1104 	ld	hl,#6
   4BC4 39            [11] 1105 	add	hl,sp
   4BC5 F9            [ 6] 1106 	ld	sp,hl
   4BC6 21 14 5A      [10] 1107 	ld	hl,#0x5A14
   4BC9 E5            [11] 1108 	push	hl
   4BCA 21 00 C0      [10] 1109 	ld	hl,#0xC000
   4BCD E5            [11] 1110 	push	hl
   4BCE CD 5C 74      [17] 1111 	call	_cpct_getScreenPtr
   4BD1 D1            [10] 1112 	pop	de
                           1113 ;src/main.c:59: cpct_drawStringM0("Lounge Gladiator",memptr,1,0);
   4BD2 DD 75 FE      [19] 1114 	ld	-2 (ix),l
   4BD5 DD 74 FF      [19] 1115 	ld	-1 (ix),h
                           1116 ;src/main.c:69: cpct_drawStringM0("Salir",memptr,1,0);
   4BD8 01 47 4D      [10] 1117 	ld	bc,#___str_4
   4BDB D5            [11] 1118 	push	de
   4BDC 21 01 00      [10] 1119 	ld	hl,#0x0001
   4BDF E5            [11] 1120 	push	hl
   4BE0 DD 6E FE      [19] 1121 	ld	l,-2 (ix)
   4BE3 DD 66 FF      [19] 1122 	ld	h,-1 (ix)
   4BE6 E5            [11] 1123 	push	hl
   4BE7 C5            [11] 1124 	push	bc
   4BE8 CD 20 72      [17] 1125 	call	_cpct_drawStringM0
   4BEB 21 06 00      [10] 1126 	ld	hl,#6
   4BEE 39            [11] 1127 	add	hl,sp
   4BEF F9            [ 6] 1128 	ld	sp,hl
   4BF0 D1            [10] 1129 	pop	de
                           1130 ;src/main.c:75: while(1){
   4BF1                    1131 00118$:
                           1132 ;src/main.c:77: cpct_scanKeyboard();
   4BF1 D5            [11] 1133 	push	de
   4BF2 CD 7C 74      [17] 1134 	call	_cpct_scanKeyboard
   4BF5 21 00 04      [10] 1135 	ld	hl,#0x0400
   4BF8 CD 33 71      [17] 1136 	call	_cpct_isKeyPressed
   4BFB 7D            [ 4] 1137 	ld	a,l
   4BFC D1            [10] 1138 	pop	de
   4BFD B7            [ 4] 1139 	or	a, a
   4BFE 28 2D         [12] 1140 	jr	Z,00102$
   4C00 3E 96         [ 7] 1141 	ld	a,#0x96
   4C02 BB            [ 4] 1142 	cp	a, e
   4C03 3E 00         [ 7] 1143 	ld	a,#0x00
   4C05 9A            [ 4] 1144 	sbc	a, d
   4C06 E2 0B 4C      [10] 1145 	jp	PO, 00162$
   4C09 EE 80         [ 7] 1146 	xor	a, #0x80
   4C0B                    1147 00162$:
   4C0B F2 2D 4C      [10] 1148 	jp	P,00102$
                           1149 ;src/main.c:79: cpct_drawSolidBox(memptr, 0, 2, 8);
   4C0E 21 02 08      [10] 1150 	ld	hl,#0x0802
   4C11 E5            [11] 1151 	push	hl
   4C12 AF            [ 4] 1152 	xor	a, a
   4C13 F5            [11] 1153 	push	af
   4C14 33            [ 6] 1154 	inc	sp
   4C15 DD 6E FE      [19] 1155 	ld	l,-2 (ix)
   4C18 DD 66 FF      [19] 1156 	ld	h,-1 (ix)
   4C1B E5            [11] 1157 	push	hl
   4C1C CD 8B 73      [17] 1158 	call	_cpct_drawSolidBox
   4C1F F1            [10] 1159 	pop	af
   4C20 F1            [10] 1160 	pop	af
   4C21 33            [ 6] 1161 	inc	sp
                           1162 ;src/main.c:80: pushed ++;
   4C22 DD 34 FA      [23] 1163 	inc	-6 (ix)
   4C25 20 03         [12] 1164 	jr	NZ,00163$
   4C27 DD 34 FB      [23] 1165 	inc	-5 (ix)
   4C2A                    1166 00163$:
                           1167 ;src/main.c:81: cont =0;
   4C2A 11 00 00      [10] 1168 	ld	de,#0x0000
   4C2D                    1169 00102$:
                           1170 ;src/main.c:83: if(cpct_isKeyPressed(Key_CursorUp) && cont > 150){
   4C2D D5            [11] 1171 	push	de
   4C2E 21 00 01      [10] 1172 	ld	hl,#0x0100
   4C31 CD 33 71      [17] 1173 	call	_cpct_isKeyPressed
   4C34 7D            [ 4] 1174 	ld	a,l
   4C35 D1            [10] 1175 	pop	de
   4C36 B7            [ 4] 1176 	or	a, a
   4C37 28 29         [12] 1177 	jr	Z,00105$
   4C39 3E 96         [ 7] 1178 	ld	a,#0x96
   4C3B BB            [ 4] 1179 	cp	a, e
   4C3C 3E 00         [ 7] 1180 	ld	a,#0x00
   4C3E 9A            [ 4] 1181 	sbc	a, d
   4C3F E2 44 4C      [10] 1182 	jp	PO, 00164$
   4C42 EE 80         [ 7] 1183 	xor	a, #0x80
   4C44                    1184 00164$:
   4C44 F2 62 4C      [10] 1185 	jp	P,00105$
                           1186 ;src/main.c:84: cpct_drawSolidBox(memptr, 0, 2, 8);
   4C47 21 02 08      [10] 1187 	ld	hl,#0x0802
   4C4A E5            [11] 1188 	push	hl
   4C4B AF            [ 4] 1189 	xor	a, a
   4C4C F5            [11] 1190 	push	af
   4C4D 33            [ 6] 1191 	inc	sp
   4C4E DD 6E FE      [19] 1192 	ld	l,-2 (ix)
   4C51 DD 66 FF      [19] 1193 	ld	h,-1 (ix)
   4C54 E5            [11] 1194 	push	hl
   4C55 CD 8B 73      [17] 1195 	call	_cpct_drawSolidBox
   4C58 F1            [10] 1196 	pop	af
   4C59 F1            [10] 1197 	pop	af
   4C5A 33            [ 6] 1198 	inc	sp
                           1199 ;src/main.c:85: pushed --;
   4C5B E1            [10] 1200 	pop	hl
   4C5C E5            [11] 1201 	push	hl
   4C5D 2B            [ 6] 1202 	dec	hl
   4C5E E3            [19] 1203 	ex	(sp), hl
                           1204 ;src/main.c:86: cont = 0;
   4C5F 11 00 00      [10] 1205 	ld	de,#0x0000
   4C62                    1206 00105$:
                           1207 ;src/main.c:89: switch (pushed){
   4C62 DD 7E FB      [19] 1208 	ld	a,-5 (ix)
   4C65 07            [ 4] 1209 	rlca
   4C66 E6 01         [ 7] 1210 	and	a,#0x01
   4C68 47            [ 4] 1211 	ld	b,a
   4C69 3E 02         [ 7] 1212 	ld	a,#0x02
   4C6B DD BE FA      [19] 1213 	cp	a, -6 (ix)
   4C6E 3E 00         [ 7] 1214 	ld	a,#0x00
   4C70 DD 9E FB      [19] 1215 	sbc	a, -5 (ix)
   4C73 E2 78 4C      [10] 1216 	jp	PO, 00165$
   4C76 EE 80         [ 7] 1217 	xor	a, #0x80
   4C78                    1218 00165$:
   4C78 07            [ 4] 1219 	rlca
   4C79 E6 01         [ 7] 1220 	and	a,#0x01
   4C7B 4F            [ 4] 1221 	ld	c,a
   4C7C 78            [ 4] 1222 	ld	a,b
   4C7D B7            [ 4] 1223 	or	a,a
   4C7E 20 32         [12] 1224 	jr	NZ,00110$
   4C80 B1            [ 4] 1225 	or	a,c
   4C81 20 2F         [12] 1226 	jr	NZ,00110$
   4C83 D5            [11] 1227 	push	de
   4C84 DD 5E FA      [19] 1228 	ld	e,-6 (ix)
   4C87 16 00         [ 7] 1229 	ld	d,#0x00
   4C89 21 90 4C      [10] 1230 	ld	hl,#00166$
   4C8C 19            [11] 1231 	add	hl,de
   4C8D 19            [11] 1232 	add	hl,de
                           1233 ;src/main.c:90: case 0: init = 50;break;
   4C8E D1            [10] 1234 	pop	de
   4C8F E9            [ 4] 1235 	jp	(hl)
   4C90                    1236 00166$:
   4C90 18 04         [12] 1237 	jr	00107$
   4C92 18 0C         [12] 1238 	jr	00108$
   4C94 18 14         [12] 1239 	jr	00109$
   4C96                    1240 00107$:
   4C96 DD 36 FC 32   [19] 1241 	ld	-4 (ix),#0x32
   4C9A DD 36 FD 00   [19] 1242 	ld	-3 (ix),#0x00
   4C9E 18 12         [12] 1243 	jr	00110$
                           1244 ;src/main.c:91: case 1: init = 70;break;
   4CA0                    1245 00108$:
   4CA0 DD 36 FC 46   [19] 1246 	ld	-4 (ix),#0x46
   4CA4 DD 36 FD 00   [19] 1247 	ld	-3 (ix),#0x00
   4CA8 18 08         [12] 1248 	jr	00110$
                           1249 ;src/main.c:92: case 2: init = 90;break;
   4CAA                    1250 00109$:
   4CAA DD 36 FC 5A   [19] 1251 	ld	-4 (ix),#0x5A
   4CAE DD 36 FD 00   [19] 1252 	ld	-3 (ix),#0x00
                           1253 ;src/main.c:93: }
   4CB2                    1254 00110$:
                           1255 ;src/main.c:94: memptr = cpct_getScreenPtr(VMEM,15,init);
   4CB2 DD 66 FC      [19] 1256 	ld	h,-4 (ix)
   4CB5 C5            [11] 1257 	push	bc
   4CB6 D5            [11] 1258 	push	de
   4CB7 E5            [11] 1259 	push	hl
   4CB8 33            [ 6] 1260 	inc	sp
   4CB9 3E 0F         [ 7] 1261 	ld	a,#0x0F
   4CBB F5            [11] 1262 	push	af
   4CBC 33            [ 6] 1263 	inc	sp
   4CBD 21 00 C0      [10] 1264 	ld	hl,#0xC000
   4CC0 E5            [11] 1265 	push	hl
   4CC1 CD 5C 74      [17] 1266 	call	_cpct_getScreenPtr
   4CC4 D1            [10] 1267 	pop	de
   4CC5 C1            [10] 1268 	pop	bc
                           1269 ;src/main.c:59: cpct_drawStringM0("Lounge Gladiator",memptr,1,0);
   4CC6 DD 75 FE      [19] 1270 	ld	-2 (ix),l
   4CC9 DD 74 FF      [19] 1271 	ld	-1 (ix),h
                           1272 ;src/main.c:95: cpct_drawSolidBox(memptr, 3, 2, 8);
   4CCC C5            [11] 1273 	push	bc
   4CCD D5            [11] 1274 	push	de
   4CCE 21 02 08      [10] 1275 	ld	hl,#0x0802
   4CD1 E5            [11] 1276 	push	hl
   4CD2 3E 03         [ 7] 1277 	ld	a,#0x03
   4CD4 F5            [11] 1278 	push	af
   4CD5 33            [ 6] 1279 	inc	sp
   4CD6 DD 6E FE      [19] 1280 	ld	l,-2 (ix)
   4CD9 DD 66 FF      [19] 1281 	ld	h,-1 (ix)
   4CDC E5            [11] 1282 	push	hl
   4CDD CD 8B 73      [17] 1283 	call	_cpct_drawSolidBox
   4CE0 F1            [10] 1284 	pop	af
   4CE1 F1            [10] 1285 	pop	af
   4CE2 33            [ 6] 1286 	inc	sp
   4CE3 21 00 40      [10] 1287 	ld	hl,#0x4000
   4CE6 CD 33 71      [17] 1288 	call	_cpct_isKeyPressed
   4CE9 7D            [ 4] 1289 	ld	a,l
   4CEA D1            [10] 1290 	pop	de
   4CEB C1            [10] 1291 	pop	bc
   4CEC B7            [ 4] 1292 	or	a, a
   4CED 28 27         [12] 1293 	jr	Z,00116$
                           1294 ;src/main.c:97: switch (pushed){
   4CEF 78            [ 4] 1295 	ld	a,b
   4CF0 B7            [ 4] 1296 	or	a,a
   4CF1 20 23         [12] 1297 	jr	NZ,00116$
   4CF3 B1            [ 4] 1298 	or	a,c
   4CF4 20 20         [12] 1299 	jr	NZ,00116$
   4CF6 DD 5E FA      [19] 1300 	ld	e,-6 (ix)
   4CF9 16 00         [ 7] 1301 	ld	d,#0x00
   4CFB 21 01 4D      [10] 1302 	ld	hl,#00167$
   4CFE 19            [11] 1303 	add	hl,de
   4CFF 19            [11] 1304 	add	hl,de
                           1305 ;src/main.c:98: case 0: return 1;break;
   4D00 E9            [ 4] 1306 	jp	(hl)
   4D01                    1307 00167$:
   4D01 18 04         [12] 1308 	jr	00111$
   4D03 18 07         [12] 1309 	jr	00112$
   4D05 18 0A         [12] 1310 	jr	00113$
   4D07                    1311 00111$:
   4D07 21 01 00      [10] 1312 	ld	hl,#0x0001
   4D0A 18 0E         [12] 1313 	jr	00120$
                           1314 ;src/main.c:99: case 1: return 2;break;
   4D0C                    1315 00112$:
   4D0C 21 02 00      [10] 1316 	ld	hl,#0x0002
   4D0F 18 09         [12] 1317 	jr	00120$
                           1318 ;src/main.c:100: case 2: return 0;break;
   4D11                    1319 00113$:
   4D11 21 00 00      [10] 1320 	ld	hl,#0x0000
   4D14 18 04         [12] 1321 	jr	00120$
                           1322 ;src/main.c:101: }
   4D16                    1323 00116$:
                           1324 ;src/main.c:103: cont++;
   4D16 13            [ 6] 1325 	inc	de
   4D17 C3 F1 4B      [10] 1326 	jp	00118$
   4D1A                    1327 00120$:
   4D1A DD F9         [10] 1328 	ld	sp, ix
   4D1C DD E1         [14] 1329 	pop	ix
   4D1E C9            [10] 1330 	ret
   4D1F                    1331 ___str_1:
   4D1F 4C 6F 75 6E 67 65  1332 	.ascii "Lounge Gladiator"
        20 47 6C 61 64 69
        61 74 6F 72
   4D2F 00                 1333 	.db 0x00
   4D30                    1334 ___str_2:
   4D30 4E 75 65 76 61 20  1335 	.ascii "Nueva Partida"
        50 61 72 74 69 64
        61
   4D3D 00                 1336 	.db 0x00
   4D3E                    1337 ___str_3:
   4D3E 43 72 65 64 69 74  1338 	.ascii "Creditos"
        6F 73
   4D46 00                 1339 	.db 0x00
   4D47                    1340 ___str_4:
   4D47 53 61 6C 69 72     1341 	.ascii "Salir"
   4D4C 00                 1342 	.db 0x00
                           1343 ;src/main.c:118: void drawMap(u8 t){
                           1344 ;	---------------------------------
                           1345 ; Function drawMap
                           1346 ; ---------------------------------
   4D4D                    1347 _drawMap::
   4D4D DD E5         [15] 1348 	push	ix
   4D4F DD 21 00 00   [14] 1349 	ld	ix,#0
   4D53 DD 39         [15] 1350 	add	ix,sp
   4D55 21 EE FF      [10] 1351 	ld	hl,#-18
   4D58 39            [11] 1352 	add	hl,sp
   4D59 F9            [ 6] 1353 	ld	sp,hl
                           1354 ;src/main.c:122: if(t == 1){
   4D5A DD 7E 04      [19] 1355 	ld	a,4 (ix)
   4D5D 3D            [ 4] 1356 	dec	a
   4D5E C2 06 4E      [10] 1357 	jp	NZ,00104$
                           1358 ;src/main.c:123: for(y=0;y<height;y++){
   4D61 21 00 00      [10] 1359 	ld	hl,#0x0000
   4D64 E3            [19] 1360 	ex	(sp), hl
   4D65 DD 36 FC 00   [19] 1361 	ld	-4 (ix),#0x00
   4D69 DD 36 FD 00   [19] 1362 	ld	-3 (ix),#0x00
                           1363 ;src/main.c:124: for(x=0;x<width;x++){
   4D6D                    1364 00130$:
   4D6D 3E 52         [ 7] 1365 	ld	a,#<(_scene)
   4D6F DD 86 FC      [19] 1366 	add	a, -4 (ix)
   4D72 DD 77 F8      [19] 1367 	ld	-8 (ix),a
   4D75 3E 75         [ 7] 1368 	ld	a,#>(_scene)
   4D77 DD 8E FD      [19] 1369 	adc	a, -3 (ix)
   4D7A DD 77 F9      [19] 1370 	ld	-7 (ix),a
   4D7D 3E 3D         [ 7] 1371 	ld	a,#<(_mapa1)
   4D7F DD 86 FC      [19] 1372 	add	a, -4 (ix)
   4D82 DD 77 F6      [19] 1373 	ld	-10 (ix),a
   4D85 3E 47         [ 7] 1374 	ld	a,#>(_mapa1)
   4D87 DD 8E FD      [19] 1375 	adc	a, -3 (ix)
   4D8A DD 77 F7      [19] 1376 	ld	-9 (ix),a
   4D8D DD 36 F0 00   [19] 1377 	ld	-16 (ix),#0x00
   4D91 DD 36 F1 00   [19] 1378 	ld	-15 (ix),#0x00
   4D95                    1379 00115$:
                           1380 ;src/main.c:125: scene[y][x] = mapa1[y][x];
   4D95 DD 7E F8      [19] 1381 	ld	a,-8 (ix)
   4D98 DD 86 F0      [19] 1382 	add	a, -16 (ix)
   4D9B DD 77 FA      [19] 1383 	ld	-6 (ix),a
   4D9E DD 7E F9      [19] 1384 	ld	a,-7 (ix)
   4DA1 DD 8E F1      [19] 1385 	adc	a, -15 (ix)
   4DA4 DD 77 FB      [19] 1386 	ld	-5 (ix),a
   4DA7 DD 7E F6      [19] 1387 	ld	a,-10 (ix)
   4DAA DD 86 F0      [19] 1388 	add	a, -16 (ix)
   4DAD DD 77 FE      [19] 1389 	ld	-2 (ix),a
   4DB0 DD 7E F7      [19] 1390 	ld	a,-9 (ix)
   4DB3 DD 8E F1      [19] 1391 	adc	a, -15 (ix)
   4DB6 DD 77 FF      [19] 1392 	ld	-1 (ix),a
   4DB9 DD 6E FE      [19] 1393 	ld	l,-2 (ix)
   4DBC DD 66 FF      [19] 1394 	ld	h,-1 (ix)
   4DBF 7E            [ 7] 1395 	ld	a,(hl)
   4DC0 DD 6E FA      [19] 1396 	ld	l,-6 (ix)
   4DC3 DD 66 FB      [19] 1397 	ld	h,-5 (ix)
   4DC6 77            [ 7] 1398 	ld	(hl),a
                           1399 ;src/main.c:124: for(x=0;x<width;x++){
   4DC7 DD 34 F0      [23] 1400 	inc	-16 (ix)
   4DCA 20 03         [12] 1401 	jr	NZ,00189$
   4DCC DD 34 F1      [23] 1402 	inc	-15 (ix)
   4DCF                    1403 00189$:
   4DCF DD 7E F0      [19] 1404 	ld	a,-16 (ix)
   4DD2 D6 14         [ 7] 1405 	sub	a, #0x14
   4DD4 DD 7E F1      [19] 1406 	ld	a,-15 (ix)
   4DD7 17            [ 4] 1407 	rla
   4DD8 3F            [ 4] 1408 	ccf
   4DD9 1F            [ 4] 1409 	rra
   4DDA DE 80         [ 7] 1410 	sbc	a, #0x80
   4DDC 38 B7         [12] 1411 	jr	C,00115$
                           1412 ;src/main.c:123: for(y=0;y<height;y++){
   4DDE DD 7E FC      [19] 1413 	ld	a,-4 (ix)
   4DE1 C6 14         [ 7] 1414 	add	a, #0x14
   4DE3 DD 77 FC      [19] 1415 	ld	-4 (ix),a
   4DE6 DD 7E FD      [19] 1416 	ld	a,-3 (ix)
   4DE9 CE 00         [ 7] 1417 	adc	a, #0x00
   4DEB DD 77 FD      [19] 1418 	ld	-3 (ix),a
   4DEE DD 34 EE      [23] 1419 	inc	-18 (ix)
   4DF1 20 03         [12] 1420 	jr	NZ,00190$
   4DF3 DD 34 EF      [23] 1421 	inc	-17 (ix)
   4DF6                    1422 00190$:
   4DF6 DD 7E EE      [19] 1423 	ld	a,-18 (ix)
   4DF9 D6 0C         [ 7] 1424 	sub	a, #0x0C
   4DFB DD 7E EF      [19] 1425 	ld	a,-17 (ix)
   4DFE 17            [ 4] 1426 	rla
   4DFF 3F            [ 4] 1427 	ccf
   4E00 1F            [ 4] 1428 	rra
   4E01 DE 80         [ 7] 1429 	sbc	a, #0x80
   4E03 DA 6D 4D      [10] 1430 	jp	C,00130$
   4E06                    1431 00104$:
                           1432 ;src/main.c:130: if(t == 2){
   4E06 DD 7E 04      [19] 1433 	ld	a,4 (ix)
   4E09 D6 02         [ 7] 1434 	sub	a, #0x02
   4E0B 20 5F         [12] 1435 	jr	NZ,00141$
                           1436 ;src/main.c:131: for(y=0;y<height;y++){
   4E0D 21 00 00      [10] 1437 	ld	hl,#0x0000
   4E10 E3            [19] 1438 	ex	(sp), hl
   4E11 11 00 00      [10] 1439 	ld	de,#0x0000
                           1440 ;src/main.c:132: for(x=0;x<width;x++){
   4E14                    1441 00134$:
   4E14 21 52 75      [10] 1442 	ld	hl,#_scene
   4E17 19            [11] 1443 	add	hl,de
   4E18 DD 75 FE      [19] 1444 	ld	-2 (ix),l
   4E1B DD 74 FF      [19] 1445 	ld	-1 (ix),h
   4E1E 21 2D 48      [10] 1446 	ld	hl,#_mapa2
   4E21 19            [11] 1447 	add	hl,de
   4E22 DD 75 FA      [19] 1448 	ld	-6 (ix),l
   4E25 DD 74 FB      [19] 1449 	ld	-5 (ix),h
   4E28 01 00 00      [10] 1450 	ld	bc,#0x0000
   4E2B                    1451 00119$:
                           1452 ;src/main.c:133: scene[y][x] = mapa2[y][x];
   4E2B E5            [11] 1453 	push	hl
   4E2C DD 6E FE      [19] 1454 	ld	l,-2 (ix)
   4E2F DD 66 FF      [19] 1455 	ld	h,-1 (ix)
   4E32 E5            [11] 1456 	push	hl
   4E33 FD E1         [14] 1457 	pop	iy
   4E35 E1            [10] 1458 	pop	hl
   4E36 FD 09         [15] 1459 	add	iy, bc
   4E38 DD 6E FA      [19] 1460 	ld	l,-6 (ix)
   4E3B DD 66 FB      [19] 1461 	ld	h,-5 (ix)
   4E3E 09            [11] 1462 	add	hl,bc
   4E3F 7E            [ 7] 1463 	ld	a,(hl)
   4E40 FD 77 00      [19] 1464 	ld	0 (iy), a
                           1465 ;src/main.c:132: for(x=0;x<width;x++){
   4E43 03            [ 6] 1466 	inc	bc
   4E44 79            [ 4] 1467 	ld	a,c
   4E45 D6 14         [ 7] 1468 	sub	a, #0x14
   4E47 78            [ 4] 1469 	ld	a,b
   4E48 17            [ 4] 1470 	rla
   4E49 3F            [ 4] 1471 	ccf
   4E4A 1F            [ 4] 1472 	rra
   4E4B DE 80         [ 7] 1473 	sbc	a, #0x80
   4E4D 38 DC         [12] 1474 	jr	C,00119$
                           1475 ;src/main.c:131: for(y=0;y<height;y++){
   4E4F 21 14 00      [10] 1476 	ld	hl,#0x0014
   4E52 19            [11] 1477 	add	hl,de
   4E53 5D            [ 4] 1478 	ld	e,l
   4E54 54            [ 4] 1479 	ld	d,h
   4E55 DD 34 EE      [23] 1480 	inc	-18 (ix)
   4E58 20 03         [12] 1481 	jr	NZ,00193$
   4E5A DD 34 EF      [23] 1482 	inc	-17 (ix)
   4E5D                    1483 00193$:
   4E5D DD 7E EE      [19] 1484 	ld	a,-18 (ix)
   4E60 D6 0C         [ 7] 1485 	sub	a, #0x0C
   4E62 DD 7E EF      [19] 1486 	ld	a,-17 (ix)
   4E65 17            [ 4] 1487 	rla
   4E66 3F            [ 4] 1488 	ccf
   4E67 1F            [ 4] 1489 	rra
   4E68 DE 80         [ 7] 1490 	sbc	a, #0x80
   4E6A 38 A8         [12] 1491 	jr	C,00134$
                           1492 ;src/main.c:138: for(posY=0; posY<height;posY++){
   4E6C                    1493 00141$:
   4E6C DD 36 F2 00   [19] 1494 	ld	-14 (ix),#0x00
   4E70 DD 36 F3 00   [19] 1495 	ld	-13 (ix),#0x00
   4E74 DD 36 FE 00   [19] 1496 	ld	-2 (ix),#0x00
   4E78 DD 36 FF 00   [19] 1497 	ld	-1 (ix),#0x00
   4E7C DD 36 FA 00   [19] 1498 	ld	-6 (ix),#0x00
   4E80 DD 36 FB 00   [19] 1499 	ld	-5 (ix),#0x00
                           1500 ;src/main.c:139: for(posX=0; posX<width;posX++){
   4E84                    1501 00139$:
   4E84 3E 52         [ 7] 1502 	ld	a,#<(_scene)
   4E86 DD 86 FA      [19] 1503 	add	a, -6 (ix)
   4E89 DD 77 F6      [19] 1504 	ld	-10 (ix),a
   4E8C 3E 75         [ 7] 1505 	ld	a,#>(_scene)
   4E8E DD 8E FB      [19] 1506 	adc	a, -5 (ix)
   4E91 DD 77 F7      [19] 1507 	ld	-9 (ix),a
   4E94 DD 36 F4 00   [19] 1508 	ld	-12 (ix),#0x00
   4E98 DD 36 F5 00   [19] 1509 	ld	-11 (ix),#0x00
   4E9C                    1510 00123$:
                           1511 ;src/main.c:140: memptr = cpct_getScreenPtr(VMEM, posX*tilewidth, posY*tileheight);
   4E9C DD 7E F2      [19] 1512 	ld	a,-14 (ix)
   4E9F 07            [ 4] 1513 	rlca
   4EA0 07            [ 4] 1514 	rlca
   4EA1 07            [ 4] 1515 	rlca
   4EA2 07            [ 4] 1516 	rlca
   4EA3 E6 F0         [ 7] 1517 	and	a,#0xF0
   4EA5 67            [ 4] 1518 	ld	h,a
   4EA6 DD 7E F4      [19] 1519 	ld	a,-12 (ix)
   4EA9 87            [ 4] 1520 	add	a, a
   4EAA 87            [ 4] 1521 	add	a, a
   4EAB E5            [11] 1522 	push	hl
   4EAC 33            [ 6] 1523 	inc	sp
   4EAD F5            [11] 1524 	push	af
   4EAE 33            [ 6] 1525 	inc	sp
   4EAF 21 00 C0      [10] 1526 	ld	hl,#0xC000
   4EB2 E5            [11] 1527 	push	hl
   4EB3 CD 5C 74      [17] 1528 	call	_cpct_getScreenPtr
   4EB6 EB            [ 4] 1529 	ex	de,hl
                           1530 ;src/main.c:141: if(scene[posY][posX] == 1){
   4EB7 DD 7E F6      [19] 1531 	ld	a,-10 (ix)
   4EBA DD 86 F4      [19] 1532 	add	a, -12 (ix)
   4EBD 6F            [ 4] 1533 	ld	l,a
   4EBE DD 7E F7      [19] 1534 	ld	a,-9 (ix)
   4EC1 DD 8E F5      [19] 1535 	adc	a, -11 (ix)
   4EC4 67            [ 4] 1536 	ld	h,a
   4EC5 66            [ 7] 1537 	ld	h,(hl)
                           1538 ;src/main.c:142: cpct_drawSolidBox(memptr, 3, tilewidth, tileheight);
   4EC6 DD 73 F8      [19] 1539 	ld	-8 (ix),e
   4EC9 DD 72 F9      [19] 1540 	ld	-7 (ix),d
                           1541 ;src/main.c:141: if(scene[posY][posX] == 1){
   4ECC 25            [ 4] 1542 	dec	h
   4ECD 20 15         [12] 1543 	jr	NZ,00110$
                           1544 ;src/main.c:142: cpct_drawSolidBox(memptr, 3, tilewidth, tileheight);
   4ECF 21 04 10      [10] 1545 	ld	hl,#0x1004
   4ED2 E5            [11] 1546 	push	hl
   4ED3 3E 03         [ 7] 1547 	ld	a,#0x03
   4ED5 F5            [11] 1548 	push	af
   4ED6 33            [ 6] 1549 	inc	sp
   4ED7 DD 6E F8      [19] 1550 	ld	l,-8 (ix)
   4EDA DD 66 F9      [19] 1551 	ld	h,-7 (ix)
   4EDD E5            [11] 1552 	push	hl
   4EDE CD 8B 73      [17] 1553 	call	_cpct_drawSolidBox
   4EE1 F1            [10] 1554 	pop	af
   4EE2 F1            [10] 1555 	pop	af
   4EE3 33            [ 6] 1556 	inc	sp
   4EE4                    1557 00110$:
                           1558 ;src/main.c:144: if(scene[posY][posX] == 9){
   4EE4 3E 52         [ 7] 1559 	ld	a,#<(_scene)
   4EE6 DD 86 FE      [19] 1560 	add	a, -2 (ix)
   4EE9 6F            [ 4] 1561 	ld	l,a
   4EEA 3E 75         [ 7] 1562 	ld	a,#>(_scene)
   4EEC DD 8E FF      [19] 1563 	adc	a, -1 (ix)
   4EEF 67            [ 4] 1564 	ld	h,a
   4EF0 DD 5E F4      [19] 1565 	ld	e,-12 (ix)
   4EF3 DD 56 F5      [19] 1566 	ld	d,-11 (ix)
   4EF6 19            [11] 1567 	add	hl,de
   4EF7 7E            [ 7] 1568 	ld	a,(hl)
   4EF8 D6 09         [ 7] 1569 	sub	a, #0x09
   4EFA 20 15         [12] 1570 	jr	NZ,00124$
                           1571 ;src/main.c:145: cpct_drawSolidBox(memptr, 9, tilewidth, tileheight);
   4EFC 21 04 10      [10] 1572 	ld	hl,#0x1004
   4EFF E5            [11] 1573 	push	hl
   4F00 3E 09         [ 7] 1574 	ld	a,#0x09
   4F02 F5            [11] 1575 	push	af
   4F03 33            [ 6] 1576 	inc	sp
   4F04 DD 6E F8      [19] 1577 	ld	l,-8 (ix)
   4F07 DD 66 F9      [19] 1578 	ld	h,-7 (ix)
   4F0A E5            [11] 1579 	push	hl
   4F0B CD 8B 73      [17] 1580 	call	_cpct_drawSolidBox
   4F0E F1            [10] 1581 	pop	af
   4F0F F1            [10] 1582 	pop	af
   4F10 33            [ 6] 1583 	inc	sp
   4F11                    1584 00124$:
                           1585 ;src/main.c:139: for(posX=0; posX<width;posX++){
   4F11 DD 34 F4      [23] 1586 	inc	-12 (ix)
   4F14 20 03         [12] 1587 	jr	NZ,00198$
   4F16 DD 34 F5      [23] 1588 	inc	-11 (ix)
   4F19                    1589 00198$:
   4F19 DD 7E F4      [19] 1590 	ld	a,-12 (ix)
   4F1C D6 14         [ 7] 1591 	sub	a, #0x14
   4F1E DD 7E F5      [19] 1592 	ld	a,-11 (ix)
   4F21 17            [ 4] 1593 	rla
   4F22 3F            [ 4] 1594 	ccf
   4F23 1F            [ 4] 1595 	rra
   4F24 DE 80         [ 7] 1596 	sbc	a, #0x80
   4F26 DA 9C 4E      [10] 1597 	jp	C,00123$
                           1598 ;src/main.c:138: for(posY=0; posY<height;posY++){
   4F29 DD 7E FE      [19] 1599 	ld	a,-2 (ix)
   4F2C C6 14         [ 7] 1600 	add	a, #0x14
   4F2E DD 77 FE      [19] 1601 	ld	-2 (ix),a
   4F31 DD 7E FF      [19] 1602 	ld	a,-1 (ix)
   4F34 CE 00         [ 7] 1603 	adc	a, #0x00
   4F36 DD 77 FF      [19] 1604 	ld	-1 (ix),a
   4F39 DD 7E FA      [19] 1605 	ld	a,-6 (ix)
   4F3C C6 14         [ 7] 1606 	add	a, #0x14
   4F3E DD 77 FA      [19] 1607 	ld	-6 (ix),a
   4F41 DD 7E FB      [19] 1608 	ld	a,-5 (ix)
   4F44 CE 00         [ 7] 1609 	adc	a, #0x00
   4F46 DD 77 FB      [19] 1610 	ld	-5 (ix),a
   4F49 DD 34 F2      [23] 1611 	inc	-14 (ix)
   4F4C 20 03         [12] 1612 	jr	NZ,00199$
   4F4E DD 34 F3      [23] 1613 	inc	-13 (ix)
   4F51                    1614 00199$:
   4F51 DD 7E F2      [19] 1615 	ld	a,-14 (ix)
   4F54 D6 0C         [ 7] 1616 	sub	a, #0x0C
   4F56 DD 7E F3      [19] 1617 	ld	a,-13 (ix)
   4F59 17            [ 4] 1618 	rla
   4F5A 3F            [ 4] 1619 	ccf
   4F5B 1F            [ 4] 1620 	rra
   4F5C DE 80         [ 7] 1621 	sbc	a, #0x80
   4F5E DA 84 4E      [10] 1622 	jp	C,00139$
   4F61 DD F9         [10] 1623 	ld	sp, ix
   4F63 DD E1         [14] 1624 	pop	ix
   4F65 C9            [10] 1625 	ret
                           1626 ;src/main.c:159: void drawPlayer(u8 x,u8 y,u8 *sprite,u8 sizeX,u8 sizeY,u8 life){
                           1627 ;	---------------------------------
                           1628 ; Function drawPlayer
                           1629 ; ---------------------------------
   4F66                    1630 _drawPlayer::
   4F66 DD E5         [15] 1631 	push	ix
   4F68 DD 21 00 00   [14] 1632 	ld	ix,#0
   4F6C DD 39         [15] 1633 	add	ix,sp
                           1634 ;src/main.c:161: if(life > 0){
   4F6E DD 7E 0A      [19] 1635 	ld	a,10 (ix)
   4F71 B7            [ 4] 1636 	or	a, a
   4F72 28 22         [12] 1637 	jr	Z,00103$
                           1638 ;src/main.c:162: memptr = cpct_getScreenPtr(VMEM,x,y);
   4F74 DD 66 05      [19] 1639 	ld	h,5 (ix)
   4F77 DD 6E 04      [19] 1640 	ld	l,4 (ix)
   4F7A E5            [11] 1641 	push	hl
   4F7B 21 00 C0      [10] 1642 	ld	hl,#0xC000
   4F7E E5            [11] 1643 	push	hl
   4F7F CD 5C 74      [17] 1644 	call	_cpct_getScreenPtr
                           1645 ;src/main.c:163: cpct_drawSpriteMasked(sprite, memptr, sizeX, sizeY);
   4F82 4D            [ 4] 1646 	ld	c, l
   4F83 44            [ 4] 1647 	ld	b, h
   4F84 DD 5E 06      [19] 1648 	ld	e,6 (ix)
   4F87 DD 56 07      [19] 1649 	ld	d,7 (ix)
   4F8A DD 66 09      [19] 1650 	ld	h,9 (ix)
   4F8D DD 6E 08      [19] 1651 	ld	l,8 (ix)
   4F90 E5            [11] 1652 	push	hl
   4F91 C5            [11] 1653 	push	bc
   4F92 D5            [11] 1654 	push	de
   4F93 CD 05 73      [17] 1655 	call	_cpct_drawSpriteMasked
   4F96                    1656 00103$:
   4F96 DD E1         [14] 1657 	pop	ix
   4F98 C9            [10] 1658 	ret
                           1659 ;src/main.c:167: void erasePlayer(u8 x,u8 y,u8 sizeX,u8 sizeY){
                           1660 ;	---------------------------------
                           1661 ; Function erasePlayer
                           1662 ; ---------------------------------
   4F99                    1663 _erasePlayer::
                           1664 ;src/main.c:170: memptr = cpct_getScreenPtr(VMEM,x,y);
   4F99 21 03 00      [10] 1665 	ld	hl, #3+0
   4F9C 39            [11] 1666 	add	hl, sp
   4F9D 7E            [ 7] 1667 	ld	a, (hl)
   4F9E F5            [11] 1668 	push	af
   4F9F 33            [ 6] 1669 	inc	sp
   4FA0 21 03 00      [10] 1670 	ld	hl, #3+0
   4FA3 39            [11] 1671 	add	hl, sp
   4FA4 7E            [ 7] 1672 	ld	a, (hl)
   4FA5 F5            [11] 1673 	push	af
   4FA6 33            [ 6] 1674 	inc	sp
   4FA7 21 00 C0      [10] 1675 	ld	hl,#0xC000
   4FAA E5            [11] 1676 	push	hl
   4FAB CD 5C 74      [17] 1677 	call	_cpct_getScreenPtr
                           1678 ;src/main.c:171: cpct_drawSolidBox(memptr,0,sizeX,sizeY);
   4FAE EB            [ 4] 1679 	ex	de,hl
   4FAF 21 05 00      [10] 1680 	ld	hl, #5+0
   4FB2 39            [11] 1681 	add	hl, sp
   4FB3 7E            [ 7] 1682 	ld	a, (hl)
   4FB4 F5            [11] 1683 	push	af
   4FB5 33            [ 6] 1684 	inc	sp
   4FB6 21 05 00      [10] 1685 	ld	hl, #5+0
   4FB9 39            [11] 1686 	add	hl, sp
   4FBA 7E            [ 7] 1687 	ld	a, (hl)
   4FBB F5            [11] 1688 	push	af
   4FBC 33            [ 6] 1689 	inc	sp
   4FBD AF            [ 4] 1690 	xor	a, a
   4FBE F5            [11] 1691 	push	af
   4FBF 33            [ 6] 1692 	inc	sp
   4FC0 D5            [11] 1693 	push	de
   4FC1 CD 8B 73      [17] 1694 	call	_cpct_drawSolidBox
   4FC4 F1            [10] 1695 	pop	af
   4FC5 F1            [10] 1696 	pop	af
   4FC6 33            [ 6] 1697 	inc	sp
   4FC7 C9            [10] 1698 	ret
                           1699 ;src/main.c:179: void drawFatiga(u8 atk, u8 col){
                           1700 ;	---------------------------------
                           1701 ; Function drawFatiga
                           1702 ; ---------------------------------
   4FC8                    1703 _drawFatiga::
   4FC8 DD E5         [15] 1704 	push	ix
   4FCA DD 21 00 00   [14] 1705 	ld	ix,#0
   4FCE DD 39         [15] 1706 	add	ix,sp
   4FD0 F5            [11] 1707 	push	af
                           1708 ;src/main.c:181: if(atk < 20)
   4FD1 DD 7E 04      [19] 1709 	ld	a,4 (ix)
   4FD4 D6 14         [ 7] 1710 	sub	a, #0x14
   4FD6 30 04         [12] 1711 	jr	NC,00102$
                           1712 ;src/main.c:182: col = 2;
   4FD8 DD 36 05 02   [19] 1713 	ld	5 (ix),#0x02
   4FDC                    1714 00102$:
                           1715 ;src/main.c:183: if(atk > 30 || atk <= 20){
   4FDC 3E 14         [ 7] 1716 	ld	a,#0x14
   4FDE DD 96 04      [19] 1717 	sub	a, 4 (ix)
   4FE1 3E 00         [ 7] 1718 	ld	a,#0x00
   4FE3 17            [ 4] 1719 	rla
   4FE4 DD 77 FF      [19] 1720 	ld	-1 (ix),a
                           1721 ;src/main.c:185: switch(col){
   4FE7 3E 02         [ 7] 1722 	ld	a,#0x02
   4FE9 DD 96 05      [19] 1723 	sub	a, 5 (ix)
   4FEC 3E 00         [ 7] 1724 	ld	a,#0x00
   4FEE 17            [ 4] 1725 	rla
   4FEF DD 77 FE      [19] 1726 	ld	-2 (ix),a
                           1727 ;src/main.c:183: if(atk > 30 || atk <= 20){
   4FF2 3E 1E         [ 7] 1728 	ld	a,#0x1E
   4FF4 DD 96 04      [19] 1729 	sub	a, 4 (ix)
   4FF7 38 06         [12] 1730 	jr	C,00107$
   4FF9 DD 7E FF      [19] 1731 	ld	a,-1 (ix)
   4FFC B7            [ 4] 1732 	or	a, a
   4FFD 20 4F         [12] 1733 	jr	NZ,00108$
   4FFF                    1734 00107$:
                           1735 ;src/main.c:184: memptr = cpct_getScreenPtr(VMEM,4,192);
   4FFF 21 04 C0      [10] 1736 	ld	hl,#0xC004
   5002 E5            [11] 1737 	push	hl
   5003 2E 00         [ 7] 1738 	ld	l, #0x00
   5005 E5            [11] 1739 	push	hl
   5006 CD 5C 74      [17] 1740 	call	_cpct_getScreenPtr
                           1741 ;src/main.c:185: switch(col){
   5009 DD 7E FE      [19] 1742 	ld	a,-2 (ix)
   500C B7            [ 4] 1743 	or	a, a
   500D 20 3F         [12] 1744 	jr	NZ,00108$
                           1745 ;src/main.c:187: cpct_drawSolidBox(memptr, col, 2, 8);
   500F 4D            [ 4] 1746 	ld	c, l
   5010 44            [ 4] 1747 	ld	b, h
                           1748 ;src/main.c:185: switch(col){
   5011 DD 5E 05      [19] 1749 	ld	e,5 (ix)
   5014 16 00         [ 7] 1750 	ld	d,#0x00
   5016 21 1C 50      [10] 1751 	ld	hl,#00156$
   5019 19            [11] 1752 	add	hl,de
   501A 19            [11] 1753 	add	hl,de
                           1754 ;src/main.c:186: case 0:
   501B E9            [ 4] 1755 	jp	(hl)
   501C                    1756 00156$:
   501C 18 04         [12] 1757 	jr	00103$
   501E 18 14         [12] 1758 	jr	00104$
   5020 18 20         [12] 1759 	jr	00105$
   5022                    1760 00103$:
                           1761 ;src/main.c:187: cpct_drawSolidBox(memptr, col, 2, 8);
   5022 21 02 08      [10] 1762 	ld	hl,#0x0802
   5025 E5            [11] 1763 	push	hl
   5026 DD 7E 05      [19] 1764 	ld	a,5 (ix)
   5029 F5            [11] 1765 	push	af
   502A 33            [ 6] 1766 	inc	sp
   502B C5            [11] 1767 	push	bc
   502C CD 8B 73      [17] 1768 	call	_cpct_drawSolidBox
   502F F1            [10] 1769 	pop	af
   5030 F1            [10] 1770 	pop	af
   5031 33            [ 6] 1771 	inc	sp
                           1772 ;src/main.c:188: break;
   5032 18 1A         [12] 1773 	jr	00108$
                           1774 ;src/main.c:189: case 1:
   5034                    1775 00104$:
                           1776 ;src/main.c:190: cpct_drawSpriteMasked(fatiga_nor, memptr, 2, 8);
   5034 11 C0 46      [10] 1777 	ld	de,#_fatiga_nor
   5037 21 02 08      [10] 1778 	ld	hl,#0x0802
   503A E5            [11] 1779 	push	hl
   503B C5            [11] 1780 	push	bc
   503C D5            [11] 1781 	push	de
   503D CD 05 73      [17] 1782 	call	_cpct_drawSpriteMasked
                           1783 ;src/main.c:191: break;
   5040 18 0C         [12] 1784 	jr	00108$
                           1785 ;src/main.c:192: case 2:
   5042                    1786 00105$:
                           1787 ;src/main.c:193: cpct_drawSpriteMasked(fatiga_full, memptr, 2, 8);
   5042 11 E0 46      [10] 1788 	ld	de,#_fatiga_full
   5045 21 02 08      [10] 1789 	ld	hl,#0x0802
   5048 E5            [11] 1790 	push	hl
   5049 C5            [11] 1791 	push	bc
   504A D5            [11] 1792 	push	de
   504B CD 05 73      [17] 1793 	call	_cpct_drawSpriteMasked
                           1794 ;src/main.c:194: }
   504E                    1795 00108$:
                           1796 ;src/main.c:196: if(atk > 40 || atk <= 20){
   504E 3E 28         [ 7] 1797 	ld	a,#0x28
   5050 DD 96 04      [19] 1798 	sub	a, 4 (ix)
   5053 38 06         [12] 1799 	jr	C,00114$
   5055 DD 7E FF      [19] 1800 	ld	a,-1 (ix)
   5058 B7            [ 4] 1801 	or	a, a
   5059 20 4F         [12] 1802 	jr	NZ,00115$
   505B                    1803 00114$:
                           1804 ;src/main.c:197: memptr = cpct_getScreenPtr(VMEM,7,192);
   505B 21 07 C0      [10] 1805 	ld	hl,#0xC007
   505E E5            [11] 1806 	push	hl
   505F 2E 00         [ 7] 1807 	ld	l, #0x00
   5061 E5            [11] 1808 	push	hl
   5062 CD 5C 74      [17] 1809 	call	_cpct_getScreenPtr
                           1810 ;src/main.c:198: switch(col){
   5065 DD 7E FE      [19] 1811 	ld	a,-2 (ix)
   5068 B7            [ 4] 1812 	or	a, a
   5069 20 3F         [12] 1813 	jr	NZ,00115$
                           1814 ;src/main.c:187: cpct_drawSolidBox(memptr, col, 2, 8);
   506B 4D            [ 4] 1815 	ld	c, l
   506C 44            [ 4] 1816 	ld	b, h
                           1817 ;src/main.c:198: switch(col){
   506D DD 5E 05      [19] 1818 	ld	e,5 (ix)
   5070 16 00         [ 7] 1819 	ld	d,#0x00
   5072 21 78 50      [10] 1820 	ld	hl,#00157$
   5075 19            [11] 1821 	add	hl,de
   5076 19            [11] 1822 	add	hl,de
                           1823 ;src/main.c:199: case 0:
   5077 E9            [ 4] 1824 	jp	(hl)
   5078                    1825 00157$:
   5078 18 04         [12] 1826 	jr	00110$
   507A 18 14         [12] 1827 	jr	00111$
   507C 18 20         [12] 1828 	jr	00112$
   507E                    1829 00110$:
                           1830 ;src/main.c:200: cpct_drawSolidBox(memptr, col, 2, 8);
   507E 21 02 08      [10] 1831 	ld	hl,#0x0802
   5081 E5            [11] 1832 	push	hl
   5082 DD 7E 05      [19] 1833 	ld	a,5 (ix)
   5085 F5            [11] 1834 	push	af
   5086 33            [ 6] 1835 	inc	sp
   5087 C5            [11] 1836 	push	bc
   5088 CD 8B 73      [17] 1837 	call	_cpct_drawSolidBox
   508B F1            [10] 1838 	pop	af
   508C F1            [10] 1839 	pop	af
   508D 33            [ 6] 1840 	inc	sp
                           1841 ;src/main.c:201: break;
   508E 18 1A         [12] 1842 	jr	00115$
                           1843 ;src/main.c:202: case 1:
   5090                    1844 00111$:
                           1845 ;src/main.c:203: cpct_drawSpriteMasked(fatiga_nor, memptr, 2, 8);
   5090 11 C0 46      [10] 1846 	ld	de,#_fatiga_nor
   5093 21 02 08      [10] 1847 	ld	hl,#0x0802
   5096 E5            [11] 1848 	push	hl
   5097 C5            [11] 1849 	push	bc
   5098 D5            [11] 1850 	push	de
   5099 CD 05 73      [17] 1851 	call	_cpct_drawSpriteMasked
                           1852 ;src/main.c:204: break;
   509C 18 0C         [12] 1853 	jr	00115$
                           1854 ;src/main.c:205: case 2:
   509E                    1855 00112$:
                           1856 ;src/main.c:206: cpct_drawSpriteMasked(fatiga_full, memptr, 2, 8);
   509E 11 E0 46      [10] 1857 	ld	de,#_fatiga_full
   50A1 21 02 08      [10] 1858 	ld	hl,#0x0802
   50A4 E5            [11] 1859 	push	hl
   50A5 C5            [11] 1860 	push	bc
   50A6 D5            [11] 1861 	push	de
   50A7 CD 05 73      [17] 1862 	call	_cpct_drawSpriteMasked
                           1863 ;src/main.c:207: }
   50AA                    1864 00115$:
                           1865 ;src/main.c:209: if(atk <= 20){
   50AA DD 7E FF      [19] 1866 	ld	a,-1 (ix)
   50AD B7            [ 4] 1867 	or	a, a
   50AE 20 39         [12] 1868 	jr	NZ,00122$
                           1869 ;src/main.c:210: memptr = cpct_getScreenPtr(VMEM,10,192);
   50B0 21 0A C0      [10] 1870 	ld	hl,#0xC00A
   50B3 E5            [11] 1871 	push	hl
   50B4 2E 00         [ 7] 1872 	ld	l, #0x00
   50B6 E5            [11] 1873 	push	hl
   50B7 CD 5C 74      [17] 1874 	call	_cpct_getScreenPtr
                           1875 ;src/main.c:187: cpct_drawSolidBox(memptr, col, 2, 8);
   50BA 4D            [ 4] 1876 	ld	c, l
   50BB 44            [ 4] 1877 	ld	b, h
                           1878 ;src/main.c:211: switch(col){
   50BC DD 7E 05      [19] 1879 	ld	a,5 (ix)
   50BF B7            [ 4] 1880 	or	a, a
   50C0 28 09         [12] 1881 	jr	Z,00117$
   50C2 DD 7E 05      [19] 1882 	ld	a,5 (ix)
   50C5 D6 02         [ 7] 1883 	sub	a, #0x02
   50C7 28 14         [12] 1884 	jr	Z,00118$
   50C9 18 1E         [12] 1885 	jr	00122$
                           1886 ;src/main.c:212: case 0:
   50CB                    1887 00117$:
                           1888 ;src/main.c:213: cpct_drawSolidBox(memptr, col, 2, 8);
   50CB 21 02 08      [10] 1889 	ld	hl,#0x0802
   50CE E5            [11] 1890 	push	hl
   50CF DD 7E 05      [19] 1891 	ld	a,5 (ix)
   50D2 F5            [11] 1892 	push	af
   50D3 33            [ 6] 1893 	inc	sp
   50D4 C5            [11] 1894 	push	bc
   50D5 CD 8B 73      [17] 1895 	call	_cpct_drawSolidBox
   50D8 F1            [10] 1896 	pop	af
   50D9 F1            [10] 1897 	pop	af
   50DA 33            [ 6] 1898 	inc	sp
                           1899 ;src/main.c:214: break;
   50DB 18 0C         [12] 1900 	jr	00122$
                           1901 ;src/main.c:215: case 2:
   50DD                    1902 00118$:
                           1903 ;src/main.c:216: cpct_drawSpriteMasked(fatiga_full, memptr, 2, 8);
   50DD 11 E0 46      [10] 1904 	ld	de,#_fatiga_full
   50E0 21 02 08      [10] 1905 	ld	hl,#0x0802
   50E3 E5            [11] 1906 	push	hl
   50E4 C5            [11] 1907 	push	bc
   50E5 D5            [11] 1908 	push	de
   50E6 CD 05 73      [17] 1909 	call	_cpct_drawSpriteMasked
                           1910 ;src/main.c:217: }
   50E9                    1911 00122$:
   50E9 DD F9         [10] 1912 	ld	sp, ix
   50EB DD E1         [14] 1913 	pop	ix
   50ED C9            [10] 1914 	ret
                           1915 ;src/main.c:222: void drawPickUps(u8 corazon, u8 bullet){
                           1916 ;	---------------------------------
                           1917 ; Function drawPickUps
                           1918 ; ---------------------------------
   50EE                    1919 _drawPickUps::
   50EE DD E5         [15] 1920 	push	ix
   50F0 DD 21 00 00   [14] 1921 	ld	ix,#0
   50F4 DD 39         [15] 1922 	add	ix,sp
                           1923 ;src/main.c:225: memptr = cpct_getScreenPtr(VMEM, 1*tilewidth, 10*tileheight);
   50F6 21 04 A0      [10] 1924 	ld	hl,#0xA004
   50F9 E5            [11] 1925 	push	hl
   50FA 21 00 C0      [10] 1926 	ld	hl,#0xC000
   50FD E5            [11] 1927 	push	hl
   50FE CD 5C 74      [17] 1928 	call	_cpct_getScreenPtr
                           1929 ;src/main.c:227: cpct_drawSpriteMasked(corazon_lleno,memptr,4,8);
   5101 4D            [ 4] 1930 	ld	c, l
   5102 44            [ 4] 1931 	ld	b, h
                           1932 ;src/main.c:226: if(corazon == 0)
   5103 DD 7E 04      [19] 1933 	ld	a,4 (ix)
   5106 B7            [ 4] 1934 	or	a, a
   5107 20 0E         [12] 1935 	jr	NZ,00102$
                           1936 ;src/main.c:227: cpct_drawSpriteMasked(corazon_lleno,memptr,4,8);
   5109 11 40 46      [10] 1937 	ld	de,#_corazon_lleno
   510C 21 04 08      [10] 1938 	ld	hl,#0x0804
   510F E5            [11] 1939 	push	hl
   5110 C5            [11] 1940 	push	bc
   5111 D5            [11] 1941 	push	de
   5112 CD 05 73      [17] 1942 	call	_cpct_drawSpriteMasked
   5115 18 0E         [12] 1943 	jr	00103$
   5117                    1944 00102$:
                           1945 ;src/main.c:229: cpct_drawSolidBox(memptr, 0, 4, 8);
   5117 21 04 08      [10] 1946 	ld	hl,#0x0804
   511A E5            [11] 1947 	push	hl
   511B AF            [ 4] 1948 	xor	a, a
   511C F5            [11] 1949 	push	af
   511D 33            [ 6] 1950 	inc	sp
   511E C5            [11] 1951 	push	bc
   511F CD 8B 73      [17] 1952 	call	_cpct_drawSolidBox
   5122 F1            [10] 1953 	pop	af
   5123 F1            [10] 1954 	pop	af
   5124 33            [ 6] 1955 	inc	sp
   5125                    1956 00103$:
                           1957 ;src/main.c:231: memptr = cpct_getScreenPtr(VMEM, 2*tilewidth, 1*tileheight);
   5125 21 08 10      [10] 1958 	ld	hl,#0x1008
   5128 E5            [11] 1959 	push	hl
   5129 21 00 C0      [10] 1960 	ld	hl,#0xC000
   512C E5            [11] 1961 	push	hl
   512D CD 5C 74      [17] 1962 	call	_cpct_getScreenPtr
                           1963 ;src/main.c:227: cpct_drawSpriteMasked(corazon_lleno,memptr,4,8);
   5130 EB            [ 4] 1964 	ex	de,hl
                           1965 ;src/main.c:232: if(bullet == 0)
   5131 DD 7E 05      [19] 1966 	ld	a,5 (ix)
   5134 B7            [ 4] 1967 	or	a, a
   5135 20 0E         [12] 1968 	jr	NZ,00105$
                           1969 ;src/main.c:233: cpct_drawSpriteMasked(flecha_arriba,memptr,2,8);
   5137 01 8F 70      [10] 1970 	ld	bc,#_flecha_arriba
   513A 21 02 08      [10] 1971 	ld	hl,#0x0802
   513D E5            [11] 1972 	push	hl
   513E D5            [11] 1973 	push	de
   513F C5            [11] 1974 	push	bc
   5140 CD 05 73      [17] 1975 	call	_cpct_drawSpriteMasked
   5143 18 0E         [12] 1976 	jr	00107$
   5145                    1977 00105$:
                           1978 ;src/main.c:235: cpct_drawSolidBox(memptr, 0, 2, 8);
   5145 21 02 08      [10] 1979 	ld	hl,#0x0802
   5148 E5            [11] 1980 	push	hl
   5149 AF            [ 4] 1981 	xor	a, a
   514A F5            [11] 1982 	push	af
   514B 33            [ 6] 1983 	inc	sp
   514C D5            [11] 1984 	push	de
   514D CD 8B 73      [17] 1985 	call	_cpct_drawSolidBox
   5150 F1            [10] 1986 	pop	af
   5151 F1            [10] 1987 	pop	af
   5152 33            [ 6] 1988 	inc	sp
   5153                    1989 00107$:
   5153 DD E1         [14] 1990 	pop	ix
   5155 C9            [10] 1991 	ret
                           1992 ;src/main.c:240: void drawVida(u8 life){
                           1993 ;	---------------------------------
                           1994 ; Function drawVida
                           1995 ; ---------------------------------
   5156                    1996 _drawVida::
   5156 DD E5         [15] 1997 	push	ix
   5158 DD 21 00 00   [14] 1998 	ld	ix,#0
   515C DD 39         [15] 1999 	add	ix,sp
   515E 3B            [ 6] 2000 	dec	sp
                           2001 ;src/main.c:245: for(i=1;i<=3;i++){
   515F DD 36 FF 01   [19] 2002 	ld	-1 (ix),#0x01
   5163 01 41 00      [10] 2003 	ld	bc,#0x0041
   5166                    2004 00105$:
                           2005 ;src/main.c:246: memptr = cpct_getScreenPtr(VMEM,p,192);
   5166 51            [ 4] 2006 	ld	d,c
   5167 C5            [11] 2007 	push	bc
   5168 3E C0         [ 7] 2008 	ld	a,#0xC0
   516A F5            [11] 2009 	push	af
   516B 33            [ 6] 2010 	inc	sp
   516C D5            [11] 2011 	push	de
   516D 33            [ 6] 2012 	inc	sp
   516E 21 00 C0      [10] 2013 	ld	hl,#0xC000
   5171 E5            [11] 2014 	push	hl
   5172 CD 5C 74      [17] 2015 	call	_cpct_getScreenPtr
   5175 C1            [10] 2016 	pop	bc
                           2017 ;src/main.c:247: p+=5;
   5176 03            [ 6] 2018 	inc	bc
   5177 03            [ 6] 2019 	inc	bc
   5178 03            [ 6] 2020 	inc	bc
   5179 03            [ 6] 2021 	inc	bc
   517A 03            [ 6] 2022 	inc	bc
                           2023 ;src/main.c:248: if(i<=life)  cpct_drawSpriteMasked(corazon_lleno, memptr, 4, 8);
   517B EB            [ 4] 2024 	ex	de,hl
   517C DD 7E 04      [19] 2025 	ld	a,4 (ix)
   517F DD 96 FF      [19] 2026 	sub	a, -1 (ix)
   5182 38 10         [12] 2027 	jr	C,00102$
   5184 C5            [11] 2028 	push	bc
   5185 21 04 08      [10] 2029 	ld	hl,#0x0804
   5188 E5            [11] 2030 	push	hl
   5189 D5            [11] 2031 	push	de
   518A 21 40 46      [10] 2032 	ld	hl,#_corazon_lleno
   518D E5            [11] 2033 	push	hl
   518E CD 05 73      [17] 2034 	call	_cpct_drawSpriteMasked
   5191 C1            [10] 2035 	pop	bc
   5192 18 1E         [12] 2036 	jr	00106$
   5194                    2037 00102$:
                           2038 ;src/main.c:250: cpct_drawSolidBox(memptr,0,4,8);
   5194 C5            [11] 2039 	push	bc
   5195 D5            [11] 2040 	push	de
   5196 21 04 08      [10] 2041 	ld	hl,#0x0804
   5199 E5            [11] 2042 	push	hl
   519A AF            [ 4] 2043 	xor	a, a
   519B F5            [11] 2044 	push	af
   519C 33            [ 6] 2045 	inc	sp
   519D D5            [11] 2046 	push	de
   519E CD 8B 73      [17] 2047 	call	_cpct_drawSolidBox
   51A1 F1            [10] 2048 	pop	af
   51A2 F1            [10] 2049 	pop	af
   51A3 33            [ 6] 2050 	inc	sp
   51A4 D1            [10] 2051 	pop	de
   51A5 21 04 08      [10] 2052 	ld	hl,#0x0804
   51A8 E5            [11] 2053 	push	hl
   51A9 D5            [11] 2054 	push	de
   51AA 21 80 46      [10] 2055 	ld	hl,#_corazon_roto
   51AD E5            [11] 2056 	push	hl
   51AE CD 05 73      [17] 2057 	call	_cpct_drawSpriteMasked
   51B1 C1            [10] 2058 	pop	bc
   51B2                    2059 00106$:
                           2060 ;src/main.c:245: for(i=1;i<=3;i++){
   51B2 DD 34 FF      [23] 2061 	inc	-1 (ix)
   51B5 3E 03         [ 7] 2062 	ld	a,#0x03
   51B7 DD 96 FF      [19] 2063 	sub	a, -1 (ix)
   51BA 30 AA         [12] 2064 	jr	NC,00105$
   51BC 33            [ 6] 2065 	inc	sp
   51BD DD E1         [14] 2066 	pop	ix
   51BF C9            [10] 2067 	ret
                           2068 ;src/main.c:272: void drawBullets(u8 bullet){
                           2069 ;	---------------------------------
                           2070 ; Function drawBullets
                           2071 ; ---------------------------------
   51C0                    2072 _drawBullets::
   51C0 DD E5         [15] 2073 	push	ix
   51C2 DD 21 00 00   [14] 2074 	ld	ix,#0
   51C6 DD 39         [15] 2075 	add	ix,sp
   51C8 3B            [ 6] 2076 	dec	sp
                           2077 ;src/main.c:276: for(i=1;i<=3;i++){
   51C9 DD 36 FF 01   [19] 2078 	ld	-1 (ix),#0x01
   51CD 01 32 00      [10] 2079 	ld	bc,#0x0032
   51D0                    2080 00105$:
                           2081 ;src/main.c:277: memptr = cpct_getScreenPtr(VMEM,p,192);
   51D0 51            [ 4] 2082 	ld	d,c
   51D1 C5            [11] 2083 	push	bc
   51D2 3E C0         [ 7] 2084 	ld	a,#0xC0
   51D4 F5            [11] 2085 	push	af
   51D5 33            [ 6] 2086 	inc	sp
   51D6 D5            [11] 2087 	push	de
   51D7 33            [ 6] 2088 	inc	sp
   51D8 21 00 C0      [10] 2089 	ld	hl,#0xC000
   51DB E5            [11] 2090 	push	hl
   51DC CD 5C 74      [17] 2091 	call	_cpct_getScreenPtr
   51DF C1            [10] 2092 	pop	bc
                           2093 ;src/main.c:278: p+=5;
   51E0 03            [ 6] 2094 	inc	bc
   51E1 03            [ 6] 2095 	inc	bc
   51E2 03            [ 6] 2096 	inc	bc
   51E3 03            [ 6] 2097 	inc	bc
   51E4 03            [ 6] 2098 	inc	bc
                           2099 ;src/main.c:279: if(i<=bullet) cpct_drawSpriteMasked(flecha_arriba, memptr, 2, 8);
   51E5 EB            [ 4] 2100 	ex	de,hl
   51E6 DD 7E 04      [19] 2101 	ld	a,4 (ix)
   51E9 DD 96 FF      [19] 2102 	sub	a, -1 (ix)
   51EC 38 10         [12] 2103 	jr	C,00102$
   51EE C5            [11] 2104 	push	bc
   51EF 21 02 08      [10] 2105 	ld	hl,#0x0802
   51F2 E5            [11] 2106 	push	hl
   51F3 D5            [11] 2107 	push	de
   51F4 21 8F 70      [10] 2108 	ld	hl,#_flecha_arriba
   51F7 E5            [11] 2109 	push	hl
   51F8 CD 05 73      [17] 2110 	call	_cpct_drawSpriteMasked
   51FB C1            [10] 2111 	pop	bc
   51FC 18 10         [12] 2112 	jr	00106$
   51FE                    2113 00102$:
                           2114 ;src/main.c:280: else  cpct_drawSolidBox(memptr,0,2,8);
   51FE C5            [11] 2115 	push	bc
   51FF 21 02 08      [10] 2116 	ld	hl,#0x0802
   5202 E5            [11] 2117 	push	hl
   5203 AF            [ 4] 2118 	xor	a, a
   5204 F5            [11] 2119 	push	af
   5205 33            [ 6] 2120 	inc	sp
   5206 D5            [11] 2121 	push	de
   5207 CD 8B 73      [17] 2122 	call	_cpct_drawSolidBox
   520A F1            [10] 2123 	pop	af
   520B F1            [10] 2124 	pop	af
   520C 33            [ 6] 2125 	inc	sp
   520D C1            [10] 2126 	pop	bc
   520E                    2127 00106$:
                           2128 ;src/main.c:276: for(i=1;i<=3;i++){
   520E DD 34 FF      [23] 2129 	inc	-1 (ix)
   5211 3E 03         [ 7] 2130 	ld	a,#0x03
   5213 DD 96 FF      [19] 2131 	sub	a, -1 (ix)
   5216 30 B8         [12] 2132 	jr	NC,00105$
   5218 33            [ 6] 2133 	inc	sp
   5219 DD E1         [14] 2134 	pop	ix
   521B C9            [10] 2135 	ret
                           2136 ;src/main.c:303: void checkBoundsCollisionsEnemy(u8 *x,u8 *y, u8 lx, u8 ly,u8 sizeX,u8 sizeY){
                           2137 ;	---------------------------------
                           2138 ; Function checkBoundsCollisionsEnemy
                           2139 ; ---------------------------------
   521C                    2140 _checkBoundsCollisionsEnemy::
   521C DD E5         [15] 2141 	push	ix
   521E DD 21 00 00   [14] 2142 	ld	ix,#0
   5222 DD 39         [15] 2143 	add	ix,sp
   5224 21 EC FF      [10] 2144 	ld	hl,#-20
   5227 39            [11] 2145 	add	hl,sp
   5228 F9            [ 6] 2146 	ld	sp,hl
                           2147 ;src/main.c:305: u8 *posX = x;
   5229 DD 7E 04      [19] 2148 	ld	a,4 (ix)
   522C DD 77 EE      [19] 2149 	ld	-18 (ix),a
   522F DD 7E 05      [19] 2150 	ld	a,5 (ix)
   5232 DD 77 EF      [19] 2151 	ld	-17 (ix),a
                           2152 ;src/main.c:306: u8 *posY = y;
   5235 DD 7E 06      [19] 2153 	ld	a,6 (ix)
   5238 DD 77 EC      [19] 2154 	ld	-20 (ix),a
   523B DD 7E 07      [19] 2155 	ld	a,7 (ix)
   523E DD 77 ED      [19] 2156 	ld	-19 (ix),a
                           2157 ;src/main.c:307: if(    scene[(posY[0])/tileheight][(posX[0])/tilewidth] == 1
   5241 E1            [10] 2158 	pop	hl
   5242 E5            [11] 2159 	push	hl
   5243 7E            [ 7] 2160 	ld	a,(hl)
   5244 DD 77 FB      [19] 2161 	ld	-5 (ix), a
   5247 07            [ 4] 2162 	rlca
   5248 07            [ 4] 2163 	rlca
   5249 07            [ 4] 2164 	rlca
   524A 07            [ 4] 2165 	rlca
   524B E6 0F         [ 7] 2166 	and	a,#0x0F
   524D 4F            [ 4] 2167 	ld	c,a
   524E 06 00         [ 7] 2168 	ld	b,#0x00
   5250 69            [ 4] 2169 	ld	l, c
   5251 60            [ 4] 2170 	ld	h, b
   5252 29            [11] 2171 	add	hl, hl
   5253 29            [11] 2172 	add	hl, hl
   5254 09            [11] 2173 	add	hl, bc
   5255 29            [11] 2174 	add	hl, hl
   5256 29            [11] 2175 	add	hl, hl
   5257 3E 52         [ 7] 2176 	ld	a,#<(_scene)
   5259 85            [ 4] 2177 	add	a, l
   525A DD 77 F9      [19] 2178 	ld	-7 (ix),a
   525D 3E 75         [ 7] 2179 	ld	a,#>(_scene)
   525F 8C            [ 4] 2180 	adc	a, h
   5260 DD 77 FA      [19] 2181 	ld	-6 (ix),a
   5263 DD 6E EE      [19] 2182 	ld	l,-18 (ix)
   5266 DD 66 EF      [19] 2183 	ld	h,-17 (ix)
   5269 7E            [ 7] 2184 	ld	a,(hl)
   526A DD 77 FE      [19] 2185 	ld	-2 (ix), a
   526D 0F            [ 4] 2186 	rrca
   526E 0F            [ 4] 2187 	rrca
   526F E6 3F         [ 7] 2188 	and	a,#0x3F
   5271 DD 77 FF      [19] 2189 	ld	-1 (ix), a
   5274 DD 86 F9      [19] 2190 	add	a, -7 (ix)
   5277 6F            [ 4] 2191 	ld	l,a
   5278 3E 00         [ 7] 2192 	ld	a,#0x00
   527A DD 8E FA      [19] 2193 	adc	a, -6 (ix)
   527D 67            [ 4] 2194 	ld	h,a
   527E 7E            [ 7] 2195 	ld	a,(hl)
   527F DD 77 F8      [19] 2196 	ld	-8 (ix), a
   5282 3D            [ 4] 2197 	dec	a
   5283 CA 91 53      [10] 2198 	jp	Z,00106$
                           2199 ;src/main.c:308: || scene[(posY[0])/tileheight][(posX[0]+sizeX-1)/tilewidth] == 1
   5286 DD 6E FE      [19] 2200 	ld	l,-2 (ix)
   5289 26 00         [ 7] 2201 	ld	h,#0x00
   528B DD 5E 0A      [19] 2202 	ld	e,10 (ix)
   528E 16 00         [ 7] 2203 	ld	d,#0x00
   5290 19            [11] 2204 	add	hl,de
   5291 7D            [ 4] 2205 	ld	a,l
   5292 C6 FF         [ 7] 2206 	add	a,#0xFF
   5294 DD 77 F0      [19] 2207 	ld	-16 (ix),a
   5297 7C            [ 4] 2208 	ld	a,h
   5298 CE FF         [ 7] 2209 	adc	a,#0xFF
   529A DD 77 F1      [19] 2210 	ld	-15 (ix),a
   529D DD 7E F0      [19] 2211 	ld	a,-16 (ix)
   52A0 DD 77 F6      [19] 2212 	ld	-10 (ix),a
   52A3 DD 7E F1      [19] 2213 	ld	a,-15 (ix)
   52A6 DD 77 F7      [19] 2214 	ld	-9 (ix),a
   52A9 DD 7E F1      [19] 2215 	ld	a,-15 (ix)
   52AC 07            [ 4] 2216 	rlca
   52AD E6 01         [ 7] 2217 	and	a,#0x01
   52AF DD 77 FE      [19] 2218 	ld	-2 (ix),a
   52B2 23            [ 6] 2219 	inc	hl
   52B3 23            [ 6] 2220 	inc	hl
   52B4 DD 75 F2      [19] 2221 	ld	-14 (ix),l
   52B7 DD 74 F3      [19] 2222 	ld	-13 (ix),h
   52BA DD 7E FE      [19] 2223 	ld	a,-2 (ix)
   52BD B7            [ 4] 2224 	or	a, a
   52BE 28 0C         [12] 2225 	jr	Z,00114$
   52C0 DD 7E F2      [19] 2226 	ld	a,-14 (ix)
   52C3 DD 77 F6      [19] 2227 	ld	-10 (ix),a
   52C6 DD 7E F3      [19] 2228 	ld	a,-13 (ix)
   52C9 DD 77 F7      [19] 2229 	ld	-9 (ix),a
   52CC                    2230 00114$:
   52CC DD 6E F6      [19] 2231 	ld	l,-10 (ix)
   52CF DD 66 F7      [19] 2232 	ld	h,-9 (ix)
   52D2 CB 2C         [ 8] 2233 	sra	h
   52D4 CB 1D         [ 8] 2234 	rr	l
   52D6 CB 2C         [ 8] 2235 	sra	h
   52D8 CB 1D         [ 8] 2236 	rr	l
   52DA DD 5E F9      [19] 2237 	ld	e,-7 (ix)
   52DD DD 56 FA      [19] 2238 	ld	d,-6 (ix)
   52E0 19            [11] 2239 	add	hl,de
   52E1 7E            [ 7] 2240 	ld	a,(hl)
   52E2 3D            [ 4] 2241 	dec	a
   52E3 CA 91 53      [10] 2242 	jp	Z,00106$
                           2243 ;src/main.c:309: || scene[(posY[0]+sizeY-2)/tileheight][(posX[0])/tilewidth] == 1
   52E6 DD 6E FB      [19] 2244 	ld	l,-5 (ix)
   52E9 26 00         [ 7] 2245 	ld	h,#0x00
   52EB DD 5E 0B      [19] 2246 	ld	e,11 (ix)
   52EE 16 00         [ 7] 2247 	ld	d,#0x00
   52F0 19            [11] 2248 	add	hl,de
   52F1 4D            [ 4] 2249 	ld	c,l
   52F2 44            [ 4] 2250 	ld	b,h
   52F3 0B            [ 6] 2251 	dec	bc
   52F4 0B            [ 6] 2252 	dec	bc
   52F5 59            [ 4] 2253 	ld	e, c
   52F6 78            [ 4] 2254 	ld	a,b
   52F7 57            [ 4] 2255 	ld	d,a
   52F8 07            [ 4] 2256 	rlca
   52F9 E6 01         [ 7] 2257 	and	a,#0x01
   52FB DD 77 F6      [19] 2258 	ld	-10 (ix),a
   52FE 7D            [ 4] 2259 	ld	a,l
   52FF C6 0D         [ 7] 2260 	add	a, #0x0D
   5301 DD 77 FC      [19] 2261 	ld	-4 (ix),a
   5304 7C            [ 4] 2262 	ld	a,h
   5305 CE 00         [ 7] 2263 	adc	a, #0x00
   5307 DD 77 FD      [19] 2264 	ld	-3 (ix),a
   530A DD 7E F6      [19] 2265 	ld	a,-10 (ix)
   530D B7            [ 4] 2266 	or	a, a
   530E 28 06         [12] 2267 	jr	Z,00115$
   5310 DD 5E FC      [19] 2268 	ld	e,-4 (ix)
   5313 DD 56 FD      [19] 2269 	ld	d,-3 (ix)
   5316                    2270 00115$:
   5316 CB 2A         [ 8] 2271 	sra	d
   5318 CB 1B         [ 8] 2272 	rr	e
   531A CB 2A         [ 8] 2273 	sra	d
   531C CB 1B         [ 8] 2274 	rr	e
   531E CB 2A         [ 8] 2275 	sra	d
   5320 CB 1B         [ 8] 2276 	rr	e
   5322 CB 2A         [ 8] 2277 	sra	d
   5324 CB 1B         [ 8] 2278 	rr	e
   5326 6B            [ 4] 2279 	ld	l, e
   5327 62            [ 4] 2280 	ld	h, d
   5328 29            [11] 2281 	add	hl, hl
   5329 29            [11] 2282 	add	hl, hl
   532A 19            [11] 2283 	add	hl, de
   532B 29            [11] 2284 	add	hl, hl
   532C 29            [11] 2285 	add	hl, hl
   532D 11 52 75      [10] 2286 	ld	de,#_scene
   5330 19            [11] 2287 	add	hl,de
   5331 DD 5E FF      [19] 2288 	ld	e,-1 (ix)
   5334 16 00         [ 7] 2289 	ld	d,#0x00
   5336 19            [11] 2290 	add	hl,de
   5337 7E            [ 7] 2291 	ld	a,(hl)
   5338 3D            [ 4] 2292 	dec	a
   5339 28 56         [12] 2293 	jr	Z,00106$
                           2294 ;src/main.c:310: || scene[(posY[0]+sizeY-2)/tileheight][(posX[0]+sizeX-1)/tilewidth] == 1
   533B 69            [ 4] 2295 	ld	l, c
   533C 60            [ 4] 2296 	ld	h, b
   533D DD 7E F6      [19] 2297 	ld	a,-10 (ix)
   5340 B7            [ 4] 2298 	or	a, a
   5341 28 06         [12] 2299 	jr	Z,00116$
   5343 DD 6E FC      [19] 2300 	ld	l,-4 (ix)
   5346 DD 66 FD      [19] 2301 	ld	h,-3 (ix)
   5349                    2302 00116$:
   5349 CB 2C         [ 8] 2303 	sra	h
   534B CB 1D         [ 8] 2304 	rr	l
   534D CB 2C         [ 8] 2305 	sra	h
   534F CB 1D         [ 8] 2306 	rr	l
   5351 CB 2C         [ 8] 2307 	sra	h
   5353 CB 1D         [ 8] 2308 	rr	l
   5355 CB 2C         [ 8] 2309 	sra	h
   5357 CB 1D         [ 8] 2310 	rr	l
   5359 5D            [ 4] 2311 	ld	e, l
   535A 54            [ 4] 2312 	ld	d, h
   535B 29            [11] 2313 	add	hl, hl
   535C 29            [11] 2314 	add	hl, hl
   535D 19            [11] 2315 	add	hl, de
   535E 29            [11] 2316 	add	hl, hl
   535F 29            [11] 2317 	add	hl, hl
   5360 3E 52         [ 7] 2318 	ld	a,#<(_scene)
   5362 85            [ 4] 2319 	add	a, l
   5363 DD 77 F4      [19] 2320 	ld	-12 (ix),a
   5366 3E 75         [ 7] 2321 	ld	a,#>(_scene)
   5368 8C            [ 4] 2322 	adc	a, h
   5369 DD 77 F5      [19] 2323 	ld	-11 (ix),a
   536C DD 6E F0      [19] 2324 	ld	l,-16 (ix)
   536F DD 66 F1      [19] 2325 	ld	h,-15 (ix)
   5372 DD 7E FE      [19] 2326 	ld	a,-2 (ix)
   5375 B7            [ 4] 2327 	or	a, a
   5376 28 06         [12] 2328 	jr	Z,00117$
   5378 DD 6E F2      [19] 2329 	ld	l,-14 (ix)
   537B DD 66 F3      [19] 2330 	ld	h,-13 (ix)
   537E                    2331 00117$:
   537E CB 2C         [ 8] 2332 	sra	h
   5380 CB 1D         [ 8] 2333 	rr	l
   5382 CB 2C         [ 8] 2334 	sra	h
   5384 CB 1D         [ 8] 2335 	rr	l
   5386 DD 5E F4      [19] 2336 	ld	e,-12 (ix)
   5389 DD 56 F5      [19] 2337 	ld	d,-11 (ix)
   538C 19            [11] 2338 	add	hl,de
   538D 7E            [ 7] 2339 	ld	a,(hl)
   538E 3D            [ 4] 2340 	dec	a
   538F 20 13         [12] 2341 	jr	NZ,00107$
   5391                    2342 00106$:
                           2343 ;src/main.c:312: *posX=lx;
   5391 DD 6E EE      [19] 2344 	ld	l,-18 (ix)
   5394 DD 66 EF      [19] 2345 	ld	h,-17 (ix)
   5397 DD 7E 08      [19] 2346 	ld	a,8 (ix)
   539A 77            [ 7] 2347 	ld	(hl),a
                           2348 ;src/main.c:313: *posY=ly;
   539B E1            [10] 2349 	pop	hl
   539C E5            [11] 2350 	push	hl
   539D DD 7E 09      [19] 2351 	ld	a,9 (ix)
   53A0 77            [ 7] 2352 	ld	(hl),a
   53A1 C3 6C 54      [10] 2353 	jp	00112$
   53A4                    2354 00107$:
                           2355 ;src/main.c:315: else if(    scene[(posY[0])/tileheight][(posX[0])/tilewidth] != 3
   53A4 DD 7E F8      [19] 2356 	ld	a,-8 (ix)
   53A7 D6 03         [ 7] 2357 	sub	a, #0x03
   53A9 C2 5C 54      [10] 2358 	jp	NZ,00101$
                           2359 ;src/main.c:316: || scene[(posY[0])/tileheight][(posX[0]+sizeX-1)/tilewidth] != 3
   53AC DD 6E F0      [19] 2360 	ld	l,-16 (ix)
   53AF DD 66 F1      [19] 2361 	ld	h,-15 (ix)
   53B2 DD 7E FE      [19] 2362 	ld	a,-2 (ix)
   53B5 B7            [ 4] 2363 	or	a, a
   53B6 28 06         [12] 2364 	jr	Z,00118$
   53B8 DD 6E F2      [19] 2365 	ld	l,-14 (ix)
   53BB DD 66 F3      [19] 2366 	ld	h,-13 (ix)
   53BE                    2367 00118$:
   53BE CB 2C         [ 8] 2368 	sra	h
   53C0 CB 1D         [ 8] 2369 	rr	l
   53C2 CB 2C         [ 8] 2370 	sra	h
   53C4 CB 1D         [ 8] 2371 	rr	l
   53C6 DD 5E F9      [19] 2372 	ld	e,-7 (ix)
   53C9 DD 56 FA      [19] 2373 	ld	d,-6 (ix)
   53CC 19            [11] 2374 	add	hl,de
   53CD 7E            [ 7] 2375 	ld	a,(hl)
   53CE D6 03         [ 7] 2376 	sub	a, #0x03
   53D0 C2 5C 54      [10] 2377 	jp	NZ,00101$
                           2378 ;src/main.c:317: || scene[(posY[0]+sizeY-2)/tileheight][(posX[0])/tilewidth] != 3
   53D3 69            [ 4] 2379 	ld	l, c
   53D4 60            [ 4] 2380 	ld	h, b
   53D5 DD 7E F6      [19] 2381 	ld	a,-10 (ix)
   53D8 B7            [ 4] 2382 	or	a, a
   53D9 28 06         [12] 2383 	jr	Z,00119$
   53DB DD 6E FC      [19] 2384 	ld	l,-4 (ix)
   53DE DD 66 FD      [19] 2385 	ld	h,-3 (ix)
   53E1                    2386 00119$:
   53E1 CB 2C         [ 8] 2387 	sra	h
   53E3 CB 1D         [ 8] 2388 	rr	l
   53E5 CB 2C         [ 8] 2389 	sra	h
   53E7 CB 1D         [ 8] 2390 	rr	l
   53E9 CB 2C         [ 8] 2391 	sra	h
   53EB CB 1D         [ 8] 2392 	rr	l
   53ED CB 2C         [ 8] 2393 	sra	h
   53EF CB 1D         [ 8] 2394 	rr	l
   53F1 5D            [ 4] 2395 	ld	e, l
   53F2 54            [ 4] 2396 	ld	d, h
   53F3 29            [11] 2397 	add	hl, hl
   53F4 29            [11] 2398 	add	hl, hl
   53F5 19            [11] 2399 	add	hl, de
   53F6 29            [11] 2400 	add	hl, hl
   53F7 29            [11] 2401 	add	hl, hl
   53F8 11 52 75      [10] 2402 	ld	de,#_scene
   53FB 19            [11] 2403 	add	hl,de
   53FC DD 5E FF      [19] 2404 	ld	e,-1 (ix)
   53FF 16 00         [ 7] 2405 	ld	d,#0x00
   5401 19            [11] 2406 	add	hl,de
   5402 7E            [ 7] 2407 	ld	a,(hl)
   5403 D6 03         [ 7] 2408 	sub	a, #0x03
   5405 20 55         [12] 2409 	jr	NZ,00101$
                           2410 ;src/main.c:318: || scene[(posY[0]+sizeY-2)/tileheight][(posX[0]+sizeX-1)/tilewidth] != 3
   5407 DD 7E F6      [19] 2411 	ld	a,-10 (ix)
   540A B7            [ 4] 2412 	or	a, a
   540B 28 06         [12] 2413 	jr	Z,00120$
   540D DD 4E FC      [19] 2414 	ld	c,-4 (ix)
   5410 DD 46 FD      [19] 2415 	ld	b,-3 (ix)
   5413                    2416 00120$:
   5413 CB 28         [ 8] 2417 	sra	b
   5415 CB 19         [ 8] 2418 	rr	c
   5417 CB 28         [ 8] 2419 	sra	b
   5419 CB 19         [ 8] 2420 	rr	c
   541B CB 28         [ 8] 2421 	sra	b
   541D CB 19         [ 8] 2422 	rr	c
   541F CB 28         [ 8] 2423 	sra	b
   5421 CB 19         [ 8] 2424 	rr	c
   5423 69            [ 4] 2425 	ld	l, c
   5424 60            [ 4] 2426 	ld	h, b
   5425 29            [11] 2427 	add	hl, hl
   5426 29            [11] 2428 	add	hl, hl
   5427 09            [11] 2429 	add	hl, bc
   5428 29            [11] 2430 	add	hl, hl
   5429 29            [11] 2431 	add	hl, hl
   542A 3E 52         [ 7] 2432 	ld	a,#<(_scene)
   542C 85            [ 4] 2433 	add	a, l
   542D DD 77 F4      [19] 2434 	ld	-12 (ix),a
   5430 3E 75         [ 7] 2435 	ld	a,#>(_scene)
   5432 8C            [ 4] 2436 	adc	a, h
   5433 DD 77 F5      [19] 2437 	ld	-11 (ix),a
   5436 DD 6E F0      [19] 2438 	ld	l,-16 (ix)
   5439 DD 66 F1      [19] 2439 	ld	h,-15 (ix)
   543C DD 7E FE      [19] 2440 	ld	a,-2 (ix)
   543F B7            [ 4] 2441 	or	a, a
   5440 28 06         [12] 2442 	jr	Z,00121$
   5442 DD 6E F2      [19] 2443 	ld	l,-14 (ix)
   5445 DD 66 F3      [19] 2444 	ld	h,-13 (ix)
   5448                    2445 00121$:
   5448 CB 2C         [ 8] 2446 	sra	h
   544A CB 1D         [ 8] 2447 	rr	l
   544C CB 2C         [ 8] 2448 	sra	h
   544E CB 1D         [ 8] 2449 	rr	l
   5450 DD 5E F4      [19] 2450 	ld	e,-12 (ix)
   5453 DD 56 F5      [19] 2451 	ld	d,-11 (ix)
   5456 19            [11] 2452 	add	hl,de
   5457 7E            [ 7] 2453 	ld	a,(hl)
   5458 D6 03         [ 7] 2454 	sub	a, #0x03
   545A 28 10         [12] 2455 	jr	Z,00112$
   545C                    2456 00101$:
                           2457 ;src/main.c:320: *posX=lx;
   545C DD 6E EE      [19] 2458 	ld	l,-18 (ix)
   545F DD 66 EF      [19] 2459 	ld	h,-17 (ix)
   5462 DD 7E 08      [19] 2460 	ld	a,8 (ix)
   5465 77            [ 7] 2461 	ld	(hl),a
                           2462 ;src/main.c:321: *posY=ly;
   5466 E1            [10] 2463 	pop	hl
   5467 E5            [11] 2464 	push	hl
   5468 DD 7E 09      [19] 2465 	ld	a,9 (ix)
   546B 77            [ 7] 2466 	ld	(hl),a
   546C                    2467 00112$:
   546C DD F9         [10] 2468 	ld	sp, ix
   546E DD E1         [14] 2469 	pop	ix
   5470 C9            [10] 2470 	ret
                           2471 ;src/main.c:325: void checkArrowCollisions(u8 *arrow){
                           2472 ;	---------------------------------
                           2473 ; Function checkArrowCollisions
                           2474 ; ---------------------------------
   5471                    2475 _checkArrowCollisions::
   5471 DD E5         [15] 2476 	push	ix
   5473 DD 21 00 00   [14] 2477 	ld	ix,#0
   5477 DD 39         [15] 2478 	add	ix,sp
   5479 21 F4 FF      [10] 2479 	ld	hl,#-12
   547C 39            [11] 2480 	add	hl,sp
   547D F9            [ 6] 2481 	ld	sp,hl
                           2482 ;src/main.c:327: u8 posX = object.x;
   547E 3A 45 76      [13] 2483 	ld	a,(#_object+0)
   5481 DD 77 F4      [19] 2484 	ld	-12 (ix),a
                           2485 ;src/main.c:328: u8 posY = object.y;
   5484 3A 46 76      [13] 2486 	ld	a,(#_object + 1)
                           2487 ;src/main.c:329: if(    scene[(posY)/tileheight][(posX)/tilewidth] == 1
   5487 DD 77 F5      [19] 2488 	ld	-11 (ix), a
   548A 07            [ 4] 2489 	rlca
   548B 07            [ 4] 2490 	rlca
   548C 07            [ 4] 2491 	rlca
   548D 07            [ 4] 2492 	rlca
   548E E6 0F         [ 7] 2493 	and	a,#0x0F
   5490 4F            [ 4] 2494 	ld	c,a
   5491 06 00         [ 7] 2495 	ld	b,#0x00
   5493 69            [ 4] 2496 	ld	l, c
   5494 60            [ 4] 2497 	ld	h, b
   5495 29            [11] 2498 	add	hl, hl
   5496 29            [11] 2499 	add	hl, hl
   5497 09            [11] 2500 	add	hl, bc
   5498 29            [11] 2501 	add	hl, hl
   5499 29            [11] 2502 	add	hl, hl
   549A 3E 52         [ 7] 2503 	ld	a,#<(_scene)
   549C 85            [ 4] 2504 	add	a, l
   549D DD 77 F7      [19] 2505 	ld	-9 (ix),a
   54A0 3E 75         [ 7] 2506 	ld	a,#>(_scene)
   54A2 8C            [ 4] 2507 	adc	a, h
   54A3 DD 77 F8      [19] 2508 	ld	-8 (ix),a
   54A6 DD 7E F4      [19] 2509 	ld	a,-12 (ix)
   54A9 0F            [ 4] 2510 	rrca
   54AA 0F            [ 4] 2511 	rrca
   54AB E6 3F         [ 7] 2512 	and	a,#0x3F
   54AD DD 77 FF      [19] 2513 	ld	-1 (ix), a
   54B0 DD 86 F7      [19] 2514 	add	a, -9 (ix)
   54B3 6F            [ 4] 2515 	ld	l,a
   54B4 3E 00         [ 7] 2516 	ld	a,#0x00
   54B6 DD 8E F8      [19] 2517 	adc	a, -8 (ix)
   54B9 67            [ 4] 2518 	ld	h,a
   54BA 7E            [ 7] 2519 	ld	a,(hl)
   54BB 3D            [ 4] 2520 	dec	a
   54BC CA CA 55      [10] 2521 	jp	Z,00101$
                           2522 ;src/main.c:330: || scene[(posY)/tileheight][(posX+object.sizeX-1)/tilewidth] == 1
   54BF DD 5E F4      [19] 2523 	ld	e,-12 (ix)
   54C2 16 00         [ 7] 2524 	ld	d,#0x00
   54C4 3A 4D 76      [13] 2525 	ld	a, (#_object + 8)
   54C7 6F            [ 4] 2526 	ld	l,a
   54C8 26 00         [ 7] 2527 	ld	h,#0x00
   54CA 19            [11] 2528 	add	hl,de
   54CB 7D            [ 4] 2529 	ld	a,l
   54CC C6 FF         [ 7] 2530 	add	a,#0xFF
   54CE DD 77 F9      [19] 2531 	ld	-7 (ix),a
   54D1 7C            [ 4] 2532 	ld	a,h
   54D2 CE FF         [ 7] 2533 	adc	a,#0xFF
   54D4 DD 77 FA      [19] 2534 	ld	-6 (ix),a
   54D7 DD 7E F9      [19] 2535 	ld	a,-7 (ix)
   54DA DD 77 FB      [19] 2536 	ld	-5 (ix),a
   54DD DD 7E FA      [19] 2537 	ld	a,-6 (ix)
   54E0 DD 77 FC      [19] 2538 	ld	-4 (ix),a
   54E3 DD 7E FA      [19] 2539 	ld	a,-6 (ix)
   54E6 07            [ 4] 2540 	rlca
   54E7 E6 01         [ 7] 2541 	and	a,#0x01
   54E9 DD 77 F6      [19] 2542 	ld	-10 (ix),a
   54EC 23            [ 6] 2543 	inc	hl
   54ED 23            [ 6] 2544 	inc	hl
   54EE DD 75 FD      [19] 2545 	ld	-3 (ix),l
   54F1 DD 74 FE      [19] 2546 	ld	-2 (ix),h
   54F4 DD 7E F6      [19] 2547 	ld	a,-10 (ix)
   54F7 B7            [ 4] 2548 	or	a, a
   54F8 28 0C         [12] 2549 	jr	Z,00108$
   54FA DD 7E FD      [19] 2550 	ld	a,-3 (ix)
   54FD DD 77 FB      [19] 2551 	ld	-5 (ix),a
   5500 DD 7E FE      [19] 2552 	ld	a,-2 (ix)
   5503 DD 77 FC      [19] 2553 	ld	-4 (ix),a
   5506                    2554 00108$:
   5506 DD 6E FB      [19] 2555 	ld	l,-5 (ix)
   5509 DD 66 FC      [19] 2556 	ld	h,-4 (ix)
   550C CB 2C         [ 8] 2557 	sra	h
   550E CB 1D         [ 8] 2558 	rr	l
   5510 CB 2C         [ 8] 2559 	sra	h
   5512 CB 1D         [ 8] 2560 	rr	l
   5514 DD 5E F7      [19] 2561 	ld	e,-9 (ix)
   5517 DD 56 F8      [19] 2562 	ld	d,-8 (ix)
   551A 19            [11] 2563 	add	hl,de
   551B 7E            [ 7] 2564 	ld	a,(hl)
   551C 3D            [ 4] 2565 	dec	a
   551D CA CA 55      [10] 2566 	jp	Z,00101$
                           2567 ;src/main.c:331: || scene[(posY+object.sizeY-2)/tileheight][(posX)/tilewidth] == 1
   5520 DD 5E F5      [19] 2568 	ld	e,-11 (ix)
   5523 16 00         [ 7] 2569 	ld	d,#0x00
   5525 3A 4E 76      [13] 2570 	ld	a, (#_object + 9)
   5528 6F            [ 4] 2571 	ld	l,a
   5529 26 00         [ 7] 2572 	ld	h,#0x00
   552B 19            [11] 2573 	add	hl,de
   552C 4D            [ 4] 2574 	ld	c,l
   552D 44            [ 4] 2575 	ld	b,h
   552E 0B            [ 6] 2576 	dec	bc
   552F 0B            [ 6] 2577 	dec	bc
   5530 59            [ 4] 2578 	ld	e, c
   5531 78            [ 4] 2579 	ld	a,b
   5532 57            [ 4] 2580 	ld	d,a
   5533 07            [ 4] 2581 	rlca
   5534 E6 01         [ 7] 2582 	and	a,#0x01
   5536 DD 77 FB      [19] 2583 	ld	-5 (ix),a
   5539 7D            [ 4] 2584 	ld	a,l
   553A C6 0D         [ 7] 2585 	add	a, #0x0D
   553C DD 77 F7      [19] 2586 	ld	-9 (ix),a
   553F 7C            [ 4] 2587 	ld	a,h
   5540 CE 00         [ 7] 2588 	adc	a, #0x00
   5542 DD 77 F8      [19] 2589 	ld	-8 (ix),a
   5545 DD 7E FB      [19] 2590 	ld	a,-5 (ix)
   5548 B7            [ 4] 2591 	or	a, a
   5549 28 06         [12] 2592 	jr	Z,00109$
   554B DD 5E F7      [19] 2593 	ld	e,-9 (ix)
   554E DD 56 F8      [19] 2594 	ld	d,-8 (ix)
   5551                    2595 00109$:
   5551 CB 2A         [ 8] 2596 	sra	d
   5553 CB 1B         [ 8] 2597 	rr	e
   5555 CB 2A         [ 8] 2598 	sra	d
   5557 CB 1B         [ 8] 2599 	rr	e
   5559 CB 2A         [ 8] 2600 	sra	d
   555B CB 1B         [ 8] 2601 	rr	e
   555D CB 2A         [ 8] 2602 	sra	d
   555F CB 1B         [ 8] 2603 	rr	e
   5561 6B            [ 4] 2604 	ld	l, e
   5562 62            [ 4] 2605 	ld	h, d
   5563 29            [11] 2606 	add	hl, hl
   5564 29            [11] 2607 	add	hl, hl
   5565 19            [11] 2608 	add	hl, de
   5566 29            [11] 2609 	add	hl, hl
   5567 29            [11] 2610 	add	hl, hl
   5568 11 52 75      [10] 2611 	ld	de,#_scene
   556B 19            [11] 2612 	add	hl,de
   556C DD 5E FF      [19] 2613 	ld	e,-1 (ix)
   556F 16 00         [ 7] 2614 	ld	d,#0x00
   5571 19            [11] 2615 	add	hl,de
   5572 7E            [ 7] 2616 	ld	a,(hl)
   5573 3D            [ 4] 2617 	dec	a
   5574 28 54         [12] 2618 	jr	Z,00101$
                           2619 ;src/main.c:332: || scene[(posY+object.sizeY-2)/tileheight][(posX+object.sizeX-1)/tilewidth] == 1
   5576 DD 7E FB      [19] 2620 	ld	a,-5 (ix)
   5579 B7            [ 4] 2621 	or	a, a
   557A 28 06         [12] 2622 	jr	Z,00110$
   557C DD 4E F7      [19] 2623 	ld	c,-9 (ix)
   557F DD 46 F8      [19] 2624 	ld	b,-8 (ix)
   5582                    2625 00110$:
   5582 CB 28         [ 8] 2626 	sra	b
   5584 CB 19         [ 8] 2627 	rr	c
   5586 CB 28         [ 8] 2628 	sra	b
   5588 CB 19         [ 8] 2629 	rr	c
   558A CB 28         [ 8] 2630 	sra	b
   558C CB 19         [ 8] 2631 	rr	c
   558E CB 28         [ 8] 2632 	sra	b
   5590 CB 19         [ 8] 2633 	rr	c
   5592 69            [ 4] 2634 	ld	l, c
   5593 60            [ 4] 2635 	ld	h, b
   5594 29            [11] 2636 	add	hl, hl
   5595 29            [11] 2637 	add	hl, hl
   5596 09            [11] 2638 	add	hl, bc
   5597 29            [11] 2639 	add	hl, hl
   5598 29            [11] 2640 	add	hl, hl
   5599 3E 52         [ 7] 2641 	ld	a,#<(_scene)
   559B 85            [ 4] 2642 	add	a, l
   559C DD 77 FB      [19] 2643 	ld	-5 (ix),a
   559F 3E 75         [ 7] 2644 	ld	a,#>(_scene)
   55A1 8C            [ 4] 2645 	adc	a, h
   55A2 DD 77 FC      [19] 2646 	ld	-4 (ix),a
   55A5 DD 6E F9      [19] 2647 	ld	l,-7 (ix)
   55A8 DD 66 FA      [19] 2648 	ld	h,-6 (ix)
   55AB DD 7E F6      [19] 2649 	ld	a,-10 (ix)
   55AE B7            [ 4] 2650 	or	a, a
   55AF 28 06         [12] 2651 	jr	Z,00111$
   55B1 DD 6E FD      [19] 2652 	ld	l,-3 (ix)
   55B4 DD 66 FE      [19] 2653 	ld	h,-2 (ix)
   55B7                    2654 00111$:
   55B7 CB 2C         [ 8] 2655 	sra	h
   55B9 CB 1D         [ 8] 2656 	rr	l
   55BB CB 2C         [ 8] 2657 	sra	h
   55BD CB 1D         [ 8] 2658 	rr	l
   55BF DD 5E FB      [19] 2659 	ld	e,-5 (ix)
   55C2 DD 56 FC      [19] 2660 	ld	d,-4 (ix)
   55C5 19            [11] 2661 	add	hl,de
   55C6 7E            [ 7] 2662 	ld	a,(hl)
   55C7 3D            [ 4] 2663 	dec	a
   55C8 20 08         [12] 2664 	jr	NZ,00106$
   55CA                    2665 00101$:
                           2666 ;src/main.c:334: arrow[0] = 0;
   55CA DD 6E 04      [19] 2667 	ld	l,4 (ix)
   55CD DD 66 05      [19] 2668 	ld	h,5 (ix)
   55D0 36 00         [10] 2669 	ld	(hl),#0x00
   55D2                    2670 00106$:
   55D2 DD F9         [10] 2671 	ld	sp, ix
   55D4 DD E1         [14] 2672 	pop	ix
   55D6 C9            [10] 2673 	ret
                           2674 ;src/main.c:338: u8 checkBoundsCollisions(u8 *x,u8 *y, u8 lx, u8 ly,u8 sizeX,u8 sizeY,u8 *life,u8 *bullets,u8 *corazon, u8 *flecha){
                           2675 ;	---------------------------------
                           2676 ; Function checkBoundsCollisions
                           2677 ; ---------------------------------
   55D7                    2678 _checkBoundsCollisions::
   55D7 DD E5         [15] 2679 	push	ix
   55D9 DD 21 00 00   [14] 2680 	ld	ix,#0
   55DD DD 39         [15] 2681 	add	ix,sp
   55DF 21 EB FF      [10] 2682 	ld	hl,#-21
   55E2 39            [11] 2683 	add	hl,sp
   55E3 F9            [ 6] 2684 	ld	sp,hl
                           2685 ;src/main.c:340: u8 *posX = x;
   55E4 DD 7E 04      [19] 2686 	ld	a,4 (ix)
   55E7 DD 77 EB      [19] 2687 	ld	-21 (ix),a
   55EA DD 7E 05      [19] 2688 	ld	a,5 (ix)
   55ED DD 77 EC      [19] 2689 	ld	-20 (ix),a
                           2690 ;src/main.c:341: u8 *posY = y;
   55F0 DD 7E 06      [19] 2691 	ld	a,6 (ix)
   55F3 DD 77 EE      [19] 2692 	ld	-18 (ix),a
   55F6 DD 7E 07      [19] 2693 	ld	a,7 (ix)
   55F9 DD 77 EF      [19] 2694 	ld	-17 (ix),a
                           2695 ;src/main.c:342: u8 bound = 0;
   55FC DD 36 ED 00   [19] 2696 	ld	-19 (ix),#0x00
                           2697 ;src/main.c:343: if(    scene[(posY[0])/tileheight][(posX[0])/tilewidth] == 1
   5600 DD 6E EE      [19] 2698 	ld	l,-18 (ix)
   5603 DD 66 EF      [19] 2699 	ld	h,-17 (ix)
   5606 7E            [ 7] 2700 	ld	a,(hl)
   5607 DD 77 FF      [19] 2701 	ld	-1 (ix), a
   560A 07            [ 4] 2702 	rlca
   560B 07            [ 4] 2703 	rlca
   560C 07            [ 4] 2704 	rlca
   560D 07            [ 4] 2705 	rlca
   560E E6 0F         [ 7] 2706 	and	a,#0x0F
   5610 4F            [ 4] 2707 	ld	c,a
   5611 06 00         [ 7] 2708 	ld	b,#0x00
   5613 69            [ 4] 2709 	ld	l, c
   5614 60            [ 4] 2710 	ld	h, b
   5615 29            [11] 2711 	add	hl, hl
   5616 29            [11] 2712 	add	hl, hl
   5617 09            [11] 2713 	add	hl, bc
   5618 29            [11] 2714 	add	hl, hl
   5619 29            [11] 2715 	add	hl, hl
   561A 3E 52         [ 7] 2716 	ld	a,#<(_scene)
   561C 85            [ 4] 2717 	add	a, l
   561D DD 77 FC      [19] 2718 	ld	-4 (ix),a
   5620 3E 75         [ 7] 2719 	ld	a,#>(_scene)
   5622 8C            [ 4] 2720 	adc	a, h
   5623 DD 77 FD      [19] 2721 	ld	-3 (ix),a
   5626 E1            [10] 2722 	pop	hl
   5627 E5            [11] 2723 	push	hl
   5628 7E            [ 7] 2724 	ld	a,(hl)
   5629 DD 77 F9      [19] 2725 	ld	-7 (ix), a
   562C 0F            [ 4] 2726 	rrca
   562D 0F            [ 4] 2727 	rrca
   562E E6 3F         [ 7] 2728 	and	a,#0x3F
   5630 DD 77 F6      [19] 2729 	ld	-10 (ix),a
   5633 DD 7E FC      [19] 2730 	ld	a,-4 (ix)
   5636 DD 86 F6      [19] 2731 	add	a, -10 (ix)
   5639 6F            [ 4] 2732 	ld	l,a
   563A DD 7E FD      [19] 2733 	ld	a,-3 (ix)
   563D CE 00         [ 7] 2734 	adc	a, #0x00
   563F 67            [ 4] 2735 	ld	h,a
   5640 7E            [ 7] 2736 	ld	a,(hl)
   5641 DD 77 FE      [19] 2737 	ld	-2 (ix), a
   5644 3D            [ 4] 2738 	dec	a
   5645 CA 53 57      [10] 2739 	jp	Z,00124$
                           2740 ;src/main.c:344: || scene[(posY[0])/tileheight][(posX[0]+sizeX-1)/tilewidth] == 1
   5648 DD 6E F9      [19] 2741 	ld	l,-7 (ix)
   564B 26 00         [ 7] 2742 	ld	h,#0x00
   564D DD 5E 0A      [19] 2743 	ld	e,10 (ix)
   5650 16 00         [ 7] 2744 	ld	d,#0x00
   5652 19            [11] 2745 	add	hl,de
   5653 7D            [ 4] 2746 	ld	a,l
   5654 C6 FF         [ 7] 2747 	add	a,#0xFF
   5656 DD 77 F2      [19] 2748 	ld	-14 (ix),a
   5659 7C            [ 4] 2749 	ld	a,h
   565A CE FF         [ 7] 2750 	adc	a,#0xFF
   565C DD 77 F3      [19] 2751 	ld	-13 (ix),a
   565F DD 7E F2      [19] 2752 	ld	a,-14 (ix)
   5662 DD 77 F0      [19] 2753 	ld	-16 (ix),a
   5665 DD 7E F3      [19] 2754 	ld	a,-13 (ix)
   5668 DD 77 F1      [19] 2755 	ld	-15 (ix),a
   566B DD 7E F3      [19] 2756 	ld	a,-13 (ix)
   566E 07            [ 4] 2757 	rlca
   566F E6 01         [ 7] 2758 	and	a,#0x01
   5671 DD 77 F9      [19] 2759 	ld	-7 (ix),a
   5674 23            [ 6] 2760 	inc	hl
   5675 23            [ 6] 2761 	inc	hl
   5676 DD 75 F4      [19] 2762 	ld	-12 (ix),l
   5679 DD 74 F5      [19] 2763 	ld	-11 (ix),h
   567C DD 7E F9      [19] 2764 	ld	a,-7 (ix)
   567F B7            [ 4] 2765 	or	a, a
   5680 28 0C         [12] 2766 	jr	Z,00132$
   5682 DD 7E F4      [19] 2767 	ld	a,-12 (ix)
   5685 DD 77 F0      [19] 2768 	ld	-16 (ix),a
   5688 DD 7E F5      [19] 2769 	ld	a,-11 (ix)
   568B DD 77 F1      [19] 2770 	ld	-15 (ix),a
   568E                    2771 00132$:
   568E DD 6E F0      [19] 2772 	ld	l,-16 (ix)
   5691 DD 66 F1      [19] 2773 	ld	h,-15 (ix)
   5694 CB 2C         [ 8] 2774 	sra	h
   5696 CB 1D         [ 8] 2775 	rr	l
   5698 CB 2C         [ 8] 2776 	sra	h
   569A CB 1D         [ 8] 2777 	rr	l
   569C DD 5E FC      [19] 2778 	ld	e,-4 (ix)
   569F DD 56 FD      [19] 2779 	ld	d,-3 (ix)
   56A2 19            [11] 2780 	add	hl,de
   56A3 7E            [ 7] 2781 	ld	a,(hl)
   56A4 3D            [ 4] 2782 	dec	a
   56A5 CA 53 57      [10] 2783 	jp	Z,00124$
                           2784 ;src/main.c:345: || scene[(posY[0]+sizeY-2)/tileheight][(posX[0])/tilewidth] == 1
   56A8 DD 6E FF      [19] 2785 	ld	l,-1 (ix)
   56AB 26 00         [ 7] 2786 	ld	h,#0x00
   56AD DD 5E 0B      [19] 2787 	ld	e,11 (ix)
   56B0 16 00         [ 7] 2788 	ld	d,#0x00
   56B2 19            [11] 2789 	add	hl,de
   56B3 4D            [ 4] 2790 	ld	c,l
   56B4 44            [ 4] 2791 	ld	b,h
   56B5 0B            [ 6] 2792 	dec	bc
   56B6 0B            [ 6] 2793 	dec	bc
   56B7 59            [ 4] 2794 	ld	e, c
   56B8 78            [ 4] 2795 	ld	a,b
   56B9 57            [ 4] 2796 	ld	d,a
   56BA 07            [ 4] 2797 	rlca
   56BB E6 01         [ 7] 2798 	and	a,#0x01
   56BD DD 77 F0      [19] 2799 	ld	-16 (ix),a
   56C0 7D            [ 4] 2800 	ld	a,l
   56C1 C6 0D         [ 7] 2801 	add	a, #0x0D
   56C3 DD 77 F7      [19] 2802 	ld	-9 (ix),a
   56C6 7C            [ 4] 2803 	ld	a,h
   56C7 CE 00         [ 7] 2804 	adc	a, #0x00
   56C9 DD 77 F8      [19] 2805 	ld	-8 (ix),a
   56CC DD 7E F0      [19] 2806 	ld	a,-16 (ix)
   56CF B7            [ 4] 2807 	or	a, a
   56D0 28 06         [12] 2808 	jr	Z,00133$
   56D2 DD 5E F7      [19] 2809 	ld	e,-9 (ix)
   56D5 DD 56 F8      [19] 2810 	ld	d,-8 (ix)
   56D8                    2811 00133$:
   56D8 CB 2A         [ 8] 2812 	sra	d
   56DA CB 1B         [ 8] 2813 	rr	e
   56DC CB 2A         [ 8] 2814 	sra	d
   56DE CB 1B         [ 8] 2815 	rr	e
   56E0 CB 2A         [ 8] 2816 	sra	d
   56E2 CB 1B         [ 8] 2817 	rr	e
   56E4 CB 2A         [ 8] 2818 	sra	d
   56E6 CB 1B         [ 8] 2819 	rr	e
   56E8 6B            [ 4] 2820 	ld	l, e
   56E9 62            [ 4] 2821 	ld	h, d
   56EA 29            [11] 2822 	add	hl, hl
   56EB 29            [11] 2823 	add	hl, hl
   56EC 19            [11] 2824 	add	hl, de
   56ED 29            [11] 2825 	add	hl, hl
   56EE 29            [11] 2826 	add	hl, hl
   56EF 11 52 75      [10] 2827 	ld	de,#_scene
   56F2 19            [11] 2828 	add	hl,de
   56F3 DD 5E F6      [19] 2829 	ld	e,-10 (ix)
   56F6 16 00         [ 7] 2830 	ld	d,#0x00
   56F8 19            [11] 2831 	add	hl,de
   56F9 7E            [ 7] 2832 	ld	a,(hl)
   56FA 3D            [ 4] 2833 	dec	a
   56FB 28 56         [12] 2834 	jr	Z,00124$
                           2835 ;src/main.c:346: || scene[(posY[0]+sizeY-2)/tileheight][(posX[0]+sizeX-1)/tilewidth] == 1
   56FD 69            [ 4] 2836 	ld	l, c
   56FE 60            [ 4] 2837 	ld	h, b
   56FF DD 7E F0      [19] 2838 	ld	a,-16 (ix)
   5702 B7            [ 4] 2839 	or	a, a
   5703 28 06         [12] 2840 	jr	Z,00134$
   5705 DD 6E F7      [19] 2841 	ld	l,-9 (ix)
   5708 DD 66 F8      [19] 2842 	ld	h,-8 (ix)
   570B                    2843 00134$:
   570B CB 2C         [ 8] 2844 	sra	h
   570D CB 1D         [ 8] 2845 	rr	l
   570F CB 2C         [ 8] 2846 	sra	h
   5711 CB 1D         [ 8] 2847 	rr	l
   5713 CB 2C         [ 8] 2848 	sra	h
   5715 CB 1D         [ 8] 2849 	rr	l
   5717 CB 2C         [ 8] 2850 	sra	h
   5719 CB 1D         [ 8] 2851 	rr	l
   571B 5D            [ 4] 2852 	ld	e, l
   571C 54            [ 4] 2853 	ld	d, h
   571D 29            [11] 2854 	add	hl, hl
   571E 29            [11] 2855 	add	hl, hl
   571F 19            [11] 2856 	add	hl, de
   5720 29            [11] 2857 	add	hl, hl
   5721 29            [11] 2858 	add	hl, hl
   5722 3E 52         [ 7] 2859 	ld	a,#<(_scene)
   5724 85            [ 4] 2860 	add	a, l
   5725 DD 77 FA      [19] 2861 	ld	-6 (ix),a
   5728 3E 75         [ 7] 2862 	ld	a,#>(_scene)
   572A 8C            [ 4] 2863 	adc	a, h
   572B DD 77 FB      [19] 2864 	ld	-5 (ix),a
   572E DD 6E F2      [19] 2865 	ld	l,-14 (ix)
   5731 DD 66 F3      [19] 2866 	ld	h,-13 (ix)
   5734 DD 7E F9      [19] 2867 	ld	a,-7 (ix)
   5737 B7            [ 4] 2868 	or	a, a
   5738 28 06         [12] 2869 	jr	Z,00135$
   573A DD 6E F4      [19] 2870 	ld	l,-12 (ix)
   573D DD 66 F5      [19] 2871 	ld	h,-11 (ix)
   5740                    2872 00135$:
   5740 CB 2C         [ 8] 2873 	sra	h
   5742 CB 1D         [ 8] 2874 	rr	l
   5744 CB 2C         [ 8] 2875 	sra	h
   5746 CB 1D         [ 8] 2876 	rr	l
   5748 DD 5E FA      [19] 2877 	ld	e,-6 (ix)
   574B DD 56 FB      [19] 2878 	ld	d,-5 (ix)
   574E 19            [11] 2879 	add	hl,de
   574F 7E            [ 7] 2880 	ld	a,(hl)
   5750 3D            [ 4] 2881 	dec	a
   5751 20 17         [12] 2882 	jr	NZ,00125$
   5753                    2883 00124$:
                           2884 ;src/main.c:348: *posX=lx;
   5753 E1            [10] 2885 	pop	hl
   5754 E5            [11] 2886 	push	hl
   5755 DD 7E 08      [19] 2887 	ld	a,8 (ix)
   5758 77            [ 7] 2888 	ld	(hl),a
                           2889 ;src/main.c:349: *posY=ly;
   5759 DD 6E EE      [19] 2890 	ld	l,-18 (ix)
   575C DD 66 EF      [19] 2891 	ld	h,-17 (ix)
   575F DD 7E 09      [19] 2892 	ld	a,9 (ix)
   5762 77            [ 7] 2893 	ld	(hl),a
                           2894 ;src/main.c:350: bound = 1;
   5763 DD 36 ED 01   [19] 2895 	ld	-19 (ix),#0x01
   5767 C3 E3 59      [10] 2896 	jp	00126$
   576A                    2897 00125$:
                           2898 ;src/main.c:352: else if(    scene[(posY[0])/tileheight][(posX[0])/tilewidth] == 2
   576A DD 7E FE      [19] 2899 	ld	a,-2 (ix)
   576D D6 02         [ 7] 2900 	sub	a, #0x02
   576F CA 1A 58      [10] 2901 	jp	Z,00118$
                           2902 ;src/main.c:353: || scene[(posY[0])/tileheight][(posX[0]+sizeX-1)/tilewidth] == 2
   5772 DD 6E F2      [19] 2903 	ld	l,-14 (ix)
   5775 DD 66 F3      [19] 2904 	ld	h,-13 (ix)
   5778 DD 7E F9      [19] 2905 	ld	a,-7 (ix)
   577B B7            [ 4] 2906 	or	a, a
   577C 28 06         [12] 2907 	jr	Z,00136$
   577E DD 6E F4      [19] 2908 	ld	l,-12 (ix)
   5781 DD 66 F5      [19] 2909 	ld	h,-11 (ix)
   5784                    2910 00136$:
   5784 CB 2C         [ 8] 2911 	sra	h
   5786 CB 1D         [ 8] 2912 	rr	l
   5788 CB 2C         [ 8] 2913 	sra	h
   578A CB 1D         [ 8] 2914 	rr	l
   578C DD 5E FC      [19] 2915 	ld	e,-4 (ix)
   578F DD 56 FD      [19] 2916 	ld	d,-3 (ix)
   5792 19            [11] 2917 	add	hl,de
   5793 7E            [ 7] 2918 	ld	a,(hl)
   5794 D6 02         [ 7] 2919 	sub	a, #0x02
   5796 CA 1A 58      [10] 2920 	jp	Z,00118$
                           2921 ;src/main.c:354: || scene[(posY[0]+sizeY-2)/tileheight][(posX[0])/tilewidth] == 2
   5799 69            [ 4] 2922 	ld	l, c
   579A 60            [ 4] 2923 	ld	h, b
   579B DD 7E F0      [19] 2924 	ld	a,-16 (ix)
   579E B7            [ 4] 2925 	or	a, a
   579F 28 06         [12] 2926 	jr	Z,00137$
   57A1 DD 6E F7      [19] 2927 	ld	l,-9 (ix)
   57A4 DD 66 F8      [19] 2928 	ld	h,-8 (ix)
   57A7                    2929 00137$:
   57A7 CB 2C         [ 8] 2930 	sra	h
   57A9 CB 1D         [ 8] 2931 	rr	l
   57AB CB 2C         [ 8] 2932 	sra	h
   57AD CB 1D         [ 8] 2933 	rr	l
   57AF CB 2C         [ 8] 2934 	sra	h
   57B1 CB 1D         [ 8] 2935 	rr	l
   57B3 CB 2C         [ 8] 2936 	sra	h
   57B5 CB 1D         [ 8] 2937 	rr	l
   57B7 5D            [ 4] 2938 	ld	e, l
   57B8 54            [ 4] 2939 	ld	d, h
   57B9 29            [11] 2940 	add	hl, hl
   57BA 29            [11] 2941 	add	hl, hl
   57BB 19            [11] 2942 	add	hl, de
   57BC 29            [11] 2943 	add	hl, hl
   57BD 29            [11] 2944 	add	hl, hl
   57BE 11 52 75      [10] 2945 	ld	de,#_scene
   57C1 19            [11] 2946 	add	hl,de
   57C2 DD 5E F6      [19] 2947 	ld	e,-10 (ix)
   57C5 16 00         [ 7] 2948 	ld	d,#0x00
   57C7 19            [11] 2949 	add	hl,de
   57C8 7E            [ 7] 2950 	ld	a,(hl)
   57C9 D6 02         [ 7] 2951 	sub	a, #0x02
   57CB 28 4D         [12] 2952 	jr	Z,00118$
                           2953 ;src/main.c:355: || scene[(posY[0]+sizeY-2)/tileheight][(posX[0]+sizeX-1)/tilewidth] == 2
   57CD 69            [ 4] 2954 	ld	l, c
   57CE 60            [ 4] 2955 	ld	h, b
   57CF DD 7E F0      [19] 2956 	ld	a,-16 (ix)
   57D2 B7            [ 4] 2957 	or	a, a
   57D3 28 06         [12] 2958 	jr	Z,00138$
   57D5 DD 6E F7      [19] 2959 	ld	l,-9 (ix)
   57D8 DD 66 F8      [19] 2960 	ld	h,-8 (ix)
   57DB                    2961 00138$:
   57DB CB 2C         [ 8] 2962 	sra	h
   57DD CB 1D         [ 8] 2963 	rr	l
   57DF CB 2C         [ 8] 2964 	sra	h
   57E1 CB 1D         [ 8] 2965 	rr	l
   57E3 CB 2C         [ 8] 2966 	sra	h
   57E5 CB 1D         [ 8] 2967 	rr	l
   57E7 CB 2C         [ 8] 2968 	sra	h
   57E9 CB 1D         [ 8] 2969 	rr	l
   57EB 5D            [ 4] 2970 	ld	e, l
   57EC 54            [ 4] 2971 	ld	d, h
   57ED 29            [11] 2972 	add	hl, hl
   57EE 29            [11] 2973 	add	hl, hl
   57EF 19            [11] 2974 	add	hl, de
   57F0 29            [11] 2975 	add	hl, hl
   57F1 29            [11] 2976 	add	hl, hl
   57F2 3E 52         [ 7] 2977 	ld	a,#<(_scene)
   57F4 85            [ 4] 2978 	add	a, l
   57F5 5F            [ 4] 2979 	ld	e,a
   57F6 3E 75         [ 7] 2980 	ld	a,#>(_scene)
   57F8 8C            [ 4] 2981 	adc	a, h
   57F9 57            [ 4] 2982 	ld	d,a
   57FA DD 6E F2      [19] 2983 	ld	l,-14 (ix)
   57FD DD 66 F3      [19] 2984 	ld	h,-13 (ix)
   5800 DD 7E F9      [19] 2985 	ld	a,-7 (ix)
   5803 B7            [ 4] 2986 	or	a, a
   5804 28 06         [12] 2987 	jr	Z,00139$
   5806 DD 6E F4      [19] 2988 	ld	l,-12 (ix)
   5809 DD 66 F5      [19] 2989 	ld	h,-11 (ix)
   580C                    2990 00139$:
   580C CB 2C         [ 8] 2991 	sra	h
   580E CB 1D         [ 8] 2992 	rr	l
   5810 CB 2C         [ 8] 2993 	sra	h
   5812 CB 1D         [ 8] 2994 	rr	l
   5814 19            [11] 2995 	add	hl,de
   5815 7E            [ 7] 2996 	ld	a,(hl)
   5816 D6 02         [ 7] 2997 	sub	a, #0x02
   5818 20 26         [12] 2998 	jr	NZ,00119$
   581A                    2999 00118$:
                           3000 ;src/main.c:357: if(*life < 3 && *corazon == 0){
   581A DD 4E 0C      [19] 3001 	ld	c,12 (ix)
   581D DD 46 0D      [19] 3002 	ld	b,13 (ix)
   5820 C5            [11] 3003 	push	bc
   5821 FD E1         [14] 3004 	pop	iy
   5823 FD 5E 00      [19] 3005 	ld	e, 0 (iy)
   5826 7B            [ 4] 3006 	ld	a,e
   5827 D6 03         [ 7] 3007 	sub	a, #0x03
   5829 D2 E3 59      [10] 3008 	jp	NC,00126$
   582C DD 6E 10      [19] 3009 	ld	l,16 (ix)
   582F DD 66 11      [19] 3010 	ld	h,17 (ix)
   5832 7E            [ 7] 3011 	ld	a,(hl)
   5833 B7            [ 4] 3012 	or	a, a
   5834 C2 E3 59      [10] 3013 	jp	NZ,00126$
                           3014 ;src/main.c:358: *life += 1;
   5837 1C            [ 4] 3015 	inc	e
   5838 FD 73 00      [19] 3016 	ld	0 (iy), e
                           3017 ;src/main.c:359: *corazon = 1;
   583B 36 01         [10] 3018 	ld	(hl),#0x01
   583D C3 E3 59      [10] 3019 	jp	00126$
   5840                    3020 00119$:
                           3021 ;src/main.c:362: else if(    scene[(posY[0])/tileheight][(posX[0])/tilewidth] == 5
   5840 DD 7E FE      [19] 3022 	ld	a,-2 (ix)
   5843 D6 05         [ 7] 3023 	sub	a, #0x05
   5845 CA F0 58      [10] 3024 	jp	Z,00112$
                           3025 ;src/main.c:363: || scene[(posY[0])/tileheight][(posX[0]+sizeX-1)/tilewidth] == 5
   5848 DD 6E F2      [19] 3026 	ld	l,-14 (ix)
   584B DD 66 F3      [19] 3027 	ld	h,-13 (ix)
   584E DD 7E F9      [19] 3028 	ld	a,-7 (ix)
   5851 B7            [ 4] 3029 	or	a, a
   5852 28 06         [12] 3030 	jr	Z,00140$
   5854 DD 6E F4      [19] 3031 	ld	l,-12 (ix)
   5857 DD 66 F5      [19] 3032 	ld	h,-11 (ix)
   585A                    3033 00140$:
   585A CB 2C         [ 8] 3034 	sra	h
   585C CB 1D         [ 8] 3035 	rr	l
   585E CB 2C         [ 8] 3036 	sra	h
   5860 CB 1D         [ 8] 3037 	rr	l
   5862 DD 5E FC      [19] 3038 	ld	e,-4 (ix)
   5865 DD 56 FD      [19] 3039 	ld	d,-3 (ix)
   5868 19            [11] 3040 	add	hl,de
   5869 7E            [ 7] 3041 	ld	a,(hl)
   586A D6 05         [ 7] 3042 	sub	a, #0x05
   586C CA F0 58      [10] 3043 	jp	Z,00112$
                           3044 ;src/main.c:364: || scene[(posY[0]+sizeY-2)/tileheight][(posX[0])/tilewidth] == 5
   586F 69            [ 4] 3045 	ld	l, c
   5870 60            [ 4] 3046 	ld	h, b
   5871 DD 7E F0      [19] 3047 	ld	a,-16 (ix)
   5874 B7            [ 4] 3048 	or	a, a
   5875 28 06         [12] 3049 	jr	Z,00141$
   5877 DD 6E F7      [19] 3050 	ld	l,-9 (ix)
   587A DD 66 F8      [19] 3051 	ld	h,-8 (ix)
   587D                    3052 00141$:
   587D CB 2C         [ 8] 3053 	sra	h
   587F CB 1D         [ 8] 3054 	rr	l
   5881 CB 2C         [ 8] 3055 	sra	h
   5883 CB 1D         [ 8] 3056 	rr	l
   5885 CB 2C         [ 8] 3057 	sra	h
   5887 CB 1D         [ 8] 3058 	rr	l
   5889 CB 2C         [ 8] 3059 	sra	h
   588B CB 1D         [ 8] 3060 	rr	l
   588D 5D            [ 4] 3061 	ld	e, l
   588E 54            [ 4] 3062 	ld	d, h
   588F 29            [11] 3063 	add	hl, hl
   5890 29            [11] 3064 	add	hl, hl
   5891 19            [11] 3065 	add	hl, de
   5892 29            [11] 3066 	add	hl, hl
   5893 29            [11] 3067 	add	hl, hl
   5894 11 52 75      [10] 3068 	ld	de,#_scene
   5897 19            [11] 3069 	add	hl,de
   5898 DD 5E F6      [19] 3070 	ld	e,-10 (ix)
   589B 16 00         [ 7] 3071 	ld	d,#0x00
   589D 19            [11] 3072 	add	hl,de
   589E 7E            [ 7] 3073 	ld	a,(hl)
   589F D6 05         [ 7] 3074 	sub	a, #0x05
   58A1 28 4D         [12] 3075 	jr	Z,00112$
                           3076 ;src/main.c:365: || scene[(posY[0]+sizeY-2)/tileheight][(posX[0]+sizeX-1)/tilewidth] == 5
   58A3 69            [ 4] 3077 	ld	l, c
   58A4 60            [ 4] 3078 	ld	h, b
   58A5 DD 7E F0      [19] 3079 	ld	a,-16 (ix)
   58A8 B7            [ 4] 3080 	or	a, a
   58A9 28 06         [12] 3081 	jr	Z,00142$
   58AB DD 6E F7      [19] 3082 	ld	l,-9 (ix)
   58AE DD 66 F8      [19] 3083 	ld	h,-8 (ix)
   58B1                    3084 00142$:
   58B1 CB 2C         [ 8] 3085 	sra	h
   58B3 CB 1D         [ 8] 3086 	rr	l
   58B5 CB 2C         [ 8] 3087 	sra	h
   58B7 CB 1D         [ 8] 3088 	rr	l
   58B9 CB 2C         [ 8] 3089 	sra	h
   58BB CB 1D         [ 8] 3090 	rr	l
   58BD CB 2C         [ 8] 3091 	sra	h
   58BF CB 1D         [ 8] 3092 	rr	l
   58C1 5D            [ 4] 3093 	ld	e, l
   58C2 54            [ 4] 3094 	ld	d, h
   58C3 29            [11] 3095 	add	hl, hl
   58C4 29            [11] 3096 	add	hl, hl
   58C5 19            [11] 3097 	add	hl, de
   58C6 29            [11] 3098 	add	hl, hl
   58C7 29            [11] 3099 	add	hl, hl
   58C8 3E 52         [ 7] 3100 	ld	a,#<(_scene)
   58CA 85            [ 4] 3101 	add	a, l
   58CB 5F            [ 4] 3102 	ld	e,a
   58CC 3E 75         [ 7] 3103 	ld	a,#>(_scene)
   58CE 8C            [ 4] 3104 	adc	a, h
   58CF 57            [ 4] 3105 	ld	d,a
   58D0 DD 6E F2      [19] 3106 	ld	l,-14 (ix)
   58D3 DD 66 F3      [19] 3107 	ld	h,-13 (ix)
   58D6 DD 7E F9      [19] 3108 	ld	a,-7 (ix)
   58D9 B7            [ 4] 3109 	or	a, a
   58DA 28 06         [12] 3110 	jr	Z,00143$
   58DC DD 6E F4      [19] 3111 	ld	l,-12 (ix)
   58DF DD 66 F5      [19] 3112 	ld	h,-11 (ix)
   58E2                    3113 00143$:
   58E2 CB 2C         [ 8] 3114 	sra	h
   58E4 CB 1D         [ 8] 3115 	rr	l
   58E6 CB 2C         [ 8] 3116 	sra	h
   58E8 CB 1D         [ 8] 3117 	rr	l
   58EA 19            [11] 3118 	add	hl,de
   58EB 7E            [ 7] 3119 	ld	a,(hl)
   58EC D6 05         [ 7] 3120 	sub	a, #0x05
   58EE 20 26         [12] 3121 	jr	NZ,00113$
   58F0                    3122 00112$:
                           3123 ;src/main.c:367: if(*bullets < 3 && *flecha == 0){
   58F0 DD 4E 0E      [19] 3124 	ld	c,14 (ix)
   58F3 DD 46 0F      [19] 3125 	ld	b,15 (ix)
   58F6 C5            [11] 3126 	push	bc
   58F7 FD E1         [14] 3127 	pop	iy
   58F9 FD 5E 00      [19] 3128 	ld	e, 0 (iy)
   58FC 7B            [ 4] 3129 	ld	a,e
   58FD D6 03         [ 7] 3130 	sub	a, #0x03
   58FF D2 E3 59      [10] 3131 	jp	NC,00126$
   5902 DD 6E 12      [19] 3132 	ld	l,18 (ix)
   5905 DD 66 13      [19] 3133 	ld	h,19 (ix)
   5908 7E            [ 7] 3134 	ld	a,(hl)
   5909 B7            [ 4] 3135 	or	a, a
   590A C2 E3 59      [10] 3136 	jp	NZ,00126$
                           3137 ;src/main.c:368: *bullets += 1;
   590D 1C            [ 4] 3138 	inc	e
   590E FD 73 00      [19] 3139 	ld	0 (iy), e
                           3140 ;src/main.c:369: *flecha = 1;
   5911 36 01         [10] 3141 	ld	(hl),#0x01
   5913 C3 E3 59      [10] 3142 	jp	00126$
   5916                    3143 00113$:
                           3144 ;src/main.c:371: }else if(    scene[(posY[0])/tileheight][(posX[0])/tilewidth] == 9
   5916 DD 7E FE      [19] 3145 	ld	a,-2 (ix)
   5919 D6 09         [ 7] 3146 	sub	a, #0x09
   591B CA CE 59      [10] 3147 	jp	Z,00107$
                           3148 ;src/main.c:372: || scene[(posY[0])/tileheight][(posX[0]+sizeX-1)/tilewidth] == 9
   591E DD 6E F2      [19] 3149 	ld	l,-14 (ix)
   5921 DD 66 F3      [19] 3150 	ld	h,-13 (ix)
   5924 DD 7E F9      [19] 3151 	ld	a,-7 (ix)
   5927 B7            [ 4] 3152 	or	a, a
   5928 28 06         [12] 3153 	jr	Z,00144$
   592A DD 6E F4      [19] 3154 	ld	l,-12 (ix)
   592D DD 66 F5      [19] 3155 	ld	h,-11 (ix)
   5930                    3156 00144$:
   5930 CB 2C         [ 8] 3157 	sra	h
   5932 CB 1D         [ 8] 3158 	rr	l
   5934 CB 2C         [ 8] 3159 	sra	h
   5936 CB 1D         [ 8] 3160 	rr	l
   5938 DD 5E FC      [19] 3161 	ld	e,-4 (ix)
   593B DD 56 FD      [19] 3162 	ld	d,-3 (ix)
   593E 19            [11] 3163 	add	hl,de
   593F 7E            [ 7] 3164 	ld	a,(hl)
   5940 D6 09         [ 7] 3165 	sub	a, #0x09
   5942 CA CE 59      [10] 3166 	jp	Z,00107$
                           3167 ;src/main.c:373: || scene[(posY[0]+sizeY-2)/tileheight][(posX[0])/tilewidth] == 9
   5945 69            [ 4] 3168 	ld	l, c
   5946 60            [ 4] 3169 	ld	h, b
   5947 DD 7E F0      [19] 3170 	ld	a,-16 (ix)
   594A B7            [ 4] 3171 	or	a, a
   594B 28 06         [12] 3172 	jr	Z,00145$
   594D DD 6E F7      [19] 3173 	ld	l,-9 (ix)
   5950 DD 66 F8      [19] 3174 	ld	h,-8 (ix)
   5953                    3175 00145$:
   5953 CB 2C         [ 8] 3176 	sra	h
   5955 CB 1D         [ 8] 3177 	rr	l
   5957 CB 2C         [ 8] 3178 	sra	h
   5959 CB 1D         [ 8] 3179 	rr	l
   595B CB 2C         [ 8] 3180 	sra	h
   595D CB 1D         [ 8] 3181 	rr	l
   595F CB 2C         [ 8] 3182 	sra	h
   5961 CB 1D         [ 8] 3183 	rr	l
   5963 5D            [ 4] 3184 	ld	e, l
   5964 54            [ 4] 3185 	ld	d, h
   5965 29            [11] 3186 	add	hl, hl
   5966 29            [11] 3187 	add	hl, hl
   5967 19            [11] 3188 	add	hl, de
   5968 29            [11] 3189 	add	hl, hl
   5969 29            [11] 3190 	add	hl, hl
   596A 11 52 75      [10] 3191 	ld	de,#_scene
   596D 19            [11] 3192 	add	hl,de
   596E DD 5E F6      [19] 3193 	ld	e,-10 (ix)
   5971 16 00         [ 7] 3194 	ld	d,#0x00
   5973 19            [11] 3195 	add	hl,de
   5974 7E            [ 7] 3196 	ld	a,(hl)
   5975 D6 09         [ 7] 3197 	sub	a, #0x09
   5977 28 55         [12] 3198 	jr	Z,00107$
                           3199 ;src/main.c:374: || scene[(posY[0]+sizeY-2)/tileheight][(posX[0]+sizeX-1)/tilewidth] == 9
   5979 DD 7E F0      [19] 3200 	ld	a,-16 (ix)
   597C B7            [ 4] 3201 	or	a, a
   597D 28 06         [12] 3202 	jr	Z,00146$
   597F DD 4E F7      [19] 3203 	ld	c,-9 (ix)
   5982 DD 46 F8      [19] 3204 	ld	b,-8 (ix)
   5985                    3205 00146$:
   5985 CB 28         [ 8] 3206 	sra	b
   5987 CB 19         [ 8] 3207 	rr	c
   5989 CB 28         [ 8] 3208 	sra	b
   598B CB 19         [ 8] 3209 	rr	c
   598D CB 28         [ 8] 3210 	sra	b
   598F CB 19         [ 8] 3211 	rr	c
   5991 CB 28         [ 8] 3212 	sra	b
   5993 CB 19         [ 8] 3213 	rr	c
   5995 69            [ 4] 3214 	ld	l, c
   5996 60            [ 4] 3215 	ld	h, b
   5997 29            [11] 3216 	add	hl, hl
   5998 29            [11] 3217 	add	hl, hl
   5999 09            [11] 3218 	add	hl, bc
   599A 29            [11] 3219 	add	hl, hl
   599B 29            [11] 3220 	add	hl, hl
   599C 3E 52         [ 7] 3221 	ld	a,#<(_scene)
   599E 85            [ 4] 3222 	add	a, l
   599F DD 77 FA      [19] 3223 	ld	-6 (ix),a
   59A2 3E 75         [ 7] 3224 	ld	a,#>(_scene)
   59A4 8C            [ 4] 3225 	adc	a, h
   59A5 DD 77 FB      [19] 3226 	ld	-5 (ix),a
   59A8 DD 6E F2      [19] 3227 	ld	l,-14 (ix)
   59AB DD 66 F3      [19] 3228 	ld	h,-13 (ix)
   59AE DD 7E F9      [19] 3229 	ld	a,-7 (ix)
   59B1 B7            [ 4] 3230 	or	a, a
   59B2 28 06         [12] 3231 	jr	Z,00147$
   59B4 DD 6E F4      [19] 3232 	ld	l,-12 (ix)
   59B7 DD 66 F5      [19] 3233 	ld	h,-11 (ix)
   59BA                    3234 00147$:
   59BA CB 2C         [ 8] 3235 	sra	h
   59BC CB 1D         [ 8] 3236 	rr	l
   59BE CB 2C         [ 8] 3237 	sra	h
   59C0 CB 1D         [ 8] 3238 	rr	l
   59C2 DD 5E FA      [19] 3239 	ld	e,-6 (ix)
   59C5 DD 56 FB      [19] 3240 	ld	d,-5 (ix)
   59C8 19            [11] 3241 	add	hl,de
   59C9 7E            [ 7] 3242 	ld	a,(hl)
   59CA D6 09         [ 7] 3243 	sub	a, #0x09
   59CC 20 15         [12] 3244 	jr	NZ,00126$
   59CE                    3245 00107$:
                           3246 ;src/main.c:376: cpct_clearScreen(0);
   59CE 21 00 40      [10] 3247 	ld	hl,#0x4000
   59D1 E5            [11] 3248 	push	hl
   59D2 AF            [ 4] 3249 	xor	a, a
   59D3 F5            [11] 3250 	push	af
   59D4 33            [ 6] 3251 	inc	sp
   59D5 26 C0         [ 7] 3252 	ld	h, #0xC0
   59D7 E5            [11] 3253 	push	hl
   59D8 CD 69 73      [17] 3254 	call	_cpct_memset
                           3255 ;src/main.c:377: drawMap(2);
   59DB 3E 02         [ 7] 3256 	ld	a,#0x02
   59DD F5            [11] 3257 	push	af
   59DE 33            [ 6] 3258 	inc	sp
   59DF CD 4D 4D      [17] 3259 	call	_drawMap
   59E2 33            [ 6] 3260 	inc	sp
   59E3                    3261 00126$:
                           3262 ;src/main.c:379: return bound;
   59E3 DD 6E ED      [19] 3263 	ld	l,-19 (ix)
   59E6 DD F9         [10] 3264 	ld	sp, ix
   59E8 DD E1         [14] 3265 	pop	ix
   59EA C9            [10] 3266 	ret
                           3267 ;src/main.c:384: u8* checkKeyboard(u8 *x,u8 *y,u8 *atk,u8 *dir,u8 *s,u8 *size,u8 *bullets,u8 *finish,u8 *arrow){
                           3268 ;	---------------------------------
                           3269 ; Function checkKeyboard
                           3270 ; ---------------------------------
   59EB                    3271 _checkKeyboard::
   59EB DD E5         [15] 3272 	push	ix
   59ED DD 21 00 00   [14] 3273 	ld	ix,#0
   59F1 DD 39         [15] 3274 	add	ix,sp
   59F3 21 F3 FF      [10] 3275 	ld	hl,#-13
   59F6 39            [11] 3276 	add	hl,sp
   59F7 F9            [ 6] 3277 	ld	sp,hl
                           3278 ;src/main.c:386: if(cpct_isKeyPressed(Key_Space) && atk[0]>=20){
   59F8 21 05 80      [10] 3279 	ld	hl,#0x8005
   59FB CD 33 71      [17] 3280 	call	_cpct_isKeyPressed
   59FE 55            [ 4] 3281 	ld	d,l
   59FF DD 4E 08      [19] 3282 	ld	c,8 (ix)
   5A02 DD 46 09      [19] 3283 	ld	b,9 (ix)
   5A05 0A            [ 7] 3284 	ld	a,(bc)
   5A06 5F            [ 4] 3285 	ld	e,a
                           3286 ;src/main.c:387: size[0] = 5;
   5A07 DD 7E 0E      [19] 3287 	ld	a,14 (ix)
   5A0A DD 77 FE      [19] 3288 	ld	-2 (ix),a
   5A0D DD 7E 0F      [19] 3289 	ld	a,15 (ix)
   5A10 DD 77 FF      [19] 3290 	ld	-1 (ix),a
                           3291 ;src/main.c:390: switch(dir[0]){
   5A13 DD 7E 0A      [19] 3292 	ld	a,10 (ix)
   5A16 DD 77 F6      [19] 3293 	ld	-10 (ix),a
   5A19 DD 7E 0B      [19] 3294 	ld	a,11 (ix)
   5A1C DD 77 F7      [19] 3295 	ld	-9 (ix),a
                           3296 ;src/main.c:429: }else if(cpct_isKeyPressed(Key_X) && arrow[0] == 0){
   5A1F DD 7E 14      [19] 3297 	ld	a,20 (ix)
   5A22 DD 77 FC      [19] 3298 	ld	-4 (ix),a
   5A25 DD 7E 15      [19] 3299 	ld	a,21 (ix)
   5A28 DD 77 FD      [19] 3300 	ld	-3 (ix),a
                           3301 ;src/main.c:386: if(cpct_isKeyPressed(Key_Space) && atk[0]>=20){
   5A2B 7B            [ 4] 3302 	ld	a,e
   5A2C D6 14         [ 7] 3303 	sub	a, #0x14
   5A2E 3E 00         [ 7] 3304 	ld	a,#0x00
   5A30 17            [ 4] 3305 	rla
   5A31 6F            [ 4] 3306 	ld	l,a
   5A32 7A            [ 4] 3307 	ld	a,d
   5A33 B7            [ 4] 3308 	or	a, a
   5A34 28 73         [12] 3309 	jr	Z,00145$
   5A36 7D            [ 4] 3310 	ld	a,l
   5A37 B7            [ 4] 3311 	or	a, a
   5A38 20 6F         [12] 3312 	jr	NZ,00145$
                           3313 ;src/main.c:387: size[0] = 5;
   5A3A DD 6E FE      [19] 3314 	ld	l,-2 (ix)
   5A3D DD 66 FF      [19] 3315 	ld	h,-1 (ix)
   5A40 36 05         [10] 3316 	ld	(hl),#0x05
                           3317 ;src/main.c:388: if(atk[0] >= 50) atk[0] =0;
   5A42 0A            [ 7] 3318 	ld	a,(bc)
   5A43 67            [ 4] 3319 	ld	h,a
   5A44 D6 32         [ 7] 3320 	sub	a, #0x32
   5A46 38 04         [12] 3321 	jr	C,00102$
   5A48 AF            [ 4] 3322 	xor	a, a
   5A49 02            [ 7] 3323 	ld	(bc),a
   5A4A 18 03         [12] 3324 	jr	00103$
   5A4C                    3325 00102$:
                           3326 ;src/main.c:389: else atk[0] += 1;
   5A4C 7C            [ 4] 3327 	ld	a,h
   5A4D 3C            [ 4] 3328 	inc	a
   5A4E 02            [ 7] 3329 	ld	(bc),a
   5A4F                    3330 00103$:
                           3331 ;src/main.c:390: switch(dir[0]){
   5A4F DD 6E F6      [19] 3332 	ld	l,-10 (ix)
   5A52 DD 66 F7      [19] 3333 	ld	h,-9 (ix)
   5A55 66            [ 7] 3334 	ld	h,(hl)
   5A56 7C            [ 4] 3335 	ld	a,h
   5A57 D6 02         [ 7] 3336 	sub	a, #0x02
   5A59 28 3B         [12] 3337 	jr	Z,00107$
   5A5B 7C            [ 4] 3338 	ld	a,h
   5A5C D6 04         [ 7] 3339 	sub	a, #0x04
   5A5E 28 0D         [12] 3340 	jr	Z,00104$
   5A60 7C            [ 4] 3341 	ld	a,h
   5A61 D6 06         [ 7] 3342 	sub	a, #0x06
   5A63 28 13         [12] 3343 	jr	Z,00105$
   5A65 7C            [ 4] 3344 	ld	a,h
   5A66 D6 08         [ 7] 3345 	sub	a, #0x08
   5A68 28 19         [12] 3346 	jr	Z,00106$
   5A6A C3 D3 5C      [10] 3347 	jp	00146$
                           3348 ;src/main.c:391: case 4:
   5A6D                    3349 00104$:
                           3350 ;src/main.c:392: s = gladis_atk_izda;
   5A6D DD 36 0C A0   [19] 3351 	ld	12 (ix),#<(_gladis_atk_izda)
   5A71 DD 36 0D 41   [19] 3352 	ld	13 (ix),#>(_gladis_atk_izda)
                           3353 ;src/main.c:393: break;
   5A75 C3 D3 5C      [10] 3354 	jp	00146$
                           3355 ;src/main.c:394: case 6:
   5A78                    3356 00105$:
                           3357 ;src/main.c:395: s = gladis_atk_dcha;
   5A78 DD 36 0C 00   [19] 3358 	ld	12 (ix),#<(_gladis_atk_dcha)
   5A7C DD 36 0D 41   [19] 3359 	ld	13 (ix),#>(_gladis_atk_dcha)
                           3360 ;src/main.c:396: break;
   5A80 C3 D3 5C      [10] 3361 	jp	00146$
                           3362 ;src/main.c:397: case 8:
   5A83                    3363 00106$:
                           3364 ;src/main.c:398: s = gladis_atk_arriba;
   5A83 DD 36 0C C0   [19] 3365 	ld	12 (ix),#<(_gladis_atk_arriba)
   5A87 DD 36 0D 43   [19] 3366 	ld	13 (ix),#>(_gladis_atk_arriba)
                           3367 ;src/main.c:399: size[0] = 4;
   5A8B DD 6E FE      [19] 3368 	ld	l,-2 (ix)
   5A8E DD 66 FF      [19] 3369 	ld	h,-1 (ix)
   5A91 36 04         [10] 3370 	ld	(hl),#0x04
                           3371 ;src/main.c:400: break;
   5A93 C3 D3 5C      [10] 3372 	jp	00146$
                           3373 ;src/main.c:401: case 2:
   5A96                    3374 00107$:
                           3375 ;src/main.c:402: s = gladis_atk_abajo;
   5A96 DD 36 0C 40   [19] 3376 	ld	12 (ix),#<(_gladis_atk_abajo)
   5A9A DD 36 0D 43   [19] 3377 	ld	13 (ix),#>(_gladis_atk_abajo)
                           3378 ;src/main.c:403: size[0] = 4;
   5A9E DD 6E FE      [19] 3379 	ld	l,-2 (ix)
   5AA1 DD 66 FF      [19] 3380 	ld	h,-1 (ix)
   5AA4 36 04         [10] 3381 	ld	(hl),#0x04
                           3382 ;src/main.c:405: }
   5AA6 C3 D3 5C      [10] 3383 	jp	00146$
   5AA9                    3384 00145$:
                           3385 ;src/main.c:407: if(atk[0] < 20) atk[0] += 1;
   5AA9 7D            [ 4] 3386 	ld	a,l
   5AAA B7            [ 4] 3387 	or	a, a
   5AAB 28 05         [12] 3388 	jr	Z,00110$
   5AAD 7B            [ 4] 3389 	ld	a,e
   5AAE 3C            [ 4] 3390 	inc	a
   5AAF 02            [ 7] 3391 	ld	(bc),a
   5AB0 18 03         [12] 3392 	jr	00111$
   5AB2                    3393 00110$:
                           3394 ;src/main.c:408: else atk[0] = 20;
   5AB2 3E 14         [ 7] 3395 	ld	a,#0x14
   5AB4 02            [ 7] 3396 	ld	(bc),a
   5AB5                    3397 00111$:
                           3398 ;src/main.c:409: if(cpct_isKeyPressed(Key_CursorRight) && x[0] < 76){
   5AB5 21 00 02      [10] 3399 	ld	hl,#0x0200
   5AB8 CD 33 71      [17] 3400 	call	_cpct_isKeyPressed
   5ABB DD 4E 04      [19] 3401 	ld	c,4 (ix)
   5ABE DD 46 05      [19] 3402 	ld	b,5 (ix)
   5AC1 7D            [ 4] 3403 	ld	a,l
   5AC2 B7            [ 4] 3404 	or	a, a
   5AC3 28 24         [12] 3405 	jr	Z,00141$
   5AC5 0A            [ 7] 3406 	ld	a,(bc)
   5AC6 67            [ 4] 3407 	ld	h,a
   5AC7 D6 4C         [ 7] 3408 	sub	a, #0x4C
   5AC9 30 1E         [12] 3409 	jr	NC,00141$
                           3410 ;src/main.c:410: x[0] += 1;
   5ACB 7C            [ 4] 3411 	ld	a,h
   5ACC 3C            [ 4] 3412 	inc	a
   5ACD 02            [ 7] 3413 	ld	(bc),a
                           3414 ;src/main.c:411: dir[0] = 6;
   5ACE DD 6E F6      [19] 3415 	ld	l,-10 (ix)
   5AD1 DD 66 F7      [19] 3416 	ld	h,-9 (ix)
   5AD4 36 06         [10] 3417 	ld	(hl),#0x06
                           3418 ;src/main.c:412: size[0] = 4;
   5AD6 DD 6E FE      [19] 3419 	ld	l,-2 (ix)
   5AD9 DD 66 FF      [19] 3420 	ld	h,-1 (ix)
   5ADC 36 04         [10] 3421 	ld	(hl),#0x04
                           3422 ;src/main.c:413: s = gladis_quieto_dcha;
   5ADE DD 36 0C 00   [19] 3423 	ld	12 (ix),#<(_gladis_quieto_dcha)
   5AE2 DD 36 0D 40   [19] 3424 	ld	13 (ix),#>(_gladis_quieto_dcha)
   5AE6 C3 D3 5C      [10] 3425 	jp	00146$
   5AE9                    3426 00141$:
                           3427 ;src/main.c:414: }else if(cpct_isKeyPressed(Key_CursorLeft) && x[0] > 0){
   5AE9 C5            [11] 3428 	push	bc
   5AEA 21 01 01      [10] 3429 	ld	hl,#0x0101
   5AED CD 33 71      [17] 3430 	call	_cpct_isKeyPressed
   5AF0 7D            [ 4] 3431 	ld	a,l
   5AF1 C1            [10] 3432 	pop	bc
   5AF2 B7            [ 4] 3433 	or	a, a
   5AF3 28 22         [12] 3434 	jr	Z,00137$
   5AF5 0A            [ 7] 3435 	ld	a,(bc)
   5AF6 B7            [ 4] 3436 	or	a, a
   5AF7 28 1E         [12] 3437 	jr	Z,00137$
                           3438 ;src/main.c:415: x[0] -= 1;
   5AF9 C6 FF         [ 7] 3439 	add	a,#0xFF
   5AFB 02            [ 7] 3440 	ld	(bc),a
                           3441 ;src/main.c:416: dir[0] = 4;
   5AFC DD 6E F6      [19] 3442 	ld	l,-10 (ix)
   5AFF DD 66 F7      [19] 3443 	ld	h,-9 (ix)
   5B02 36 04         [10] 3444 	ld	(hl),#0x04
                           3445 ;src/main.c:417: size[0] = 4;
   5B04 DD 6E FE      [19] 3446 	ld	l,-2 (ix)
   5B07 DD 66 FF      [19] 3447 	ld	h,-1 (ix)
   5B0A 36 04         [10] 3448 	ld	(hl),#0x04
                           3449 ;src/main.c:418: s = gladis_quieto_izda;
   5B0C DD 36 0C 80   [19] 3450 	ld	12 (ix),#<(_gladis_quieto_izda)
   5B10 DD 36 0D 40   [19] 3451 	ld	13 (ix),#>(_gladis_quieto_izda)
   5B14 C3 D3 5C      [10] 3452 	jp	00146$
   5B17                    3453 00137$:
                           3454 ;src/main.c:419: }else  if(cpct_isKeyPressed(Key_CursorDown) && y[0] < 180){
   5B17 C5            [11] 3455 	push	bc
   5B18 21 00 04      [10] 3456 	ld	hl,#0x0400
   5B1B CD 33 71      [17] 3457 	call	_cpct_isKeyPressed
   5B1E C1            [10] 3458 	pop	bc
   5B1F DD 5E 06      [19] 3459 	ld	e,6 (ix)
   5B22 DD 56 07      [19] 3460 	ld	d,7 (ix)
   5B25 7D            [ 4] 3461 	ld	a,l
   5B26 B7            [ 4] 3462 	or	a, a
   5B27 28 25         [12] 3463 	jr	Z,00133$
   5B29 1A            [ 7] 3464 	ld	a,(de)
   5B2A 67            [ 4] 3465 	ld	h,a
   5B2B D6 B4         [ 7] 3466 	sub	a, #0xB4
   5B2D 30 1F         [12] 3467 	jr	NC,00133$
                           3468 ;src/main.c:420: y[0] += 2;
   5B2F 7C            [ 4] 3469 	ld	a,h
   5B30 C6 02         [ 7] 3470 	add	a, #0x02
   5B32 12            [ 7] 3471 	ld	(de),a
                           3472 ;src/main.c:421: dir[0] = 2;
   5B33 DD 6E F6      [19] 3473 	ld	l,-10 (ix)
   5B36 DD 66 F7      [19] 3474 	ld	h,-9 (ix)
   5B39 36 02         [10] 3475 	ld	(hl),#0x02
                           3476 ;src/main.c:422: size[0] = 4;
   5B3B DD 6E FE      [19] 3477 	ld	l,-2 (ix)
   5B3E DD 66 FF      [19] 3478 	ld	h,-1 (ix)
   5B41 36 04         [10] 3479 	ld	(hl),#0x04
                           3480 ;src/main.c:423: s = gladis_abajo;
   5B43 DD 36 0C C0   [19] 3481 	ld	12 (ix),#<(_gladis_abajo)
   5B47 DD 36 0D 42   [19] 3482 	ld	13 (ix),#>(_gladis_abajo)
   5B4B C3 D3 5C      [10] 3483 	jp	00146$
   5B4E                    3484 00133$:
                           3485 ;src/main.c:424: }else if(cpct_isKeyPressed(Key_CursorUp) && y[0] > 0 ){
   5B4E C5            [11] 3486 	push	bc
   5B4F D5            [11] 3487 	push	de
   5B50 21 00 01      [10] 3488 	ld	hl,#0x0100
   5B53 CD 33 71      [17] 3489 	call	_cpct_isKeyPressed
   5B56 7D            [ 4] 3490 	ld	a,l
   5B57 D1            [10] 3491 	pop	de
   5B58 C1            [10] 3492 	pop	bc
   5B59 B7            [ 4] 3493 	or	a, a
   5B5A 28 22         [12] 3494 	jr	Z,00129$
   5B5C 1A            [ 7] 3495 	ld	a,(de)
   5B5D B7            [ 4] 3496 	or	a, a
   5B5E 28 1E         [12] 3497 	jr	Z,00129$
                           3498 ;src/main.c:425: y[0] -= 2;
   5B60 C6 FE         [ 7] 3499 	add	a,#0xFE
   5B62 12            [ 7] 3500 	ld	(de),a
                           3501 ;src/main.c:426: dir[0] = 8;
   5B63 DD 6E F6      [19] 3502 	ld	l,-10 (ix)
   5B66 DD 66 F7      [19] 3503 	ld	h,-9 (ix)
   5B69 36 08         [10] 3504 	ld	(hl),#0x08
                           3505 ;src/main.c:427: size[0] = 4;
   5B6B DD 6E FE      [19] 3506 	ld	l,-2 (ix)
   5B6E DD 66 FF      [19] 3507 	ld	h,-1 (ix)
   5B71 36 04         [10] 3508 	ld	(hl),#0x04
                           3509 ;src/main.c:428: s = gladis_arriba;
   5B73 DD 36 0C 40   [19] 3510 	ld	12 (ix),#<(_gladis_arriba)
   5B77 DD 36 0D 42   [19] 3511 	ld	13 (ix),#>(_gladis_arriba)
   5B7B C3 D3 5C      [10] 3512 	jp	00146$
   5B7E                    3513 00129$:
                           3514 ;src/main.c:429: }else if(cpct_isKeyPressed(Key_X) && arrow[0] == 0){
   5B7E C5            [11] 3515 	push	bc
   5B7F D5            [11] 3516 	push	de
   5B80 21 07 80      [10] 3517 	ld	hl,#0x8007
   5B83 CD 33 71      [17] 3518 	call	_cpct_isKeyPressed
   5B86 7D            [ 4] 3519 	ld	a,l
   5B87 D1            [10] 3520 	pop	de
   5B88 C1            [10] 3521 	pop	bc
   5B89 B7            [ 4] 3522 	or	a, a
   5B8A CA 88 5C      [10] 3523 	jp	Z,00125$
   5B8D DD 6E FC      [19] 3524 	ld	l,-4 (ix)
   5B90 DD 66 FD      [19] 3525 	ld	h,-3 (ix)
   5B93 7E            [ 7] 3526 	ld	a,(hl)
   5B94 B7            [ 4] 3527 	or	a, a
   5B95 C2 88 5C      [10] 3528 	jp	NZ,00125$
                           3529 ;src/main.c:430: if(bullets[0] > 0){
   5B98 DD 7E 10      [19] 3530 	ld	a,16 (ix)
   5B9B DD 77 F8      [19] 3531 	ld	-8 (ix),a
   5B9E DD 7E 11      [19] 3532 	ld	a,17 (ix)
   5BA1 DD 77 F9      [19] 3533 	ld	-7 (ix),a
   5BA4 DD 6E F8      [19] 3534 	ld	l,-8 (ix)
   5BA7 DD 66 F9      [19] 3535 	ld	h,-7 (ix)
   5BAA 7E            [ 7] 3536 	ld	a,(hl)
   5BAB B7            [ 4] 3537 	or	a, a
   5BAC CA 7E 5C      [10] 3538 	jp	Z,00118$
                           3539 ;src/main.c:432: u8 *spr = flecha_dcha,xs=2,ys=8,ox=x[0]+4;
   5BAF DD 36 FA CF   [19] 3540 	ld	-6 (ix),#<(_flecha_dcha)
   5BB3 DD 36 FB 70   [19] 3541 	ld	-5 (ix),#>(_flecha_dcha)
   5BB7 DD 36 F5 02   [19] 3542 	ld	-11 (ix),#0x02
   5BBB DD 36 F4 08   [19] 3543 	ld	-12 (ix),#0x08
   5BBF 0A            [ 7] 3544 	ld	a,(bc)
   5BC0 47            [ 4] 3545 	ld	b,a
   5BC1 C6 04         [ 7] 3546 	add	a, #0x04
   5BC3 DD 77 F3      [19] 3547 	ld	-13 (ix), a
   5BC6 4F            [ 4] 3548 	ld	c, a
                           3549 ;src/main.c:433: switch(dir[0]){
   5BC7 DD 6E F6      [19] 3550 	ld	l,-10 (ix)
   5BCA DD 66 F7      [19] 3551 	ld	h,-9 (ix)
   5BCD 66            [ 7] 3552 	ld	h,(hl)
   5BCE 7C            [ 4] 3553 	ld	a,h
   5BCF D6 02         [ 7] 3554 	sub	a, #0x02
   5BD1 28 3C         [12] 3555 	jr	Z,00114$
   5BD3 7C            [ 4] 3556 	ld	a,h
   5BD4 D6 04         [ 7] 3557 	sub	a, #0x04
   5BD6 28 21         [12] 3558 	jr	Z,00113$
   5BD8 7C            [ 4] 3559 	ld	a,h
   5BD9 D6 06         [ 7] 3560 	sub	a, #0x06
   5BDB 28 07         [12] 3561 	jr	Z,00112$
   5BDD 7C            [ 4] 3562 	ld	a,h
   5BDE D6 08         [ 7] 3563 	sub	a, #0x08
   5BE0 28 3F         [12] 3564 	jr	Z,00115$
   5BE2 18 4D         [12] 3565 	jr	00116$
                           3566 ;src/main.c:434: case 6: spr = flecha_dcha; xs=4;ys=4;ox=x[0]+4; break;
   5BE4                    3567 00112$:
   5BE4 DD 36 FA CF   [19] 3568 	ld	-6 (ix),#<(_flecha_dcha)
   5BE8 DD 36 FB 70   [19] 3569 	ld	-5 (ix),#>(_flecha_dcha)
   5BEC DD 36 F5 04   [19] 3570 	ld	-11 (ix),#0x04
   5BF0 DD 36 F4 04   [19] 3571 	ld	-12 (ix),#0x04
   5BF4 DD 4E F3      [19] 3572 	ld	c,-13 (ix)
   5BF7 18 38         [12] 3573 	jr	00116$
                           3574 ;src/main.c:435: case 4: spr = flecha_izda; xs=4;ys=4;ox=x[0]-4; break;
   5BF9                    3575 00113$:
   5BF9 DD 36 FA EF   [19] 3576 	ld	-6 (ix),#<(_flecha_izda)
   5BFD DD 36 FB 70   [19] 3577 	ld	-5 (ix),#>(_flecha_izda)
   5C01 DD 36 F5 04   [19] 3578 	ld	-11 (ix),#0x04
   5C05 DD 36 F4 04   [19] 3579 	ld	-12 (ix),#0x04
   5C09 78            [ 4] 3580 	ld	a,b
   5C0A C6 FC         [ 7] 3581 	add	a,#0xFC
   5C0C 4F            [ 4] 3582 	ld	c,a
   5C0D 18 22         [12] 3583 	jr	00116$
                           3584 ;src/main.c:436: case 2: spr = flecha_abajo; xs=2;ys=8; break;
   5C0F                    3585 00114$:
   5C0F DD 36 FA AF   [19] 3586 	ld	-6 (ix),#<(_flecha_abajo)
   5C13 DD 36 FB 70   [19] 3587 	ld	-5 (ix),#>(_flecha_abajo)
   5C17 DD 36 F5 02   [19] 3588 	ld	-11 (ix),#0x02
   5C1B DD 36 F4 08   [19] 3589 	ld	-12 (ix),#0x08
   5C1F 18 10         [12] 3590 	jr	00116$
                           3591 ;src/main.c:437: case 8: spr = flecha_arriba; xs=2;ys=8; break;
   5C21                    3592 00115$:
   5C21 DD 36 FA 8F   [19] 3593 	ld	-6 (ix),#<(_flecha_arriba)
   5C25 DD 36 FB 70   [19] 3594 	ld	-5 (ix),#>(_flecha_arriba)
   5C29 DD 36 F5 02   [19] 3595 	ld	-11 (ix),#0x02
   5C2D DD 36 F4 08   [19] 3596 	ld	-12 (ix),#0x08
                           3597 ;src/main.c:438: }
   5C31                    3598 00116$:
                           3599 ;src/main.c:439: object.x = ox;
   5C31 21 45 76      [10] 3600 	ld	hl,#_object+0
   5C34 71            [ 7] 3601 	ld	(hl),c
                           3602 ;src/main.c:440: object.y = y[0]+8;
   5C35 01 46 76      [10] 3603 	ld	bc,#_object + 1
   5C38 1A            [ 7] 3604 	ld	a,(de)
   5C39 C6 08         [ 7] 3605 	add	a, #0x08
   5C3B 02            [ 7] 3606 	ld	(bc),a
                           3607 ;src/main.c:441: object.x = object.x;
   5C3C 21 45 76      [10] 3608 	ld	hl, #_object + 0
   5C3F 56            [ 7] 3609 	ld	d,(hl)
   5C40 21 45 76      [10] 3610 	ld	hl,#_object
   5C43 72            [ 7] 3611 	ld	(hl),d
                           3612 ;src/main.c:442: object.y = object.y;
   5C44 02            [ 7] 3613 	ld	(bc),a
                           3614 ;src/main.c:443: object.sprite = spr;
   5C45 21 49 76      [10] 3615 	ld	hl,#_object + 4
   5C48 DD 7E FA      [19] 3616 	ld	a,-6 (ix)
   5C4B 77            [ 7] 3617 	ld	(hl),a
   5C4C 23            [ 6] 3618 	inc	hl
   5C4D DD 7E FB      [19] 3619 	ld	a,-5 (ix)
   5C50 77            [ 7] 3620 	ld	(hl),a
                           3621 ;src/main.c:444: object.vivo = 1;
   5C51 21 4B 76      [10] 3622 	ld	hl,#_object + 6
   5C54 36 01         [10] 3623 	ld	(hl),#0x01
                           3624 ;src/main.c:445: object.dir = dir[0];
   5C56 11 4C 76      [10] 3625 	ld	de,#_object + 7
   5C59 DD 6E F6      [19] 3626 	ld	l,-10 (ix)
   5C5C DD 66 F7      [19] 3627 	ld	h,-9 (ix)
   5C5F 7E            [ 7] 3628 	ld	a,(hl)
   5C60 12            [ 7] 3629 	ld	(de),a
                           3630 ;src/main.c:446: object.sizeX = xs;
   5C61 21 4D 76      [10] 3631 	ld	hl,#_object + 8
   5C64 DD 7E F5      [19] 3632 	ld	a,-11 (ix)
   5C67 77            [ 7] 3633 	ld	(hl),a
                           3634 ;src/main.c:447: object.sizeY = ys;
   5C68 21 4E 76      [10] 3635 	ld	hl,#_object + 9
   5C6B DD 7E F4      [19] 3636 	ld	a,-12 (ix)
   5C6E 77            [ 7] 3637 	ld	(hl),a
                           3638 ;src/main.c:448: bullets[0]--;
   5C6F DD 6E F8      [19] 3639 	ld	l,-8 (ix)
   5C72 DD 66 F9      [19] 3640 	ld	h,-7 (ix)
   5C75 56            [ 7] 3641 	ld	d,(hl)
   5C76 15            [ 4] 3642 	dec	d
   5C77 DD 6E F8      [19] 3643 	ld	l,-8 (ix)
   5C7A DD 66 F9      [19] 3644 	ld	h,-7 (ix)
   5C7D 72            [ 7] 3645 	ld	(hl),d
   5C7E                    3646 00118$:
                           3647 ;src/main.c:450: arrow[0]=1;
   5C7E DD 6E FC      [19] 3648 	ld	l,-4 (ix)
   5C81 DD 66 FD      [19] 3649 	ld	h,-3 (ix)
   5C84 36 01         [10] 3650 	ld	(hl),#0x01
   5C86 18 4B         [12] 3651 	jr	00146$
   5C88                    3652 00125$:
                           3653 ;src/main.c:452: switch(dir[0]){
   5C88 DD 6E F6      [19] 3654 	ld	l,-10 (ix)
   5C8B DD 66 F7      [19] 3655 	ld	h,-9 (ix)
   5C8E 66            [ 7] 3656 	ld	h,(hl)
   5C8F 7C            [ 4] 3657 	ld	a,h
   5C90 D6 02         [ 7] 3658 	sub	a, #0x02
   5C92 28 2F         [12] 3659 	jr	Z,00122$
   5C94 7C            [ 4] 3660 	ld	a,h
   5C95 D6 04         [ 7] 3661 	sub	a, #0x04
   5C97 28 0C         [12] 3662 	jr	Z,00119$
   5C99 7C            [ 4] 3663 	ld	a,h
   5C9A D6 06         [ 7] 3664 	sub	a, #0x06
   5C9C 28 11         [12] 3665 	jr	Z,00120$
   5C9E 7C            [ 4] 3666 	ld	a,h
   5C9F D6 08         [ 7] 3667 	sub	a, #0x08
   5CA1 28 16         [12] 3668 	jr	Z,00121$
   5CA3 18 26         [12] 3669 	jr	00123$
                           3670 ;src/main.c:453: case 4:
   5CA5                    3671 00119$:
                           3672 ;src/main.c:454: s = gladis_quieto_izda;
   5CA5 DD 36 0C 80   [19] 3673 	ld	12 (ix),#<(_gladis_quieto_izda)
   5CA9 DD 36 0D 40   [19] 3674 	ld	13 (ix),#>(_gladis_quieto_izda)
                           3675 ;src/main.c:455: break;
   5CAD 18 1C         [12] 3676 	jr	00123$
                           3677 ;src/main.c:456: case 6:
   5CAF                    3678 00120$:
                           3679 ;src/main.c:457: s = gladis_quieto_dcha;
   5CAF DD 36 0C 00   [19] 3680 	ld	12 (ix),#<(_gladis_quieto_dcha)
   5CB3 DD 36 0D 40   [19] 3681 	ld	13 (ix),#>(_gladis_quieto_dcha)
                           3682 ;src/main.c:458: break;
   5CB7 18 12         [12] 3683 	jr	00123$
                           3684 ;src/main.c:459: case 8:
   5CB9                    3685 00121$:
                           3686 ;src/main.c:460: s = gladis_arriba;
   5CB9 DD 36 0C 40   [19] 3687 	ld	12 (ix),#<(_gladis_arriba)
   5CBD DD 36 0D 42   [19] 3688 	ld	13 (ix),#>(_gladis_arriba)
                           3689 ;src/main.c:461: break;
   5CC1 18 08         [12] 3690 	jr	00123$
                           3691 ;src/main.c:462: case 2:
   5CC3                    3692 00122$:
                           3693 ;src/main.c:463: s = gladis_abajo;
   5CC3 DD 36 0C C0   [19] 3694 	ld	12 (ix),#<(_gladis_abajo)
   5CC7 DD 36 0D 42   [19] 3695 	ld	13 (ix),#>(_gladis_abajo)
                           3696 ;src/main.c:465: }
   5CCB                    3697 00123$:
                           3698 ;src/main.c:466: size[0] = 4;
   5CCB DD 6E FE      [19] 3699 	ld	l,-2 (ix)
   5CCE DD 66 FF      [19] 3700 	ld	h,-1 (ix)
   5CD1 36 04         [10] 3701 	ld	(hl),#0x04
   5CD3                    3702 00146$:
                           3703 ;src/main.c:471: if(cpct_isKeyPressed(Key_L)){
   5CD3 21 04 10      [10] 3704 	ld	hl,#0x1004
   5CD6 CD 33 71      [17] 3705 	call	_cpct_isKeyPressed
   5CD9 7D            [ 4] 3706 	ld	a,l
   5CDA B7            [ 4] 3707 	or	a, a
   5CDB 28 08         [12] 3708 	jr	Z,00149$
                           3709 ;src/main.c:472: arrow[0] = 0;
   5CDD DD 6E FC      [19] 3710 	ld	l,-4 (ix)
   5CE0 DD 66 FD      [19] 3711 	ld	h,-3 (ix)
   5CE3 36 00         [10] 3712 	ld	(hl),#0x00
   5CE5                    3713 00149$:
                           3714 ;src/main.c:474: if(cpct_isKeyPressed(Key_Esc)){
   5CE5 21 08 04      [10] 3715 	ld	hl,#0x0408
   5CE8 CD 33 71      [17] 3716 	call	_cpct_isKeyPressed
   5CEB 7D            [ 4] 3717 	ld	a,l
   5CEC B7            [ 4] 3718 	or	a, a
   5CED 28 08         [12] 3719 	jr	Z,00151$
                           3720 ;src/main.c:475: finish[0] = 1;
   5CEF DD 6E 12      [19] 3721 	ld	l,18 (ix)
   5CF2 DD 66 13      [19] 3722 	ld	h,19 (ix)
   5CF5 36 01         [10] 3723 	ld	(hl),#0x01
   5CF7                    3724 00151$:
                           3725 ;src/main.c:478: return s;
   5CF7 DD 6E 0C      [19] 3726 	ld	l,12 (ix)
   5CFA DD 66 0D      [19] 3727 	ld	h,13 (ix)
   5CFD DD F9         [10] 3728 	ld	sp, ix
   5CFF DD E1         [14] 3729 	pop	ix
   5D01 C9            [10] 3730 	ret
                           3731 ;src/main.c:481: void moveObject(){
                           3732 ;	---------------------------------
                           3733 ; Function moveObject
                           3734 ; ---------------------------------
   5D02                    3735 _moveObject::
                           3736 ;src/main.c:482: object.lx = object.x;
   5D02 01 45 76      [10] 3737 	ld	bc,#_object+0
   5D05 0A            [ 7] 3738 	ld	a,(bc)
   5D06 32 47 76      [13] 3739 	ld	(#(_object + 0x0002)),a
                           3740 ;src/main.c:483: object.ly = object.y;
   5D09 59            [ 4] 3741 	ld	e, c
   5D0A 50            [ 4] 3742 	ld	d, b
   5D0B 13            [ 6] 3743 	inc	de
   5D0C 1A            [ 7] 3744 	ld	a,(de)
   5D0D 32 48 76      [13] 3745 	ld	(#(_object + 0x0003)),a
                           3746 ;src/main.c:484: switch(object.dir){
   5D10 3A 4C 76      [13] 3747 	ld	a,(#_object + 7)
   5D13 FE 02         [ 7] 3748 	cp	a,#0x02
   5D15 28 16         [12] 3749 	jr	Z,00103$
   5D17 FE 04         [ 7] 3750 	cp	a,#0x04
   5D19 28 0D         [12] 3751 	jr	Z,00102$
   5D1B FE 06         [ 7] 3752 	cp	a,#0x06
   5D1D 28 05         [12] 3753 	jr	Z,00101$
   5D1F D6 08         [ 7] 3754 	sub	a, #0x08
   5D21 28 0F         [12] 3755 	jr	Z,00104$
   5D23 C9            [10] 3756 	ret
                           3757 ;src/main.c:485: case 6: object.x += 1; break;
   5D24                    3758 00101$:
   5D24 0A            [ 7] 3759 	ld	a,(bc)
   5D25 3C            [ 4] 3760 	inc	a
   5D26 02            [ 7] 3761 	ld	(bc),a
   5D27 C9            [10] 3762 	ret
                           3763 ;src/main.c:486: case 4: object.x -= 1; break;
   5D28                    3764 00102$:
   5D28 0A            [ 7] 3765 	ld	a,(bc)
   5D29 C6 FF         [ 7] 3766 	add	a,#0xFF
   5D2B 02            [ 7] 3767 	ld	(bc),a
   5D2C C9            [10] 3768 	ret
                           3769 ;src/main.c:487: case 2: object.y += 2; break;
   5D2D                    3770 00103$:
   5D2D 1A            [ 7] 3771 	ld	a,(de)
   5D2E C6 02         [ 7] 3772 	add	a, #0x02
   5D30 12            [ 7] 3773 	ld	(de),a
   5D31 C9            [10] 3774 	ret
                           3775 ;src/main.c:488: case 8: object.y -= 2; break;
   5D32                    3776 00104$:
   5D32 1A            [ 7] 3777 	ld	a,(de)
   5D33 C6 FE         [ 7] 3778 	add	a,#0xFE
   5D35 12            [ 7] 3779 	ld	(de),a
                           3780 ;src/main.c:489: }
   5D36 C9            [10] 3781 	ret
                           3782 ;src/main.c:495: u8 followPlayer(u8 px,u8 py,u8 *x,u8 *y,u8 lx,u8 ly,u8 *dir,u8 room,u8 sizeX,u8 sizeY){
                           3783 ;	---------------------------------
                           3784 ; Function followPlayer
                           3785 ; ---------------------------------
   5D37                    3786 _followPlayer::
   5D37 DD E5         [15] 3787 	push	ix
   5D39 DD 21 00 00   [14] 3788 	ld	ix,#0
   5D3D DD 39         [15] 3789 	add	ix,sp
   5D3F 21 F1 FF      [10] 3790 	ld	hl,#-15
   5D42 39            [11] 3791 	add	hl,sp
   5D43 F9            [ 6] 3792 	ld	sp,hl
                           3793 ;src/main.c:497: dir[0] = setDirection(px,py,x[0],y[0]);
   5D44 DD 4E 0C      [19] 3794 	ld	c,12 (ix)
   5D47 DD 46 0D      [19] 3795 	ld	b,13 (ix)
   5D4A DD 7E 08      [19] 3796 	ld	a,8 (ix)
   5D4D DD 77 FD      [19] 3797 	ld	-3 (ix),a
   5D50 DD 7E 09      [19] 3798 	ld	a,9 (ix)
   5D53 DD 77 FE      [19] 3799 	ld	-2 (ix),a
   5D56 DD 6E FD      [19] 3800 	ld	l,-3 (ix)
   5D59 DD 66 FE      [19] 3801 	ld	h,-2 (ix)
   5D5C 56            [ 7] 3802 	ld	d,(hl)
   5D5D DD 7E 06      [19] 3803 	ld	a,6 (ix)
   5D60 DD 77 F6      [19] 3804 	ld	-10 (ix),a
   5D63 DD 7E 07      [19] 3805 	ld	a,7 (ix)
   5D66 DD 77 F7      [19] 3806 	ld	-9 (ix),a
   5D69 DD 6E F6      [19] 3807 	ld	l,-10 (ix)
   5D6C DD 66 F7      [19] 3808 	ld	h,-9 (ix)
   5D6F 7E            [ 7] 3809 	ld	a,(hl)
   5D70 C5            [11] 3810 	push	bc
   5D71 D5            [11] 3811 	push	de
   5D72 33            [ 6] 3812 	inc	sp
   5D73 F5            [11] 3813 	push	af
   5D74 33            [ 6] 3814 	inc	sp
   5D75 DD 66 05      [19] 3815 	ld	h,5 (ix)
   5D78 DD 6E 04      [19] 3816 	ld	l,4 (ix)
   5D7B E5            [11] 3817 	push	hl
   5D7C CD 5B 49      [17] 3818 	call	_setDirection
   5D7F F1            [10] 3819 	pop	af
   5D80 F1            [10] 3820 	pop	af
   5D81 55            [ 4] 3821 	ld	d,l
   5D82 C1            [10] 3822 	pop	bc
   5D83 7A            [ 4] 3823 	ld	a,d
   5D84 02            [ 7] 3824 	ld	(bc),a
                           3825 ;src/main.c:498: movement(dir[0],&x[0],&y[0]);
   5D85 DD 6E FD      [19] 3826 	ld	l,-3 (ix)
   5D88 DD 66 FE      [19] 3827 	ld	h,-2 (ix)
   5D8B E5            [11] 3828 	push	hl
   5D8C DD 6E F6      [19] 3829 	ld	l,-10 (ix)
   5D8F DD 66 F7      [19] 3830 	ld	h,-9 (ix)
   5D92 E5            [11] 3831 	push	hl
   5D93 D5            [11] 3832 	push	de
   5D94 33            [ 6] 3833 	inc	sp
   5D95 CD 8C 49      [17] 3834 	call	_movement
   5D98 F1            [10] 3835 	pop	af
   5D99 F1            [10] 3836 	pop	af
   5D9A 33            [ 6] 3837 	inc	sp
                           3838 ;src/main.c:499: if(scene[(y[0])/tileheight][(x[0])/tilewidth] == 1
   5D9B DD 6E FD      [19] 3839 	ld	l,-3 (ix)
   5D9E DD 66 FE      [19] 3840 	ld	h,-2 (ix)
   5DA1 7E            [ 7] 3841 	ld	a,(hl)
   5DA2 DD 77 F8      [19] 3842 	ld	-8 (ix), a
   5DA5 07            [ 4] 3843 	rlca
   5DA6 07            [ 4] 3844 	rlca
   5DA7 07            [ 4] 3845 	rlca
   5DA8 07            [ 4] 3846 	rlca
   5DA9 E6 0F         [ 7] 3847 	and	a,#0x0F
   5DAB 4F            [ 4] 3848 	ld	c,a
   5DAC 06 00         [ 7] 3849 	ld	b,#0x00
   5DAE 69            [ 4] 3850 	ld	l, c
   5DAF 60            [ 4] 3851 	ld	h, b
   5DB0 29            [11] 3852 	add	hl, hl
   5DB1 29            [11] 3853 	add	hl, hl
   5DB2 09            [11] 3854 	add	hl, bc
   5DB3 29            [11] 3855 	add	hl, hl
   5DB4 29            [11] 3856 	add	hl, hl
   5DB5 3E 52         [ 7] 3857 	ld	a,#<(_scene)
   5DB7 85            [ 4] 3858 	add	a, l
   5DB8 DD 77 F1      [19] 3859 	ld	-15 (ix),a
   5DBB 3E 75         [ 7] 3860 	ld	a,#>(_scene)
   5DBD 8C            [ 4] 3861 	adc	a, h
   5DBE DD 77 F2      [19] 3862 	ld	-14 (ix),a
   5DC1 DD 6E F6      [19] 3863 	ld	l,-10 (ix)
   5DC4 DD 66 F7      [19] 3864 	ld	h,-9 (ix)
   5DC7 7E            [ 7] 3865 	ld	a,(hl)
   5DC8 DD 77 F5      [19] 3866 	ld	-11 (ix), a
   5DCB 0F            [ 4] 3867 	rrca
   5DCC 0F            [ 4] 3868 	rrca
   5DCD E6 3F         [ 7] 3869 	and	a,#0x3F
   5DCF DD 77 FF      [19] 3870 	ld	-1 (ix), a
   5DD2 DD 86 F1      [19] 3871 	add	a, -15 (ix)
   5DD5 6F            [ 4] 3872 	ld	l,a
   5DD6 3E 00         [ 7] 3873 	ld	a,#0x00
   5DD8 DD 8E F2      [19] 3874 	adc	a, -14 (ix)
   5DDB 67            [ 4] 3875 	ld	h,a
   5DDC 7E            [ 7] 3876 	ld	a,(hl)
   5DDD 3D            [ 4] 3877 	dec	a
   5DDE CA DC 5E      [10] 3878 	jp	Z,00101$
                           3879 ;src/main.c:500: || scene[(y[0])/tileheight][(x[0]+sizeX-1)/tilewidth] == 1
   5DE1 DD 6E F5      [19] 3880 	ld	l,-11 (ix)
   5DE4 26 00         [ 7] 3881 	ld	h,#0x00
   5DE6 DD 5E 0F      [19] 3882 	ld	e,15 (ix)
   5DE9 16 00         [ 7] 3883 	ld	d,#0x00
   5DEB 19            [11] 3884 	add	hl,de
   5DEC 7D            [ 4] 3885 	ld	a,l
   5DED C6 FF         [ 7] 3886 	add	a,#0xFF
   5DEF DD 77 F3      [19] 3887 	ld	-13 (ix),a
   5DF2 7C            [ 4] 3888 	ld	a,h
   5DF3 CE FF         [ 7] 3889 	adc	a,#0xFF
   5DF5 DD 77 F4      [19] 3890 	ld	-12 (ix),a
   5DF8 DD 7E F3      [19] 3891 	ld	a,-13 (ix)
   5DFB DD 77 FB      [19] 3892 	ld	-5 (ix),a
   5DFE DD 7E F4      [19] 3893 	ld	a,-12 (ix)
   5E01 DD 77 FC      [19] 3894 	ld	-4 (ix),a
   5E04 DD 7E F4      [19] 3895 	ld	a,-12 (ix)
   5E07 07            [ 4] 3896 	rlca
   5E08 E6 01         [ 7] 3897 	and	a,#0x01
   5E0A DD 77 F5      [19] 3898 	ld	-11 (ix),a
   5E0D 23            [ 6] 3899 	inc	hl
   5E0E 23            [ 6] 3900 	inc	hl
   5E0F DD 75 F9      [19] 3901 	ld	-7 (ix),l
   5E12 DD 74 FA      [19] 3902 	ld	-6 (ix),h
   5E15 DD 7E F5      [19] 3903 	ld	a,-11 (ix)
   5E18 B7            [ 4] 3904 	or	a, a
   5E19 28 0C         [12] 3905 	jr	Z,00108$
   5E1B DD 7E F9      [19] 3906 	ld	a,-7 (ix)
   5E1E DD 77 FB      [19] 3907 	ld	-5 (ix),a
   5E21 DD 7E FA      [19] 3908 	ld	a,-6 (ix)
   5E24 DD 77 FC      [19] 3909 	ld	-4 (ix),a
   5E27                    3910 00108$:
   5E27 DD 6E FB      [19] 3911 	ld	l,-5 (ix)
   5E2A DD 66 FC      [19] 3912 	ld	h,-4 (ix)
   5E2D CB 2C         [ 8] 3913 	sra	h
   5E2F CB 1D         [ 8] 3914 	rr	l
   5E31 CB 2C         [ 8] 3915 	sra	h
   5E33 CB 1D         [ 8] 3916 	rr	l
   5E35 D1            [10] 3917 	pop	de
   5E36 D5            [11] 3918 	push	de
   5E37 19            [11] 3919 	add	hl,de
   5E38 7E            [ 7] 3920 	ld	a,(hl)
   5E39 3D            [ 4] 3921 	dec	a
   5E3A CA DC 5E      [10] 3922 	jp	Z,00101$
                           3923 ;src/main.c:501: || scene[(y[0]+sizeY-2)/tileheight][(x[0])/tilewidth] == 1
   5E3D DD 6E F8      [19] 3924 	ld	l,-8 (ix)
   5E40 26 00         [ 7] 3925 	ld	h,#0x00
   5E42 DD 5E 10      [19] 3926 	ld	e,16 (ix)
   5E45 16 00         [ 7] 3927 	ld	d,#0x00
   5E47 19            [11] 3928 	add	hl,de
   5E48 4D            [ 4] 3929 	ld	c,l
   5E49 44            [ 4] 3930 	ld	b,h
   5E4A 0B            [ 6] 3931 	dec	bc
   5E4B 0B            [ 6] 3932 	dec	bc
   5E4C 59            [ 4] 3933 	ld	e, c
   5E4D 78            [ 4] 3934 	ld	a,b
   5E4E 57            [ 4] 3935 	ld	d,a
   5E4F 07            [ 4] 3936 	rlca
   5E50 E6 01         [ 7] 3937 	and	a,#0x01
   5E52 DD 77 FB      [19] 3938 	ld	-5 (ix),a
   5E55 7D            [ 4] 3939 	ld	a,l
   5E56 C6 0D         [ 7] 3940 	add	a, #0x0D
   5E58 DD 77 F1      [19] 3941 	ld	-15 (ix),a
   5E5B 7C            [ 4] 3942 	ld	a,h
   5E5C CE 00         [ 7] 3943 	adc	a, #0x00
   5E5E DD 77 F2      [19] 3944 	ld	-14 (ix),a
   5E61 DD 7E FB      [19] 3945 	ld	a,-5 (ix)
   5E64 B7            [ 4] 3946 	or	a, a
   5E65 28 02         [12] 3947 	jr	Z,00109$
   5E67 D1            [10] 3948 	pop	de
   5E68 D5            [11] 3949 	push	de
   5E69                    3950 00109$:
   5E69 CB 2A         [ 8] 3951 	sra	d
   5E6B CB 1B         [ 8] 3952 	rr	e
   5E6D CB 2A         [ 8] 3953 	sra	d
   5E6F CB 1B         [ 8] 3954 	rr	e
   5E71 CB 2A         [ 8] 3955 	sra	d
   5E73 CB 1B         [ 8] 3956 	rr	e
   5E75 CB 2A         [ 8] 3957 	sra	d
   5E77 CB 1B         [ 8] 3958 	rr	e
   5E79 6B            [ 4] 3959 	ld	l, e
   5E7A 62            [ 4] 3960 	ld	h, d
   5E7B 29            [11] 3961 	add	hl, hl
   5E7C 29            [11] 3962 	add	hl, hl
   5E7D 19            [11] 3963 	add	hl, de
   5E7E 29            [11] 3964 	add	hl, hl
   5E7F 29            [11] 3965 	add	hl, hl
   5E80 11 52 75      [10] 3966 	ld	de,#_scene
   5E83 19            [11] 3967 	add	hl,de
   5E84 DD 5E FF      [19] 3968 	ld	e,-1 (ix)
   5E87 16 00         [ 7] 3969 	ld	d,#0x00
   5E89 19            [11] 3970 	add	hl,de
   5E8A 7E            [ 7] 3971 	ld	a,(hl)
   5E8B 3D            [ 4] 3972 	dec	a
   5E8C 28 4E         [12] 3973 	jr	Z,00101$
                           3974 ;src/main.c:502: || scene[(y[0]+sizeY-2)/tileheight][(x[0]+sizeX-1)/tilewidth] == 1
   5E8E DD 7E FB      [19] 3975 	ld	a,-5 (ix)
   5E91 B7            [ 4] 3976 	or	a, a
   5E92 28 02         [12] 3977 	jr	Z,00110$
   5E94 C1            [10] 3978 	pop	bc
   5E95 C5            [11] 3979 	push	bc
   5E96                    3980 00110$:
   5E96 CB 28         [ 8] 3981 	sra	b
   5E98 CB 19         [ 8] 3982 	rr	c
   5E9A CB 28         [ 8] 3983 	sra	b
   5E9C CB 19         [ 8] 3984 	rr	c
   5E9E CB 28         [ 8] 3985 	sra	b
   5EA0 CB 19         [ 8] 3986 	rr	c
   5EA2 CB 28         [ 8] 3987 	sra	b
   5EA4 CB 19         [ 8] 3988 	rr	c
   5EA6 69            [ 4] 3989 	ld	l, c
   5EA7 60            [ 4] 3990 	ld	h, b
   5EA8 29            [11] 3991 	add	hl, hl
   5EA9 29            [11] 3992 	add	hl, hl
   5EAA 09            [11] 3993 	add	hl, bc
   5EAB 29            [11] 3994 	add	hl, hl
   5EAC 29            [11] 3995 	add	hl, hl
   5EAD 3E 52         [ 7] 3996 	ld	a,#<(_scene)
   5EAF 85            [ 4] 3997 	add	a, l
   5EB0 DD 77 FB      [19] 3998 	ld	-5 (ix),a
   5EB3 3E 75         [ 7] 3999 	ld	a,#>(_scene)
   5EB5 8C            [ 4] 4000 	adc	a, h
   5EB6 DD 77 FC      [19] 4001 	ld	-4 (ix),a
   5EB9 C1            [10] 4002 	pop	bc
   5EBA E1            [10] 4003 	pop	hl
   5EBB E5            [11] 4004 	push	hl
   5EBC C5            [11] 4005 	push	bc
   5EBD DD 7E F5      [19] 4006 	ld	a,-11 (ix)
   5EC0 B7            [ 4] 4007 	or	a, a
   5EC1 28 06         [12] 4008 	jr	Z,00111$
   5EC3 DD 6E F9      [19] 4009 	ld	l,-7 (ix)
   5EC6 DD 66 FA      [19] 4010 	ld	h,-6 (ix)
   5EC9                    4011 00111$:
   5EC9 CB 2C         [ 8] 4012 	sra	h
   5ECB CB 1D         [ 8] 4013 	rr	l
   5ECD CB 2C         [ 8] 4014 	sra	h
   5ECF CB 1D         [ 8] 4015 	rr	l
   5ED1 DD 5E FB      [19] 4016 	ld	e,-5 (ix)
   5ED4 DD 56 FC      [19] 4017 	ld	d,-4 (ix)
   5ED7 19            [11] 4018 	add	hl,de
   5ED8 7E            [ 7] 4019 	ld	a,(hl)
   5ED9 3D            [ 4] 4020 	dec	a
   5EDA 20 14         [12] 4021 	jr	NZ,00102$
   5EDC                    4022 00101$:
                           4023 ;src/main.c:504: *x=lx;
   5EDC DD 6E F6      [19] 4024 	ld	l,-10 (ix)
   5EDF DD 66 F7      [19] 4025 	ld	h,-9 (ix)
   5EE2 DD 7E 0A      [19] 4026 	ld	a,10 (ix)
   5EE5 77            [ 7] 4027 	ld	(hl),a
                           4028 ;src/main.c:505: *y=ly;
   5EE6 DD 6E FD      [19] 4029 	ld	l,-3 (ix)
   5EE9 DD 66 FE      [19] 4030 	ld	h,-2 (ix)
   5EEC DD 7E 0B      [19] 4031 	ld	a,11 (ix)
   5EEF 77            [ 7] 4032 	ld	(hl),a
   5EF0                    4033 00102$:
                           4034 ;src/main.c:508: return following;
   5EF0 2E 01         [ 7] 4035 	ld	l,#0x01
   5EF2 DD F9         [10] 4036 	ld	sp, ix
   5EF4 DD E1         [14] 4037 	pop	ix
   5EF6 C9            [10] 4038 	ret
                           4039 ;src/main.c:512: void patrol(u8 dir,u8 lx,u8 ly,u8 *x,u8 *y,u8 room,u8 sizeX,u8 sizeY){
                           4040 ;	---------------------------------
                           4041 ; Function patrol
                           4042 ; ---------------------------------
   5EF7                    4043 _patrol::
   5EF7 DD E5         [15] 4044 	push	ix
   5EF9 DD 21 00 00   [14] 4045 	ld	ix,#0
   5EFD DD 39         [15] 4046 	add	ix,sp
   5EFF 21 F1 FF      [10] 4047 	ld	hl,#-15
   5F02 39            [11] 4048 	add	hl,sp
   5F03 F9            [ 6] 4049 	ld	sp,hl
                           4050 ;src/main.c:515: movement(dir,&x[0],&y[0]);
   5F04 DD 7E 09      [19] 4051 	ld	a,9 (ix)
   5F07 DD 77 F5      [19] 4052 	ld	-11 (ix),a
   5F0A DD 7E 0A      [19] 4053 	ld	a,10 (ix)
   5F0D DD 77 F6      [19] 4054 	ld	-10 (ix),a
   5F10 DD 7E 07      [19] 4055 	ld	a,7 (ix)
   5F13 DD 77 FB      [19] 4056 	ld	-5 (ix),a
   5F16 DD 7E 08      [19] 4057 	ld	a,8 (ix)
   5F19 DD 77 FC      [19] 4058 	ld	-4 (ix),a
   5F1C DD 6E F5      [19] 4059 	ld	l,-11 (ix)
   5F1F DD 66 F6      [19] 4060 	ld	h,-10 (ix)
   5F22 E5            [11] 4061 	push	hl
   5F23 DD 6E FB      [19] 4062 	ld	l,-5 (ix)
   5F26 DD 66 FC      [19] 4063 	ld	h,-4 (ix)
   5F29 E5            [11] 4064 	push	hl
   5F2A DD 7E 04      [19] 4065 	ld	a,4 (ix)
   5F2D F5            [11] 4066 	push	af
   5F2E 33            [ 6] 4067 	inc	sp
   5F2F CD 8C 49      [17] 4068 	call	_movement
   5F32 F1            [10] 4069 	pop	af
   5F33 F1            [10] 4070 	pop	af
   5F34 33            [ 6] 4071 	inc	sp
                           4072 ;src/main.c:517: if(scene[(y[0])/tileheight][(x[0])/tilewidth] != room
   5F35 DD 6E F5      [19] 4073 	ld	l,-11 (ix)
   5F38 DD 66 F6      [19] 4074 	ld	h,-10 (ix)
   5F3B 7E            [ 7] 4075 	ld	a,(hl)
   5F3C DD 77 FD      [19] 4076 	ld	-3 (ix), a
   5F3F 07            [ 4] 4077 	rlca
   5F40 07            [ 4] 4078 	rlca
   5F41 07            [ 4] 4079 	rlca
   5F42 07            [ 4] 4080 	rlca
   5F43 E6 0F         [ 7] 4081 	and	a,#0x0F
   5F45 4F            [ 4] 4082 	ld	c,a
   5F46 06 00         [ 7] 4083 	ld	b,#0x00
   5F48 69            [ 4] 4084 	ld	l, c
   5F49 60            [ 4] 4085 	ld	h, b
   5F4A 29            [11] 4086 	add	hl, hl
   5F4B 29            [11] 4087 	add	hl, hl
   5F4C 09            [11] 4088 	add	hl, bc
   5F4D 29            [11] 4089 	add	hl, hl
   5F4E 29            [11] 4090 	add	hl, hl
   5F4F 3E 52         [ 7] 4091 	ld	a,#<(_scene)
   5F51 85            [ 4] 4092 	add	a, l
   5F52 DD 77 F2      [19] 4093 	ld	-14 (ix),a
   5F55 3E 75         [ 7] 4094 	ld	a,#>(_scene)
   5F57 8C            [ 4] 4095 	adc	a, h
   5F58 DD 77 F3      [19] 4096 	ld	-13 (ix),a
   5F5B DD 6E FB      [19] 4097 	ld	l,-5 (ix)
   5F5E DD 66 FC      [19] 4098 	ld	h,-4 (ix)
   5F61 7E            [ 7] 4099 	ld	a,(hl)
   5F62 DD 77 F4      [19] 4100 	ld	-12 (ix), a
   5F65 0F            [ 4] 4101 	rrca
   5F66 0F            [ 4] 4102 	rrca
   5F67 E6 3F         [ 7] 4103 	and	a,#0x3F
   5F69 DD 77 F1      [19] 4104 	ld	-15 (ix), a
   5F6C DD 86 F2      [19] 4105 	add	a, -14 (ix)
   5F6F 6F            [ 4] 4106 	ld	l,a
   5F70 3E 00         [ 7] 4107 	ld	a,#0x00
   5F72 DD 8E F3      [19] 4108 	adc	a, -13 (ix)
   5F75 67            [ 4] 4109 	ld	h,a
   5F76 DD 7E 0B      [19] 4110 	ld	a,11 (ix)
   5F79 96            [ 7] 4111 	sub	a,(hl)
   5F7A C2 8C 60      [10] 4112 	jp	NZ,00101$
                           4113 ;src/main.c:518: || scene[(y[0])/tileheight][(x[0]+sizeX-1)/tilewidth] != room
   5F7D DD 6E F4      [19] 4114 	ld	l,-12 (ix)
   5F80 26 00         [ 7] 4115 	ld	h,#0x00
   5F82 DD 5E 0C      [19] 4116 	ld	e,12 (ix)
   5F85 16 00         [ 7] 4117 	ld	d,#0x00
   5F87 19            [11] 4118 	add	hl,de
   5F88 7D            [ 4] 4119 	ld	a,l
   5F89 C6 FF         [ 7] 4120 	add	a,#0xFF
   5F8B DD 77 FE      [19] 4121 	ld	-2 (ix),a
   5F8E 7C            [ 4] 4122 	ld	a,h
   5F8F CE FF         [ 7] 4123 	adc	a,#0xFF
   5F91 DD 77 FF      [19] 4124 	ld	-1 (ix),a
   5F94 DD 7E FE      [19] 4125 	ld	a,-2 (ix)
   5F97 DD 77 F9      [19] 4126 	ld	-7 (ix),a
   5F9A DD 7E FF      [19] 4127 	ld	a,-1 (ix)
   5F9D DD 77 FA      [19] 4128 	ld	-6 (ix),a
   5FA0 DD 7E FF      [19] 4129 	ld	a,-1 (ix)
   5FA3 07            [ 4] 4130 	rlca
   5FA4 E6 01         [ 7] 4131 	and	a,#0x01
   5FA6 DD 77 F4      [19] 4132 	ld	-12 (ix),a
   5FA9 23            [ 6] 4133 	inc	hl
   5FAA 23            [ 6] 4134 	inc	hl
   5FAB DD 75 F7      [19] 4135 	ld	-9 (ix),l
   5FAE DD 74 F8      [19] 4136 	ld	-8 (ix),h
   5FB1 DD 7E F4      [19] 4137 	ld	a,-12 (ix)
   5FB4 B7            [ 4] 4138 	or	a, a
   5FB5 28 0C         [12] 4139 	jr	Z,00108$
   5FB7 DD 7E F7      [19] 4140 	ld	a,-9 (ix)
   5FBA DD 77 F9      [19] 4141 	ld	-7 (ix),a
   5FBD DD 7E F8      [19] 4142 	ld	a,-8 (ix)
   5FC0 DD 77 FA      [19] 4143 	ld	-6 (ix),a
   5FC3                    4144 00108$:
   5FC3 DD 6E F9      [19] 4145 	ld	l,-7 (ix)
   5FC6 DD 66 FA      [19] 4146 	ld	h,-6 (ix)
   5FC9 CB 2C         [ 8] 4147 	sra	h
   5FCB CB 1D         [ 8] 4148 	rr	l
   5FCD CB 2C         [ 8] 4149 	sra	h
   5FCF CB 1D         [ 8] 4150 	rr	l
   5FD1 DD 5E F2      [19] 4151 	ld	e,-14 (ix)
   5FD4 DD 56 F3      [19] 4152 	ld	d,-13 (ix)
   5FD7 19            [11] 4153 	add	hl,de
   5FD8 DD 7E 0B      [19] 4154 	ld	a,11 (ix)
   5FDB 96            [ 7] 4155 	sub	a,(hl)
   5FDC C2 8C 60      [10] 4156 	jp	NZ,00101$
                           4157 ;src/main.c:519: || scene[(y[0]+sizeY-2)/tileheight][(x[0])/tilewidth] != room
   5FDF DD 6E FD      [19] 4158 	ld	l,-3 (ix)
   5FE2 26 00         [ 7] 4159 	ld	h,#0x00
   5FE4 DD 5E 0D      [19] 4160 	ld	e,13 (ix)
   5FE7 16 00         [ 7] 4161 	ld	d,#0x00
   5FE9 19            [11] 4162 	add	hl,de
   5FEA 4D            [ 4] 4163 	ld	c,l
   5FEB 44            [ 4] 4164 	ld	b,h
   5FEC 0B            [ 6] 4165 	dec	bc
   5FED 0B            [ 6] 4166 	dec	bc
   5FEE 59            [ 4] 4167 	ld	e, c
   5FEF 78            [ 4] 4168 	ld	a,b
   5FF0 57            [ 4] 4169 	ld	d,a
   5FF1 07            [ 4] 4170 	rlca
   5FF2 E6 01         [ 7] 4171 	and	a,#0x01
   5FF4 DD 77 F9      [19] 4172 	ld	-7 (ix),a
   5FF7 7D            [ 4] 4173 	ld	a,l
   5FF8 C6 0D         [ 7] 4174 	add	a, #0x0D
   5FFA DD 77 F2      [19] 4175 	ld	-14 (ix),a
   5FFD 7C            [ 4] 4176 	ld	a,h
   5FFE CE 00         [ 7] 4177 	adc	a, #0x00
   6000 DD 77 F3      [19] 4178 	ld	-13 (ix),a
   6003 DD 7E F9      [19] 4179 	ld	a,-7 (ix)
   6006 B7            [ 4] 4180 	or	a, a
   6007 28 06         [12] 4181 	jr	Z,00109$
   6009 DD 5E F2      [19] 4182 	ld	e,-14 (ix)
   600C DD 56 F3      [19] 4183 	ld	d,-13 (ix)
   600F                    4184 00109$:
   600F CB 2A         [ 8] 4185 	sra	d
   6011 CB 1B         [ 8] 4186 	rr	e
   6013 CB 2A         [ 8] 4187 	sra	d
   6015 CB 1B         [ 8] 4188 	rr	e
   6017 CB 2A         [ 8] 4189 	sra	d
   6019 CB 1B         [ 8] 4190 	rr	e
   601B CB 2A         [ 8] 4191 	sra	d
   601D CB 1B         [ 8] 4192 	rr	e
   601F 6B            [ 4] 4193 	ld	l, e
   6020 62            [ 4] 4194 	ld	h, d
   6021 29            [11] 4195 	add	hl, hl
   6022 29            [11] 4196 	add	hl, hl
   6023 19            [11] 4197 	add	hl, de
   6024 29            [11] 4198 	add	hl, hl
   6025 29            [11] 4199 	add	hl, hl
   6026 11 52 75      [10] 4200 	ld	de,#_scene
   6029 19            [11] 4201 	add	hl,de
   602A DD 5E F1      [19] 4202 	ld	e,-15 (ix)
   602D 16 00         [ 7] 4203 	ld	d,#0x00
   602F 19            [11] 4204 	add	hl,de
   6030 DD 7E 0B      [19] 4205 	ld	a,11 (ix)
   6033 96            [ 7] 4206 	sub	a,(hl)
   6034 20 56         [12] 4207 	jr	NZ,00101$
                           4208 ;src/main.c:520: || scene[(y[0]+sizeY-2)/tileheight][(x[0]+sizeX-1)/tilewidth] != room
   6036 DD 7E F9      [19] 4209 	ld	a,-7 (ix)
   6039 B7            [ 4] 4210 	or	a, a
   603A 28 06         [12] 4211 	jr	Z,00110$
   603C DD 4E F2      [19] 4212 	ld	c,-14 (ix)
   603F DD 46 F3      [19] 4213 	ld	b,-13 (ix)
   6042                    4214 00110$:
   6042 CB 28         [ 8] 4215 	sra	b
   6044 CB 19         [ 8] 4216 	rr	c
   6046 CB 28         [ 8] 4217 	sra	b
   6048 CB 19         [ 8] 4218 	rr	c
   604A CB 28         [ 8] 4219 	sra	b
   604C CB 19         [ 8] 4220 	rr	c
   604E CB 28         [ 8] 4221 	sra	b
   6050 CB 19         [ 8] 4222 	rr	c
   6052 69            [ 4] 4223 	ld	l, c
   6053 60            [ 4] 4224 	ld	h, b
   6054 29            [11] 4225 	add	hl, hl
   6055 29            [11] 4226 	add	hl, hl
   6056 09            [11] 4227 	add	hl, bc
   6057 29            [11] 4228 	add	hl, hl
   6058 29            [11] 4229 	add	hl, hl
   6059 3E 52         [ 7] 4230 	ld	a,#<(_scene)
   605B 85            [ 4] 4231 	add	a, l
   605C DD 77 F9      [19] 4232 	ld	-7 (ix),a
   605F 3E 75         [ 7] 4233 	ld	a,#>(_scene)
   6061 8C            [ 4] 4234 	adc	a, h
   6062 DD 77 FA      [19] 4235 	ld	-6 (ix),a
   6065 DD 5E FE      [19] 4236 	ld	e,-2 (ix)
   6068 DD 56 FF      [19] 4237 	ld	d,-1 (ix)
   606B DD 7E F4      [19] 4238 	ld	a,-12 (ix)
   606E B7            [ 4] 4239 	or	a, a
   606F 28 06         [12] 4240 	jr	Z,00111$
   6071 DD 5E F7      [19] 4241 	ld	e,-9 (ix)
   6074 DD 56 F8      [19] 4242 	ld	d,-8 (ix)
   6077                    4243 00111$:
   6077 CB 2A         [ 8] 4244 	sra	d
   6079 CB 1B         [ 8] 4245 	rr	e
   607B CB 2A         [ 8] 4246 	sra	d
   607D CB 1B         [ 8] 4247 	rr	e
   607F DD 6E F9      [19] 4248 	ld	l,-7 (ix)
   6082 DD 66 FA      [19] 4249 	ld	h,-6 (ix)
   6085 19            [11] 4250 	add	hl,de
   6086 DD 7E 0B      [19] 4251 	ld	a,11 (ix)
   6089 96            [ 7] 4252 	sub	a,(hl)
   608A 28 14         [12] 4253 	jr	Z,00106$
   608C                    4254 00101$:
                           4255 ;src/main.c:522: *x=lx;
   608C DD 6E FB      [19] 4256 	ld	l,-5 (ix)
   608F DD 66 FC      [19] 4257 	ld	h,-4 (ix)
   6092 DD 7E 05      [19] 4258 	ld	a,5 (ix)
   6095 77            [ 7] 4259 	ld	(hl),a
                           4260 ;src/main.c:523: *y=ly;
   6096 DD 6E F5      [19] 4261 	ld	l,-11 (ix)
   6099 DD 66 F6      [19] 4262 	ld	h,-10 (ix)
   609C DD 7E 06      [19] 4263 	ld	a,6 (ix)
   609F 77            [ 7] 4264 	ld	(hl),a
   60A0                    4265 00106$:
   60A0 DD F9         [10] 4266 	ld	sp, ix
   60A2 DD E1         [14] 4267 	pop	ix
   60A4 C9            [10] 4268 	ret
                           4269 ;src/main.c:528: u8 vissionSensor(u8 x,u8 y,u8 px,u8 py){
                           4270 ;	---------------------------------
                           4271 ; Function vissionSensor
                           4272 ; ---------------------------------
   60A5                    4273 _vissionSensor::
   60A5 DD E5         [15] 4274 	push	ix
   60A7 DD 21 00 00   [14] 4275 	ld	ix,#0
   60AB DD 39         [15] 4276 	add	ix,sp
   60AD 21 F6 FF      [10] 4277 	ld	hl,#-10
   60B0 39            [11] 4278 	add	hl,sp
   60B1 F9            [ 6] 4279 	ld	sp,hl
                           4280 ;src/main.c:529: u8 following = 0;
   60B2 DD 36 FB 00   [19] 4281 	ld	-5 (ix),#0x00
                           4282 ;src/main.c:530: u8 cx = x/tilewidth;
   60B6 DD 7E 04      [19] 4283 	ld	a,4 (ix)
   60B9 0F            [ 4] 4284 	rrca
   60BA 0F            [ 4] 4285 	rrca
   60BB E6 3F         [ 7] 4286 	and	a,#0x3F
   60BD DD 77 FA      [19] 4287 	ld	-6 (ix),a
                           4288 ;src/main.c:531: u8 cy = y/tilewidth;
   60C0 DD 7E 05      [19] 4289 	ld	a,5 (ix)
   60C3 0F            [ 4] 4290 	rrca
   60C4 0F            [ 4] 4291 	rrca
   60C5 E6 3F         [ 7] 4292 	and	a,#0x3F
   60C7 DD 77 FD      [19] 4293 	ld	-3 (ix),a
                           4294 ;src/main.c:532: u8 pcx = px/tilewidth;
   60CA DD 7E 06      [19] 4295 	ld	a,6 (ix)
   60CD 0F            [ 4] 4296 	rrca
   60CE 0F            [ 4] 4297 	rrca
   60CF E6 3F         [ 7] 4298 	and	a,#0x3F
   60D1 DD 77 F9      [19] 4299 	ld	-7 (ix),a
                           4300 ;src/main.c:533: u8 pcy = py/tilewidth;
   60D4 DD 7E 07      [19] 4301 	ld	a,7 (ix)
   60D7 0F            [ 4] 4302 	rrca
   60D8 0F            [ 4] 4303 	rrca
   60D9 E6 3F         [ 7] 4304 	and	a,#0x3F
   60DB DD 77 FF      [19] 4305 	ld	-1 (ix),a
                           4306 ;src/main.c:536: for(i=0;i<3;i++){
   60DE DD 36 FC 00   [19] 4307 	ld	-4 (ix),#0x00
   60E2                    4308 00107$:
                           4309 ;src/main.c:537: lex = cx - i;
   60E2 DD 7E FA      [19] 4310 	ld	a,-6 (ix)
   60E5 DD 96 FC      [19] 4311 	sub	a, -4 (ix)
   60E8 DD 77 FE      [19] 4312 	ld	-2 (ix),a
                           4313 ;src/main.c:538: ley = cy - i;
   60EB DD 7E FD      [19] 4314 	ld	a,-3 (ix)
   60EE DD 96 FC      [19] 4315 	sub	a, -4 (ix)
   60F1 DD 77 F7      [19] 4316 	ld	-9 (ix),a
                           4317 ;src/main.c:539: mex = cx + i;
   60F4 DD 7E FA      [19] 4318 	ld	a,-6 (ix)
   60F7 DD 86 FC      [19] 4319 	add	a, -4 (ix)
   60FA DD 77 F8      [19] 4320 	ld	-8 (ix),a
                           4321 ;src/main.c:540: mey = cy + i;
   60FD DD 7E FD      [19] 4322 	ld	a,-3 (ix)
   6100 DD 86 FC      [19] 4323 	add	a, -4 (ix)
   6103 DD 77 F6      [19] 4324 	ld	-10 (ix), a
   6106 57            [ 4] 4325 	ld	d, a
                           4326 ;src/main.c:541: if(lex == pcx || ley == pcy || mex == pcx || mey == pcy){
   6107 DD 7E FE      [19] 4327 	ld	a,-2 (ix)
   610A DD 96 F9      [19] 4328 	sub	a, -7 (ix)
   610D 28 16         [12] 4329 	jr	Z,00101$
   610F DD 7E F7      [19] 4330 	ld	a,-9 (ix)
   6112 DD 96 FF      [19] 4331 	sub	a, -1 (ix)
   6115 28 0E         [12] 4332 	jr	Z,00101$
   6117 DD 7E F8      [19] 4333 	ld	a,-8 (ix)
   611A DD 96 F9      [19] 4334 	sub	a, -7 (ix)
   611D 28 06         [12] 4335 	jr	Z,00101$
   611F DD 7E FF      [19] 4336 	ld	a,-1 (ix)
   6122 92            [ 4] 4337 	sub	a, d
   6123 20 04         [12] 4338 	jr	NZ,00108$
   6125                    4339 00101$:
                           4340 ;src/main.c:542: following = 1;
   6125 DD 36 FB 01   [19] 4341 	ld	-5 (ix),#0x01
   6129                    4342 00108$:
                           4343 ;src/main.c:536: for(i=0;i<3;i++){
   6129 DD 34 FC      [23] 4344 	inc	-4 (ix)
   612C DD 7E FC      [19] 4345 	ld	a,-4 (ix)
   612F D6 03         [ 7] 4346 	sub	a, #0x03
   6131 38 AF         [12] 4347 	jr	C,00107$
                           4348 ;src/main.c:546: return following;
   6133 DD 6E FB      [19] 4349 	ld	l,-5 (ix)
   6136 DD F9         [10] 4350 	ld	sp, ix
   6138 DD E1         [14] 4351 	pop	ix
   613A C9            [10] 4352 	ret
                           4353 ;src/main.c:551: u8* move(u8 *x,u8 *y,u8 lx, u8 ly,u8 sizeX,u8 sizeY,u8 *dir,u8 *s,u8 room,u8 px,u8 py,u8 *following){
                           4354 ;	---------------------------------
                           4355 ; Function move
                           4356 ; ---------------------------------
   613B                    4357 _move::
   613B DD E5         [15] 4358 	push	ix
   613D DD 21 00 00   [14] 4359 	ld	ix,#0
   6141 DD 39         [15] 4360 	add	ix,sp
   6143 21 E9 FF      [10] 4361 	ld	hl,#-23
   6146 39            [11] 4362 	add	hl,sp
   6147 F9            [ 6] 4363 	ld	sp,hl
                           4364 ;src/main.c:552: u8 *sprite = s;
   6148 DD 7E 0E      [19] 4365 	ld	a,14 (ix)
   614B DD 77 E9      [19] 4366 	ld	-23 (ix),a
   614E DD 7E 0F      [19] 4367 	ld	a,15 (ix)
   6151 DD 77 EA      [19] 4368 	ld	-22 (ix),a
                           4369 ;src/main.c:555: dir[0] = chooseDirection(dir[0]);
   6154 DD 7E 0C      [19] 4370 	ld	a,12 (ix)
   6157 DD 77 F2      [19] 4371 	ld	-14 (ix),a
   615A DD 7E 0D      [19] 4372 	ld	a,13 (ix)
   615D DD 77 F3      [19] 4373 	ld	-13 (ix),a
                           4374 ;src/main.c:554: if(temp > 36){
   6160 3E 24         [ 7] 4375 	ld	a,#0x24
   6162 FD 21 42 76   [14] 4376 	ld	iy,#_temp
   6166 FD BE 00      [19] 4377 	cp	a, 0 (iy)
   6169 3E 00         [ 7] 4378 	ld	a,#0x00
   616B FD 21 42 76   [14] 4379 	ld	iy,#_temp
   616F FD 9E 01      [19] 4380 	sbc	a, 1 (iy)
   6172 E2 77 61      [10] 4381 	jp	PO, 00163$
   6175 EE 80         [ 7] 4382 	xor	a, #0x80
   6177                    4383 00163$:
   6177 F2 98 61      [10] 4384 	jp	P,00115$
                           4385 ;src/main.c:555: dir[0] = chooseDirection(dir[0]);
   617A DD 6E F2      [19] 4386 	ld	l,-14 (ix)
   617D DD 66 F3      [19] 4387 	ld	h,-13 (ix)
   6180 66            [ 7] 4388 	ld	h,(hl)
   6181 E5            [11] 4389 	push	hl
   6182 33            [ 6] 4390 	inc	sp
   6183 CD 1D 49      [17] 4391 	call	_chooseDirection
   6186 33            [ 6] 4392 	inc	sp
   6187 7D            [ 4] 4393 	ld	a,l
   6188 DD 6E F2      [19] 4394 	ld	l,-14 (ix)
   618B DD 66 F3      [19] 4395 	ld	h,-13 (ix)
   618E 77            [ 7] 4396 	ld	(hl),a
                           4397 ;src/main.c:556: temp = 0;
   618F 21 00 00      [10] 4398 	ld	hl,#0x0000
   6192 22 42 76      [16] 4399 	ld	(_temp),hl
   6195 C3 19 65      [10] 4400 	jp	00116$
   6198                    4401 00115$:
                           4402 ;src/main.c:559: if(temp%6== 0){
   6198 21 06 00      [10] 4403 	ld	hl,#0x0006
   619B E5            [11] 4404 	push	hl
   619C 2A 42 76      [16] 4405 	ld	hl,(_temp)
   619F E5            [11] 4406 	push	hl
   61A0 CD 50 74      [17] 4407 	call	__modsint
   61A3 F1            [10] 4408 	pop	af
   61A4 F1            [10] 4409 	pop	af
   61A5 7C            [ 4] 4410 	ld	a,h
   61A6 B5            [ 4] 4411 	or	a,l
   61A7 C2 19 65      [10] 4412 	jp	NZ,00116$
                           4413 ;src/main.c:560: detected = detectPlayerRoom(px,py,room);
   61AA DD 66 10      [19] 4414 	ld	h,16 (ix)
   61AD DD 6E 12      [19] 4415 	ld	l,18 (ix)
   61B0 E5            [11] 4416 	push	hl
   61B1 DD 7E 11      [19] 4417 	ld	a,17 (ix)
   61B4 F5            [11] 4418 	push	af
   61B5 33            [ 6] 4419 	inc	sp
   61B6 CD 00 47      [17] 4420 	call	_detectPlayerRoom
   61B9 F1            [10] 4421 	pop	af
   61BA 33            [ 6] 4422 	inc	sp
                           4423 ;src/main.c:562: if(following[0] == 1){
   61BB DD 7E 13      [19] 4424 	ld	a,19 (ix)
   61BE DD 77 F0      [19] 4425 	ld	-16 (ix),a
   61C1 DD 7E 14      [19] 4426 	ld	a,20 (ix)
   61C4 DD 77 F1      [19] 4427 	ld	-15 (ix),a
                           4428 ;src/main.c:563: followPlayer(px,py,&x[0],&y[0],lx,ly,&dir[0],room,sizeX,sizeY);
   61C7 DD 7E 06      [19] 4429 	ld	a,6 (ix)
   61CA DD 77 FD      [19] 4430 	ld	-3 (ix),a
   61CD DD 7E 07      [19] 4431 	ld	a,7 (ix)
   61D0 DD 77 FE      [19] 4432 	ld	-2 (ix),a
   61D3 DD 7E 04      [19] 4433 	ld	a,4 (ix)
   61D6 DD 77 EB      [19] 4434 	ld	-21 (ix),a
   61D9 DD 7E 05      [19] 4435 	ld	a,5 (ix)
   61DC DD 77 EC      [19] 4436 	ld	-20 (ix),a
                           4437 ;src/main.c:561: if(detected == 0){
   61DF 7D            [ 4] 4438 	ld	a,l
   61E0 B7            [ 4] 4439 	or	a, a
   61E1 C2 D7 64      [10] 4440 	jp	NZ,00110$
                           4441 ;src/main.c:562: if(following[0] == 1){
   61E4 DD 6E F0      [19] 4442 	ld	l,-16 (ix)
   61E7 DD 66 F1      [19] 4443 	ld	h,-15 (ix)
   61EA 7E            [ 7] 4444 	ld	a,(hl)
   61EB 3D            [ 4] 4445 	dec	a
   61EC 20 5E         [12] 4446 	jr	NZ,00107$
                           4447 ;src/main.c:563: followPlayer(px,py,&x[0],&y[0],lx,ly,&dir[0],room,sizeX,sizeY);
   61EE DD 66 0B      [19] 4448 	ld	h,11 (ix)
   61F1 DD 6E 0A      [19] 4449 	ld	l,10 (ix)
   61F4 E5            [11] 4450 	push	hl
   61F5 DD 7E 10      [19] 4451 	ld	a,16 (ix)
   61F8 F5            [11] 4452 	push	af
   61F9 33            [ 6] 4453 	inc	sp
   61FA DD 6E F2      [19] 4454 	ld	l,-14 (ix)
   61FD DD 66 F3      [19] 4455 	ld	h,-13 (ix)
   6200 E5            [11] 4456 	push	hl
   6201 DD 66 09      [19] 4457 	ld	h,9 (ix)
   6204 DD 6E 08      [19] 4458 	ld	l,8 (ix)
   6207 E5            [11] 4459 	push	hl
   6208 DD 6E FD      [19] 4460 	ld	l,-3 (ix)
   620B DD 66 FE      [19] 4461 	ld	h,-2 (ix)
   620E E5            [11] 4462 	push	hl
   620F DD 6E EB      [19] 4463 	ld	l,-21 (ix)
   6212 DD 66 EC      [19] 4464 	ld	h,-20 (ix)
   6215 E5            [11] 4465 	push	hl
   6216 DD 66 12      [19] 4466 	ld	h,18 (ix)
   6219 DD 6E 11      [19] 4467 	ld	l,17 (ix)
   621C E5            [11] 4468 	push	hl
   621D CD 37 5D      [17] 4469 	call	_followPlayer
   6220 21 0D 00      [10] 4470 	ld	hl,#13
   6223 39            [11] 4471 	add	hl,sp
   6224 F9            [ 6] 4472 	ld	sp,hl
                           4473 ;src/main.c:564: following[0] = vissionSensor(x[0],y[0],px,py);
   6225 DD 6E FD      [19] 4474 	ld	l,-3 (ix)
   6228 DD 66 FE      [19] 4475 	ld	h,-2 (ix)
   622B 46            [ 7] 4476 	ld	b,(hl)
   622C DD 6E EB      [19] 4477 	ld	l,-21 (ix)
   622F DD 66 EC      [19] 4478 	ld	h,-20 (ix)
   6232 56            [ 7] 4479 	ld	d,(hl)
   6233 DD 66 12      [19] 4480 	ld	h,18 (ix)
   6236 DD 6E 11      [19] 4481 	ld	l,17 (ix)
   6239 E5            [11] 4482 	push	hl
   623A 4A            [ 4] 4483 	ld	c, d
   623B C5            [11] 4484 	push	bc
   623C CD A5 60      [17] 4485 	call	_vissionSensor
   623F F1            [10] 4486 	pop	af
   6240 F1            [10] 4487 	pop	af
   6241 7D            [ 4] 4488 	ld	a,l
   6242 DD 6E F0      [19] 4489 	ld	l,-16 (ix)
   6245 DD 66 F1      [19] 4490 	ld	h,-15 (ix)
   6248 77            [ 7] 4491 	ld	(hl),a
   6249 C3 19 65      [10] 4492 	jp	00116$
   624C                    4493 00107$:
                           4494 ;src/main.c:566: if(scene[(y[0])/tileheight][(x[0]+sizeX-1)/tilewidth] != 0
   624C DD 6E FD      [19] 4495 	ld	l,-3 (ix)
   624F DD 66 FE      [19] 4496 	ld	h,-2 (ix)
   6252 7E            [ 7] 4497 	ld	a,(hl)
   6253 DD 77 FF      [19] 4498 	ld	-1 (ix), a
   6256 07            [ 4] 4499 	rlca
   6257 07            [ 4] 4500 	rlca
   6258 07            [ 4] 4501 	rlca
   6259 07            [ 4] 4502 	rlca
   625A E6 0F         [ 7] 4503 	and	a,#0x0F
   625C DD 77 EF      [19] 4504 	ld	-17 (ix), a
   625F 4F            [ 4] 4505 	ld	c, a
   6260 06 00         [ 7] 4506 	ld	b,#0x00
   6262 69            [ 4] 4507 	ld	l, c
   6263 60            [ 4] 4508 	ld	h, b
   6264 29            [11] 4509 	add	hl, hl
   6265 29            [11] 4510 	add	hl, hl
   6266 09            [11] 4511 	add	hl, bc
   6267 29            [11] 4512 	add	hl, hl
   6268 29            [11] 4513 	add	hl, hl
   6269 DD 75 F9      [19] 4514 	ld	-7 (ix),l
   626C DD 74 FA      [19] 4515 	ld	-6 (ix),h
   626F 3E 52         [ 7] 4516 	ld	a,#<(_scene)
   6271 DD 86 F9      [19] 4517 	add	a, -7 (ix)
   6274 DD 77 F9      [19] 4518 	ld	-7 (ix),a
   6277 3E 75         [ 7] 4519 	ld	a,#>(_scene)
   6279 DD 8E FA      [19] 4520 	adc	a, -6 (ix)
   627C DD 77 FA      [19] 4521 	ld	-6 (ix),a
   627F DD 6E EB      [19] 4522 	ld	l,-21 (ix)
   6282 DD 66 EC      [19] 4523 	ld	h,-20 (ix)
   6285 7E            [ 7] 4524 	ld	a,(hl)
   6286 DD 77 EF      [19] 4525 	ld	-17 (ix), a
   6289 DD 77 F4      [19] 4526 	ld	-12 (ix),a
   628C DD 36 F5 00   [19] 4527 	ld	-11 (ix),#0x00
   6290 DD 7E 0A      [19] 4528 	ld	a,10 (ix)
   6293 DD 77 ED      [19] 4529 	ld	-19 (ix),a
   6296 DD 36 EE 00   [19] 4530 	ld	-18 (ix),#0x00
   629A DD 7E F4      [19] 4531 	ld	a,-12 (ix)
   629D DD 86 ED      [19] 4532 	add	a, -19 (ix)
   62A0 DD 77 ED      [19] 4533 	ld	-19 (ix),a
   62A3 DD 7E F5      [19] 4534 	ld	a,-11 (ix)
   62A6 DD 8E EE      [19] 4535 	adc	a, -18 (ix)
   62A9 DD 77 EE      [19] 4536 	ld	-18 (ix),a
   62AC DD 7E ED      [19] 4537 	ld	a,-19 (ix)
   62AF C6 FF         [ 7] 4538 	add	a,#0xFF
   62B1 DD 77 F4      [19] 4539 	ld	-12 (ix),a
   62B4 DD 7E EE      [19] 4540 	ld	a,-18 (ix)
   62B7 CE FF         [ 7] 4541 	adc	a,#0xFF
   62B9 DD 77 F5      [19] 4542 	ld	-11 (ix),a
   62BC DD 7E F4      [19] 4543 	ld	a,-12 (ix)
   62BF DD 77 F7      [19] 4544 	ld	-9 (ix),a
   62C2 DD 7E F5      [19] 4545 	ld	a,-11 (ix)
   62C5 DD 77 F8      [19] 4546 	ld	-8 (ix),a
   62C8 DD 7E F5      [19] 4547 	ld	a,-11 (ix)
   62CB 07            [ 4] 4548 	rlca
   62CC E6 01         [ 7] 4549 	and	a,#0x01
   62CE DD 77 F6      [19] 4550 	ld	-10 (ix),a
   62D1 DD 7E ED      [19] 4551 	ld	a,-19 (ix)
   62D4 C6 02         [ 7] 4552 	add	a, #0x02
   62D6 DD 77 ED      [19] 4553 	ld	-19 (ix),a
   62D9 DD 7E EE      [19] 4554 	ld	a,-18 (ix)
   62DC CE 00         [ 7] 4555 	adc	a, #0x00
   62DE DD 77 EE      [19] 4556 	ld	-18 (ix),a
   62E1 DD 7E F6      [19] 4557 	ld	a,-10 (ix)
   62E4 B7            [ 4] 4558 	or	a, a
   62E5 28 0C         [12] 4559 	jr	Z,00119$
   62E7 DD 7E ED      [19] 4560 	ld	a,-19 (ix)
   62EA DD 77 F7      [19] 4561 	ld	-9 (ix),a
   62ED DD 7E EE      [19] 4562 	ld	a,-18 (ix)
   62F0 DD 77 F8      [19] 4563 	ld	-8 (ix),a
   62F3                    4564 00119$:
   62F3 DD 6E F7      [19] 4565 	ld	l,-9 (ix)
   62F6 DD 66 F8      [19] 4566 	ld	h,-8 (ix)
   62F9 CB 2C         [ 8] 4567 	sra	h
   62FB CB 1D         [ 8] 4568 	rr	l
   62FD CB 2C         [ 8] 4569 	sra	h
   62FF CB 1D         [ 8] 4570 	rr	l
   6301 DD 5E F9      [19] 4571 	ld	e,-7 (ix)
   6304 DD 56 FA      [19] 4572 	ld	d,-6 (ix)
   6307 19            [11] 4573 	add	hl,de
   6308 7E            [ 7] 4574 	ld	a,(hl)
   6309 B7            [ 4] 4575 	or	a, a
   630A C2 91 64      [10] 4576 	jp	NZ,00101$
                           4577 ;src/main.c:567: || scene[(y[0]+sizeY-2)/tileheight][(x[0])/tilewidth] != 0
   630D DD 7E FF      [19] 4578 	ld	a,-1 (ix)
   6310 DD 77 F7      [19] 4579 	ld	-9 (ix),a
   6313 DD 36 F8 00   [19] 4580 	ld	-8 (ix),#0x00
   6317 DD 7E 0B      [19] 4581 	ld	a,11 (ix)
   631A DD 77 F9      [19] 4582 	ld	-7 (ix),a
   631D DD 36 FA 00   [19] 4583 	ld	-6 (ix),#0x00
   6321 DD 7E F7      [19] 4584 	ld	a,-9 (ix)
   6324 DD 86 F9      [19] 4585 	add	a, -7 (ix)
   6327 DD 77 F7      [19] 4586 	ld	-9 (ix),a
   632A DD 7E F8      [19] 4587 	ld	a,-8 (ix)
   632D DD 8E FA      [19] 4588 	adc	a, -6 (ix)
   6330 DD 77 F8      [19] 4589 	ld	-8 (ix),a
   6333 DD 7E F7      [19] 4590 	ld	a,-9 (ix)
   6336 C6 FE         [ 7] 4591 	add	a,#0xFE
   6338 DD 77 F9      [19] 4592 	ld	-7 (ix),a
   633B DD 7E F8      [19] 4593 	ld	a,-8 (ix)
   633E CE FF         [ 7] 4594 	adc	a,#0xFF
   6340 DD 77 FA      [19] 4595 	ld	-6 (ix),a
   6343 DD 7E F9      [19] 4596 	ld	a,-7 (ix)
   6346 DD 77 FB      [19] 4597 	ld	-5 (ix),a
   6349 DD 7E FA      [19] 4598 	ld	a,-6 (ix)
   634C DD 77 FC      [19] 4599 	ld	-4 (ix),a
   634F DD 7E FA      [19] 4600 	ld	a,-6 (ix)
   6352 07            [ 4] 4601 	rlca
   6353 E6 01         [ 7] 4602 	and	a,#0x01
   6355 DD 77 FF      [19] 4603 	ld	-1 (ix),a
   6358 DD 7E F7      [19] 4604 	ld	a,-9 (ix)
   635B C6 0D         [ 7] 4605 	add	a, #0x0D
   635D DD 77 F7      [19] 4606 	ld	-9 (ix),a
   6360 DD 7E F8      [19] 4607 	ld	a,-8 (ix)
   6363 CE 00         [ 7] 4608 	adc	a, #0x00
   6365 DD 77 F8      [19] 4609 	ld	-8 (ix),a
   6368 DD 7E FF      [19] 4610 	ld	a,-1 (ix)
   636B B7            [ 4] 4611 	or	a, a
   636C 28 0C         [12] 4612 	jr	Z,00120$
   636E DD 7E F7      [19] 4613 	ld	a,-9 (ix)
   6371 DD 77 FB      [19] 4614 	ld	-5 (ix),a
   6374 DD 7E F8      [19] 4615 	ld	a,-8 (ix)
   6377 DD 77 FC      [19] 4616 	ld	-4 (ix),a
   637A                    4617 00120$:
   637A DD CB FC 2E   [23] 4618 	sra	-4 (ix)
   637E DD CB FB 1E   [23] 4619 	rr	-5 (ix)
   6382 DD CB FC 2E   [23] 4620 	sra	-4 (ix)
   6386 DD CB FB 1E   [23] 4621 	rr	-5 (ix)
   638A DD CB FC 2E   [23] 4622 	sra	-4 (ix)
   638E DD CB FB 1E   [23] 4623 	rr	-5 (ix)
   6392 DD CB FC 2E   [23] 4624 	sra	-4 (ix)
   6396 DD CB FB 1E   [23] 4625 	rr	-5 (ix)
   639A DD 4E FB      [19] 4626 	ld	c,-5 (ix)
   639D DD 46 FC      [19] 4627 	ld	b,-4 (ix)
   63A0 69            [ 4] 4628 	ld	l, c
   63A1 60            [ 4] 4629 	ld	h, b
   63A2 29            [11] 4630 	add	hl, hl
   63A3 29            [11] 4631 	add	hl, hl
   63A4 09            [11] 4632 	add	hl, bc
   63A5 29            [11] 4633 	add	hl, hl
   63A6 29            [11] 4634 	add	hl, hl
   63A7 DD 75 FB      [19] 4635 	ld	-5 (ix),l
   63AA DD 74 FC      [19] 4636 	ld	-4 (ix),h
   63AD DD 7E FB      [19] 4637 	ld	a,-5 (ix)
   63B0 C6 52         [ 7] 4638 	add	a, #<(_scene)
   63B2 DD 77 FB      [19] 4639 	ld	-5 (ix),a
   63B5 DD 7E FC      [19] 4640 	ld	a,-4 (ix)
   63B8 CE 75         [ 7] 4641 	adc	a, #>(_scene)
   63BA DD 77 FC      [19] 4642 	ld	-4 (ix),a
   63BD DD 7E EF      [19] 4643 	ld	a,-17 (ix)
   63C0 0F            [ 4] 4644 	rrca
   63C1 0F            [ 4] 4645 	rrca
   63C2 E6 3F         [ 7] 4646 	and	a,#0x3F
   63C4 DD 77 EF      [19] 4647 	ld	-17 (ix), a
   63C7 DD 86 FB      [19] 4648 	add	a, -5 (ix)
   63CA DD 77 FB      [19] 4649 	ld	-5 (ix),a
   63CD 3E 00         [ 7] 4650 	ld	a,#0x00
   63CF DD 8E FC      [19] 4651 	adc	a, -4 (ix)
   63D2 DD 77 FC      [19] 4652 	ld	-4 (ix),a
   63D5 DD 6E FB      [19] 4653 	ld	l,-5 (ix)
   63D8 DD 66 FC      [19] 4654 	ld	h,-4 (ix)
   63DB 7E            [ 7] 4655 	ld	a,(hl)
   63DC DD 77 FB      [19] 4656 	ld	-5 (ix), a
   63DF B7            [ 4] 4657 	or	a, a
   63E0 C2 91 64      [10] 4658 	jp	NZ,00101$
                           4659 ;src/main.c:568: || scene[(y[0]+sizeY-2)/tileheight][(x[0]+sizeX-1)/tilewidth] != 0){
   63E3 DD 7E F9      [19] 4660 	ld	a,-7 (ix)
   63E6 DD 77 FB      [19] 4661 	ld	-5 (ix),a
   63E9 DD 7E FA      [19] 4662 	ld	a,-6 (ix)
   63EC DD 77 FC      [19] 4663 	ld	-4 (ix),a
   63EF DD 7E FF      [19] 4664 	ld	a,-1 (ix)
   63F2 B7            [ 4] 4665 	or	a, a
   63F3 28 0C         [12] 4666 	jr	Z,00121$
   63F5 DD 7E F7      [19] 4667 	ld	a,-9 (ix)
   63F8 DD 77 FB      [19] 4668 	ld	-5 (ix),a
   63FB DD 7E F8      [19] 4669 	ld	a,-8 (ix)
   63FE DD 77 FC      [19] 4670 	ld	-4 (ix),a
   6401                    4671 00121$:
   6401 DD CB FC 2E   [23] 4672 	sra	-4 (ix)
   6405 DD CB FB 1E   [23] 4673 	rr	-5 (ix)
   6409 DD CB FC 2E   [23] 4674 	sra	-4 (ix)
   640D DD CB FB 1E   [23] 4675 	rr	-5 (ix)
   6411 DD CB FC 2E   [23] 4676 	sra	-4 (ix)
   6415 DD CB FB 1E   [23] 4677 	rr	-5 (ix)
   6419 DD CB FC 2E   [23] 4678 	sra	-4 (ix)
   641D DD CB FB 1E   [23] 4679 	rr	-5 (ix)
   6421 DD 4E FB      [19] 4680 	ld	c,-5 (ix)
   6424 DD 46 FC      [19] 4681 	ld	b,-4 (ix)
   6427 69            [ 4] 4682 	ld	l, c
   6428 60            [ 4] 4683 	ld	h, b
   6429 29            [11] 4684 	add	hl, hl
   642A 29            [11] 4685 	add	hl, hl
   642B 09            [11] 4686 	add	hl, bc
   642C 29            [11] 4687 	add	hl, hl
   642D 29            [11] 4688 	add	hl, hl
   642E DD 75 FB      [19] 4689 	ld	-5 (ix),l
   6431 DD 74 FC      [19] 4690 	ld	-4 (ix),h
   6434 3E 52         [ 7] 4691 	ld	a,#<(_scene)
   6436 DD 86 FB      [19] 4692 	add	a, -5 (ix)
   6439 DD 77 FB      [19] 4693 	ld	-5 (ix),a
   643C 3E 75         [ 7] 4694 	ld	a,#>(_scene)
   643E DD 8E FC      [19] 4695 	adc	a, -4 (ix)
   6441 DD 77 FC      [19] 4696 	ld	-4 (ix),a
   6444 DD 7E F4      [19] 4697 	ld	a,-12 (ix)
   6447 DD 77 F7      [19] 4698 	ld	-9 (ix),a
   644A DD 7E F5      [19] 4699 	ld	a,-11 (ix)
   644D DD 77 F8      [19] 4700 	ld	-8 (ix),a
   6450 DD 7E F6      [19] 4701 	ld	a,-10 (ix)
   6453 B7            [ 4] 4702 	or	a, a
   6454 28 0C         [12] 4703 	jr	Z,00122$
   6456 DD 7E ED      [19] 4704 	ld	a,-19 (ix)
   6459 DD 77 F7      [19] 4705 	ld	-9 (ix),a
   645C DD 7E EE      [19] 4706 	ld	a,-18 (ix)
   645F DD 77 F8      [19] 4707 	ld	-8 (ix),a
   6462                    4708 00122$:
   6462 DD CB F8 2E   [23] 4709 	sra	-8 (ix)
   6466 DD CB F7 1E   [23] 4710 	rr	-9 (ix)
   646A DD CB F8 2E   [23] 4711 	sra	-8 (ix)
   646E DD CB F7 1E   [23] 4712 	rr	-9 (ix)
   6472 DD 7E F7      [19] 4713 	ld	a,-9 (ix)
   6475 DD 86 FB      [19] 4714 	add	a, -5 (ix)
   6478 DD 77 FB      [19] 4715 	ld	-5 (ix),a
   647B DD 7E F8      [19] 4716 	ld	a,-8 (ix)
   647E DD 8E FC      [19] 4717 	adc	a, -4 (ix)
   6481 DD 77 FC      [19] 4718 	ld	-4 (ix),a
   6484 DD 6E FB      [19] 4719 	ld	l,-5 (ix)
   6487 DD 66 FC      [19] 4720 	ld	h,-4 (ix)
   648A 7E            [ 7] 4721 	ld	a,(hl)
   648B DD 77 FB      [19] 4722 	ld	-5 (ix), a
   648E B7            [ 4] 4723 	or	a, a
   648F 28 34         [12] 4724 	jr	Z,00102$
   6491                    4725 00101$:
                           4726 ;src/main.c:569: patrol(dir[0],lx,ly,&x[0],&y[0],room,sizeX,sizeY);
   6491 DD 6E F2      [19] 4727 	ld	l,-14 (ix)
   6494 DD 66 F3      [19] 4728 	ld	h,-13 (ix)
   6497 56            [ 7] 4729 	ld	d,(hl)
   6498 DD 66 0B      [19] 4730 	ld	h,11 (ix)
   649B DD 6E 0A      [19] 4731 	ld	l,10 (ix)
   649E E5            [11] 4732 	push	hl
   649F DD 7E 10      [19] 4733 	ld	a,16 (ix)
   64A2 F5            [11] 4734 	push	af
   64A3 33            [ 6] 4735 	inc	sp
   64A4 DD 6E FD      [19] 4736 	ld	l,-3 (ix)
   64A7 DD 66 FE      [19] 4737 	ld	h,-2 (ix)
   64AA E5            [11] 4738 	push	hl
   64AB DD 6E EB      [19] 4739 	ld	l,-21 (ix)
   64AE DD 66 EC      [19] 4740 	ld	h,-20 (ix)
   64B1 E5            [11] 4741 	push	hl
   64B2 DD 66 09      [19] 4742 	ld	h,9 (ix)
   64B5 DD 6E 08      [19] 4743 	ld	l,8 (ix)
   64B8 E5            [11] 4744 	push	hl
   64B9 D5            [11] 4745 	push	de
   64BA 33            [ 6] 4746 	inc	sp
   64BB CD F7 5E      [17] 4747 	call	_patrol
   64BE 21 0A 00      [10] 4748 	ld	hl,#10
   64C1 39            [11] 4749 	add	hl,sp
   64C2 F9            [ 6] 4750 	ld	sp,hl
   64C3 18 54         [12] 4751 	jr	00116$
   64C5                    4752 00102$:
                           4753 ;src/main.c:573: x[0] = 52;
   64C5 DD 6E EB      [19] 4754 	ld	l,-21 (ix)
   64C8 DD 66 EC      [19] 4755 	ld	h,-20 (ix)
   64CB 36 34         [10] 4756 	ld	(hl),#0x34
                           4757 ;src/main.c:574: y[0] = 80;
   64CD DD 6E FD      [19] 4758 	ld	l,-3 (ix)
   64D0 DD 66 FE      [19] 4759 	ld	h,-2 (ix)
   64D3 36 50         [10] 4760 	ld	(hl),#0x50
   64D5 18 42         [12] 4761 	jr	00116$
   64D7                    4762 00110$:
                           4763 ;src/main.c:582: following[0] = followPlayer(px,py,&x[0],&y[0],lx,ly,&dir[0],room,sizeX,sizeY);
   64D7 DD 66 0B      [19] 4764 	ld	h,11 (ix)
   64DA DD 6E 0A      [19] 4765 	ld	l,10 (ix)
   64DD E5            [11] 4766 	push	hl
   64DE DD 7E 10      [19] 4767 	ld	a,16 (ix)
   64E1 F5            [11] 4768 	push	af
   64E2 33            [ 6] 4769 	inc	sp
   64E3 DD 6E F2      [19] 4770 	ld	l,-14 (ix)
   64E6 DD 66 F3      [19] 4771 	ld	h,-13 (ix)
   64E9 E5            [11] 4772 	push	hl
   64EA DD 66 09      [19] 4773 	ld	h,9 (ix)
   64ED DD 6E 08      [19] 4774 	ld	l,8 (ix)
   64F0 E5            [11] 4775 	push	hl
   64F1 DD 6E FD      [19] 4776 	ld	l,-3 (ix)
   64F4 DD 66 FE      [19] 4777 	ld	h,-2 (ix)
   64F7 E5            [11] 4778 	push	hl
   64F8 DD 6E EB      [19] 4779 	ld	l,-21 (ix)
   64FB DD 66 EC      [19] 4780 	ld	h,-20 (ix)
   64FE E5            [11] 4781 	push	hl
   64FF DD 66 12      [19] 4782 	ld	h,18 (ix)
   6502 DD 6E 11      [19] 4783 	ld	l,17 (ix)
   6505 E5            [11] 4784 	push	hl
   6506 CD 37 5D      [17] 4785 	call	_followPlayer
   6509 FD 21 0D 00   [14] 4786 	ld	iy,#13
   650D FD 39         [15] 4787 	add	iy,sp
   650F FD F9         [10] 4788 	ld	sp,iy
   6511 7D            [ 4] 4789 	ld	a,l
   6512 DD 6E F0      [19] 4790 	ld	l,-16 (ix)
   6515 DD 66 F1      [19] 4791 	ld	h,-15 (ix)
   6518 77            [ 7] 4792 	ld	(hl),a
   6519                    4793 00116$:
                           4794 ;src/main.c:587: temp += 2;
   6519 21 42 76      [10] 4795 	ld	hl,#_temp
   651C 7E            [ 7] 4796 	ld	a,(hl)
   651D C6 02         [ 7] 4797 	add	a, #0x02
   651F 77            [ 7] 4798 	ld	(hl),a
   6520 23            [ 6] 4799 	inc	hl
   6521 7E            [ 7] 4800 	ld	a,(hl)
   6522 CE 00         [ 7] 4801 	adc	a, #0x00
   6524 77            [ 7] 4802 	ld	(hl),a
                           4803 ;src/main.c:588: return sprite;
   6525 E1            [10] 4804 	pop	hl
   6526 E5            [11] 4805 	push	hl
   6527 DD F9         [10] 4806 	ld	sp, ix
   6529 DD E1         [14] 4807 	pop	ix
   652B C9            [10] 4808 	ret
                           4809 ;src/main.c:595: void game(){
                           4810 ;	---------------------------------
                           4811 ; Function game
                           4812 ; ---------------------------------
   652C                    4813 _game::
   652C DD E5         [15] 4814 	push	ix
   652E DD 21 00 00   [14] 4815 	ld	ix,#0
   6532 DD 39         [15] 4816 	add	ix,sp
   6534 21 7B FF      [10] 4817 	ld	hl,#-133
   6537 39            [11] 4818 	add	hl,sp
   6538 F9            [ 6] 4819 	ld	sp,hl
                           4820 ;src/main.c:596: TPlayer p = {0,80,0,80,gladis_quieto_dcha,3,6,4,16,4,20,20,3,0,0};
   6539 21 03 00      [10] 4821 	ld	hl,#0x0003
   653C 39            [11] 4822 	add	hl,sp
   653D 36 00         [10] 4823 	ld	(hl),#0x00
   653F 21 03 00      [10] 4824 	ld	hl,#0x0003
   6542 39            [11] 4825 	add	hl,sp
   6543 DD 75 BF      [19] 4826 	ld	-65 (ix),l
   6546 DD 74 C0      [19] 4827 	ld	-64 (ix),h
   6549 DD 7E BF      [19] 4828 	ld	a,-65 (ix)
   654C C6 01         [ 7] 4829 	add	a, #0x01
   654E DD 77 FE      [19] 4830 	ld	-2 (ix),a
   6551 DD 7E C0      [19] 4831 	ld	a,-64 (ix)
   6554 CE 00         [ 7] 4832 	adc	a, #0x00
   6556 DD 77 FF      [19] 4833 	ld	-1 (ix),a
   6559 DD 6E FE      [19] 4834 	ld	l,-2 (ix)
   655C DD 66 FF      [19] 4835 	ld	h,-1 (ix)
   655F 36 50         [10] 4836 	ld	(hl),#0x50
   6561 DD 7E BF      [19] 4837 	ld	a,-65 (ix)
   6564 C6 02         [ 7] 4838 	add	a, #0x02
   6566 DD 77 DF      [19] 4839 	ld	-33 (ix),a
   6569 DD 7E C0      [19] 4840 	ld	a,-64 (ix)
   656C CE 00         [ 7] 4841 	adc	a, #0x00
   656E DD 77 E0      [19] 4842 	ld	-32 (ix),a
   6571 DD 6E DF      [19] 4843 	ld	l,-33 (ix)
   6574 DD 66 E0      [19] 4844 	ld	h,-32 (ix)
   6577 36 00         [10] 4845 	ld	(hl),#0x00
   6579 DD 7E BF      [19] 4846 	ld	a,-65 (ix)
   657C C6 03         [ 7] 4847 	add	a, #0x03
   657E DD 77 D5      [19] 4848 	ld	-43 (ix),a
   6581 DD 7E C0      [19] 4849 	ld	a,-64 (ix)
   6584 CE 00         [ 7] 4850 	adc	a, #0x00
   6586 DD 77 D6      [19] 4851 	ld	-42 (ix),a
   6589 DD 6E D5      [19] 4852 	ld	l,-43 (ix)
   658C DD 66 D6      [19] 4853 	ld	h,-42 (ix)
   658F 36 50         [10] 4854 	ld	(hl),#0x50
   6591 DD 7E BF      [19] 4855 	ld	a,-65 (ix)
   6594 C6 04         [ 7] 4856 	add	a, #0x04
   6596 DD 77 CF      [19] 4857 	ld	-49 (ix),a
   6599 DD 7E C0      [19] 4858 	ld	a,-64 (ix)
   659C CE 00         [ 7] 4859 	adc	a, #0x00
   659E DD 77 D0      [19] 4860 	ld	-48 (ix),a
   65A1 DD 6E CF      [19] 4861 	ld	l,-49 (ix)
   65A4 DD 66 D0      [19] 4862 	ld	h,-48 (ix)
   65A7 36 00         [10] 4863 	ld	(hl),#<(_gladis_quieto_dcha)
   65A9 23            [ 6] 4864 	inc	hl
   65AA 36 40         [10] 4865 	ld	(hl),#>(_gladis_quieto_dcha)
   65AC DD 7E BF      [19] 4866 	ld	a,-65 (ix)
   65AF C6 06         [ 7] 4867 	add	a, #0x06
   65B1 DD 77 D1      [19] 4868 	ld	-47 (ix),a
   65B4 DD 7E C0      [19] 4869 	ld	a,-64 (ix)
   65B7 CE 00         [ 7] 4870 	adc	a, #0x00
   65B9 DD 77 D2      [19] 4871 	ld	-46 (ix),a
   65BC DD 6E D1      [19] 4872 	ld	l,-47 (ix)
   65BF DD 66 D2      [19] 4873 	ld	h,-46 (ix)
   65C2 36 03         [10] 4874 	ld	(hl),#0x03
   65C4 DD 7E BF      [19] 4875 	ld	a,-65 (ix)
   65C7 C6 07         [ 7] 4876 	add	a, #0x07
   65C9 5F            [ 4] 4877 	ld	e,a
   65CA DD 7E C0      [19] 4878 	ld	a,-64 (ix)
   65CD CE 00         [ 7] 4879 	adc	a, #0x00
   65CF 57            [ 4] 4880 	ld	d,a
   65D0 3E 06         [ 7] 4881 	ld	a,#0x06
   65D2 12            [ 7] 4882 	ld	(de),a
   65D3 DD 7E BF      [19] 4883 	ld	a,-65 (ix)
   65D6 C6 08         [ 7] 4884 	add	a, #0x08
   65D8 DD 77 AD      [19] 4885 	ld	-83 (ix),a
   65DB DD 7E C0      [19] 4886 	ld	a,-64 (ix)
   65DE CE 00         [ 7] 4887 	adc	a, #0x00
   65E0 DD 77 AE      [19] 4888 	ld	-82 (ix),a
   65E3 DD 6E AD      [19] 4889 	ld	l,-83 (ix)
   65E6 DD 66 AE      [19] 4890 	ld	h,-82 (ix)
   65E9 36 04         [10] 4891 	ld	(hl),#0x04
   65EB DD 7E BF      [19] 4892 	ld	a,-65 (ix)
   65EE C6 09         [ 7] 4893 	add	a, #0x09
   65F0 DD 77 D3      [19] 4894 	ld	-45 (ix),a
   65F3 DD 7E C0      [19] 4895 	ld	a,-64 (ix)
   65F6 CE 00         [ 7] 4896 	adc	a, #0x00
   65F8 DD 77 D4      [19] 4897 	ld	-44 (ix),a
   65FB DD 6E D3      [19] 4898 	ld	l,-45 (ix)
   65FE DD 66 D4      [19] 4899 	ld	h,-44 (ix)
   6601 36 10         [10] 4900 	ld	(hl),#0x10
   6603 DD 7E BF      [19] 4901 	ld	a,-65 (ix)
   6606 C6 0A         [ 7] 4902 	add	a, #0x0A
   6608 DD 77 D7      [19] 4903 	ld	-41 (ix),a
   660B DD 7E C0      [19] 4904 	ld	a,-64 (ix)
   660E CE 00         [ 7] 4905 	adc	a, #0x00
   6610 DD 77 D8      [19] 4906 	ld	-40 (ix),a
   6613 DD 6E D7      [19] 4907 	ld	l,-41 (ix)
   6616 DD 66 D8      [19] 4908 	ld	h,-40 (ix)
   6619 36 04         [10] 4909 	ld	(hl),#0x04
   661B DD 7E BF      [19] 4910 	ld	a,-65 (ix)
   661E C6 0B         [ 7] 4911 	add	a, #0x0B
   6620 DD 77 C7      [19] 4912 	ld	-57 (ix),a
   6623 DD 7E C0      [19] 4913 	ld	a,-64 (ix)
   6626 CE 00         [ 7] 4914 	adc	a, #0x00
   6628 DD 77 C8      [19] 4915 	ld	-56 (ix),a
   662B DD 6E C7      [19] 4916 	ld	l,-57 (ix)
   662E DD 66 C8      [19] 4917 	ld	h,-56 (ix)
   6631 36 14         [10] 4918 	ld	(hl),#0x14
   6633 DD 7E BF      [19] 4919 	ld	a,-65 (ix)
   6636 C6 0C         [ 7] 4920 	add	a, #0x0C
   6638 DD 77 C9      [19] 4921 	ld	-55 (ix),a
   663B DD 7E C0      [19] 4922 	ld	a,-64 (ix)
   663E CE 00         [ 7] 4923 	adc	a, #0x00
   6640 DD 77 CA      [19] 4924 	ld	-54 (ix),a
   6643 DD 6E C9      [19] 4925 	ld	l,-55 (ix)
   6646 DD 66 CA      [19] 4926 	ld	h,-54 (ix)
   6649 36 14         [10] 4927 	ld	(hl),#0x14
   664B DD 7E BF      [19] 4928 	ld	a,-65 (ix)
   664E C6 0D         [ 7] 4929 	add	a, #0x0D
   6650 DD 77 AB      [19] 4930 	ld	-85 (ix),a
   6653 DD 7E C0      [19] 4931 	ld	a,-64 (ix)
   6656 CE 00         [ 7] 4932 	adc	a, #0x00
   6658 DD 77 AC      [19] 4933 	ld	-84 (ix),a
   665B DD 6E AB      [19] 4934 	ld	l,-85 (ix)
   665E DD 66 AC      [19] 4935 	ld	h,-84 (ix)
   6661 36 03         [10] 4936 	ld	(hl),#0x03
   6663 DD 7E BF      [19] 4937 	ld	a,-65 (ix)
   6666 C6 0E         [ 7] 4938 	add	a, #0x0E
   6668 6F            [ 4] 4939 	ld	l,a
   6669 DD 7E C0      [19] 4940 	ld	a,-64 (ix)
   666C CE 00         [ 7] 4941 	adc	a, #0x00
   666E 67            [ 4] 4942 	ld	h,a
   666F 36 00         [10] 4943 	ld	(hl),#0x00
   6671 DD 7E BF      [19] 4944 	ld	a,-65 (ix)
   6674 C6 0F         [ 7] 4945 	add	a, #0x0F
   6676 6F            [ 4] 4946 	ld	l,a
   6677 DD 7E C0      [19] 4947 	ld	a,-64 (ix)
   667A CE 00         [ 7] 4948 	adc	a, #0x00
   667C 67            [ 4] 4949 	ld	h,a
   667D 36 00         [10] 4950 	ld	(hl),#0x00
                           4951 ;src/main.c:597: TPlayer e = {52,80,52,80,chacho_dcha,3,6,4,16,4,0,0,0,1,3};
   667F 21 13 00      [10] 4952 	ld	hl,#0x0013
   6682 39            [11] 4953 	add	hl,sp
   6683 36 34         [10] 4954 	ld	(hl),#0x34
   6685 21 13 00      [10] 4955 	ld	hl,#0x0013
   6688 39            [11] 4956 	add	hl,sp
   6689 DD 75 A9      [19] 4957 	ld	-87 (ix),l
   668C DD 74 AA      [19] 4958 	ld	-86 (ix),h
   668F DD 7E A9      [19] 4959 	ld	a,-87 (ix)
   6692 C6 01         [ 7] 4960 	add	a, #0x01
   6694 DD 77 CD      [19] 4961 	ld	-51 (ix),a
   6697 DD 7E AA      [19] 4962 	ld	a,-86 (ix)
   669A CE 00         [ 7] 4963 	adc	a, #0x00
   669C DD 77 CE      [19] 4964 	ld	-50 (ix),a
   669F DD 6E CD      [19] 4965 	ld	l,-51 (ix)
   66A2 DD 66 CE      [19] 4966 	ld	h,-50 (ix)
   66A5 36 50         [10] 4967 	ld	(hl),#0x50
   66A7 DD 7E A9      [19] 4968 	ld	a,-87 (ix)
   66AA C6 02         [ 7] 4969 	add	a, #0x02
   66AC DD 77 CB      [19] 4970 	ld	-53 (ix),a
   66AF DD 7E AA      [19] 4971 	ld	a,-86 (ix)
   66B2 CE 00         [ 7] 4972 	adc	a, #0x00
   66B4 DD 77 CC      [19] 4973 	ld	-52 (ix),a
   66B7 DD 6E CB      [19] 4974 	ld	l,-53 (ix)
   66BA DD 66 CC      [19] 4975 	ld	h,-52 (ix)
   66BD 36 34         [10] 4976 	ld	(hl),#0x34
   66BF DD 7E A9      [19] 4977 	ld	a,-87 (ix)
   66C2 C6 03         [ 7] 4978 	add	a, #0x03
   66C4 DD 77 B1      [19] 4979 	ld	-79 (ix),a
   66C7 DD 7E AA      [19] 4980 	ld	a,-86 (ix)
   66CA CE 00         [ 7] 4981 	adc	a, #0x00
   66CC DD 77 B2      [19] 4982 	ld	-78 (ix),a
   66CF DD 6E B1      [19] 4983 	ld	l,-79 (ix)
   66D2 DD 66 B2      [19] 4984 	ld	h,-78 (ix)
   66D5 36 50         [10] 4985 	ld	(hl),#0x50
   66D7 DD 7E A9      [19] 4986 	ld	a,-87 (ix)
   66DA C6 04         [ 7] 4987 	add	a, #0x04
   66DC DD 77 AF      [19] 4988 	ld	-81 (ix),a
   66DF DD 7E AA      [19] 4989 	ld	a,-86 (ix)
   66E2 CE 00         [ 7] 4990 	adc	a, #0x00
   66E4 DD 77 B0      [19] 4991 	ld	-80 (ix),a
   66E7 DD 6E AF      [19] 4992 	ld	l,-81 (ix)
   66EA DD 66 B0      [19] 4993 	ld	h,-80 (ix)
   66ED 36 40         [10] 4994 	ld	(hl),#<(_chacho_dcha)
   66EF 23            [ 6] 4995 	inc	hl
   66F0 36 44         [10] 4996 	ld	(hl),#>(_chacho_dcha)
   66F2 DD 7E A9      [19] 4997 	ld	a,-87 (ix)
   66F5 C6 06         [ 7] 4998 	add	a, #0x06
   66F7 DD 77 FC      [19] 4999 	ld	-4 (ix),a
   66FA DD 7E AA      [19] 5000 	ld	a,-86 (ix)
   66FD CE 00         [ 7] 5001 	adc	a, #0x00
   66FF DD 77 FD      [19] 5002 	ld	-3 (ix),a
   6702 DD 6E FC      [19] 5003 	ld	l,-4 (ix)
   6705 DD 66 FD      [19] 5004 	ld	h,-3 (ix)
   6708 36 03         [10] 5005 	ld	(hl),#0x03
   670A DD 7E A9      [19] 5006 	ld	a,-87 (ix)
   670D C6 07         [ 7] 5007 	add	a, #0x07
   670F DD 77 FA      [19] 5008 	ld	-6 (ix),a
   6712 DD 7E AA      [19] 5009 	ld	a,-86 (ix)
   6715 CE 00         [ 7] 5010 	adc	a, #0x00
   6717 DD 77 FB      [19] 5011 	ld	-5 (ix),a
   671A DD 6E FA      [19] 5012 	ld	l,-6 (ix)
   671D DD 66 FB      [19] 5013 	ld	h,-5 (ix)
   6720 36 06         [10] 5014 	ld	(hl),#0x06
   6722 DD 7E A9      [19] 5015 	ld	a,-87 (ix)
   6725 C6 08         [ 7] 5016 	add	a, #0x08
   6727 DD 77 B9      [19] 5017 	ld	-71 (ix),a
   672A DD 7E AA      [19] 5018 	ld	a,-86 (ix)
   672D CE 00         [ 7] 5019 	adc	a, #0x00
   672F DD 77 BA      [19] 5020 	ld	-70 (ix),a
   6732 DD 6E B9      [19] 5021 	ld	l,-71 (ix)
   6735 DD 66 BA      [19] 5022 	ld	h,-70 (ix)
   6738 36 04         [10] 5023 	ld	(hl),#0x04
   673A DD 7E A9      [19] 5024 	ld	a,-87 (ix)
   673D C6 09         [ 7] 5025 	add	a, #0x09
   673F DD 77 B7      [19] 5026 	ld	-73 (ix),a
   6742 DD 7E AA      [19] 5027 	ld	a,-86 (ix)
   6745 CE 00         [ 7] 5028 	adc	a, #0x00
   6747 DD 77 B8      [19] 5029 	ld	-72 (ix),a
   674A DD 6E B7      [19] 5030 	ld	l,-73 (ix)
   674D DD 66 B8      [19] 5031 	ld	h,-72 (ix)
   6750 36 10         [10] 5032 	ld	(hl),#0x10
   6752 DD 7E A9      [19] 5033 	ld	a,-87 (ix)
   6755 C6 0A         [ 7] 5034 	add	a, #0x0A
   6757 DD 77 A3      [19] 5035 	ld	-93 (ix),a
   675A DD 7E AA      [19] 5036 	ld	a,-86 (ix)
   675D CE 00         [ 7] 5037 	adc	a, #0x00
   675F DD 77 A4      [19] 5038 	ld	-92 (ix),a
   6762 DD 6E A3      [19] 5039 	ld	l,-93 (ix)
   6765 DD 66 A4      [19] 5040 	ld	h,-92 (ix)
   6768 36 04         [10] 5041 	ld	(hl),#0x04
   676A DD 7E A9      [19] 5042 	ld	a,-87 (ix)
   676D C6 0B         [ 7] 5043 	add	a, #0x0B
   676F 6F            [ 4] 5044 	ld	l,a
   6770 DD 7E AA      [19] 5045 	ld	a,-86 (ix)
   6773 CE 00         [ 7] 5046 	adc	a, #0x00
   6775 67            [ 4] 5047 	ld	h,a
   6776 36 00         [10] 5048 	ld	(hl),#0x00
   6778 DD 7E A9      [19] 5049 	ld	a,-87 (ix)
   677B C6 0C         [ 7] 5050 	add	a, #0x0C
   677D 6F            [ 4] 5051 	ld	l,a
   677E DD 7E AA      [19] 5052 	ld	a,-86 (ix)
   6781 CE 00         [ 7] 5053 	adc	a, #0x00
   6783 67            [ 4] 5054 	ld	h,a
   6784 36 00         [10] 5055 	ld	(hl),#0x00
   6786 DD 7E A9      [19] 5056 	ld	a,-87 (ix)
   6789 C6 0D         [ 7] 5057 	add	a, #0x0D
   678B 6F            [ 4] 5058 	ld	l,a
   678C DD 7E AA      [19] 5059 	ld	a,-86 (ix)
   678F CE 00         [ 7] 5060 	adc	a, #0x00
   6791 67            [ 4] 5061 	ld	h,a
   6792 36 00         [10] 5062 	ld	(hl),#0x00
   6794 DD 7E A9      [19] 5063 	ld	a,-87 (ix)
   6797 C6 0E         [ 7] 5064 	add	a, #0x0E
   6799 6F            [ 4] 5065 	ld	l,a
   679A DD 7E AA      [19] 5066 	ld	a,-86 (ix)
   679D CE 00         [ 7] 5067 	adc	a, #0x00
   679F 67            [ 4] 5068 	ld	h,a
   67A0 36 01         [10] 5069 	ld	(hl),#0x01
   67A2 DD 7E A9      [19] 5070 	ld	a,-87 (ix)
   67A5 C6 0F         [ 7] 5071 	add	a, #0x0F
   67A7 DD 77 A1      [19] 5072 	ld	-95 (ix),a
   67AA DD 7E AA      [19] 5073 	ld	a,-86 (ix)
   67AD CE 00         [ 7] 5074 	adc	a, #0x00
   67AF DD 77 A2      [19] 5075 	ld	-94 (ix),a
   67B2 DD 6E A1      [19] 5076 	ld	l,-95 (ix)
   67B5 DD 66 A2      [19] 5077 	ld	h,-94 (ix)
   67B8 36 03         [10] 5078 	ld	(hl),#0x03
                           5079 ;src/main.c:598: TNivel n = {0,0,0};
   67BA 21 00 00      [10] 5080 	ld	hl,#0x0000
   67BD 39            [11] 5081 	add	hl,sp
   67BE 36 00         [10] 5082 	ld	(hl),#0x00
   67C0 21 00 00      [10] 5083 	ld	hl,#0x0000
   67C3 39            [11] 5084 	add	hl,sp
   67C4 4D            [ 4] 5085 	ld	c,l
   67C5 44            [ 4] 5086 	ld	b,h
   67C6 21 01 00      [10] 5087 	ld	hl,#0x0001
   67C9 09            [11] 5088 	add	hl,bc
   67CA DD 75 B5      [19] 5089 	ld	-75 (ix),l
   67CD DD 74 B6      [19] 5090 	ld	-74 (ix),h
   67D0 DD 6E B5      [19] 5091 	ld	l,-75 (ix)
   67D3 DD 66 B6      [19] 5092 	ld	h,-74 (ix)
   67D6 36 00         [10] 5093 	ld	(hl),#0x00
   67D8 03            [ 6] 5094 	inc	bc
   67D9 03            [ 6] 5095 	inc	bc
   67DA DD 71 B3      [19] 5096 	ld	-77 (ix),c
   67DD DD 70 B4      [19] 5097 	ld	-76 (ix),b
   67E0 DD 6E B3      [19] 5098 	ld	l,-77 (ix)
   67E3 DD 66 B4      [19] 5099 	ld	h,-76 (ix)
   67E6 36 00         [10] 5100 	ld	(hl),#0x00
                           5101 ;src/main.c:604: u8 finish = 0,i=1,arrow=0,following = 0;
   67E8 DD 36 9F 00   [19] 5102 	ld	-97 (ix),#0x00
   67EC DD 36 A0 00   [19] 5103 	ld	-96 (ix),#0x00
   67F0 DD 36 9E 00   [19] 5104 	ld	-98 (ix),#0x00
                           5105 ;src/main.c:606: u8 bound =0;
   67F4 DD 36 F3 00   [19] 5106 	ld	-13 (ix),#0x00
                           5107 ;src/main.c:607: temp = 0;
   67F8 21 00 00      [10] 5108 	ld	hl,#0x0000
   67FB 22 42 76      [16] 5109 	ld	(_temp),hl
                           5110 ;src/main.c:609: cpct_clearScreen(0);
   67FE D5            [11] 5111 	push	de
   67FF 26 40         [ 7] 5112 	ld	h, #0x40
   6801 E5            [11] 5113 	push	hl
   6802 AF            [ 4] 5114 	xor	a, a
   6803 F5            [11] 5115 	push	af
   6804 33            [ 6] 5116 	inc	sp
   6805 26 C0         [ 7] 5117 	ld	h, #0xC0
   6807 E5            [11] 5118 	push	hl
   6808 CD 69 73      [17] 5119 	call	_cpct_memset
   680B 3E 01         [ 7] 5120 	ld	a,#0x01
   680D F5            [11] 5121 	push	af
   680E 33            [ 6] 5122 	inc	sp
   680F CD 4D 4D      [17] 5123 	call	_drawMap
   6812 33            [ 6] 5124 	inc	sp
   6813 D1            [10] 5125 	pop	de
                           5126 ;src/main.c:614: while (1){
   6814 DD 7E CD      [19] 5127 	ld	a,-51 (ix)
   6817 DD 77 F1      [19] 5128 	ld	-15 (ix),a
   681A DD 7E CE      [19] 5129 	ld	a,-50 (ix)
   681D DD 77 F2      [19] 5130 	ld	-14 (ix),a
   6820 DD 7E A9      [19] 5131 	ld	a,-87 (ix)
   6823 DD 77 EF      [19] 5132 	ld	-17 (ix),a
   6826 DD 7E AA      [19] 5133 	ld	a,-86 (ix)
   6829 DD 77 F0      [19] 5134 	ld	-16 (ix),a
   682C DD 7E AB      [19] 5135 	ld	a,-85 (ix)
   682F DD 77 ED      [19] 5136 	ld	-19 (ix),a
   6832 DD 7E AC      [19] 5137 	ld	a,-84 (ix)
   6835 DD 77 EE      [19] 5138 	ld	-18 (ix),a
   6838 DD 7E AD      [19] 5139 	ld	a,-83 (ix)
   683B DD 77 A7      [19] 5140 	ld	-89 (ix),a
   683E DD 7E AE      [19] 5141 	ld	a,-82 (ix)
   6841 DD 77 A8      [19] 5142 	ld	-88 (ix),a
   6844 DD 73 A5      [19] 5143 	ld	-91 (ix),e
   6847 DD 72 A6      [19] 5144 	ld	-90 (ix),d
   684A DD 7E C7      [19] 5145 	ld	a,-57 (ix)
   684D DD 77 DB      [19] 5146 	ld	-37 (ix),a
   6850 DD 7E C8      [19] 5147 	ld	a,-56 (ix)
   6853 DD 77 DC      [19] 5148 	ld	-36 (ix),a
   6856 DD 7E FE      [19] 5149 	ld	a,-2 (ix)
   6859 DD 77 D9      [19] 5150 	ld	-39 (ix),a
   685C DD 7E FF      [19] 5151 	ld	a,-1 (ix)
   685F DD 77 DA      [19] 5152 	ld	-38 (ix),a
   6862 DD 7E BF      [19] 5153 	ld	a,-65 (ix)
   6865 DD 77 BD      [19] 5154 	ld	-67 (ix),a
   6868 DD 7E C0      [19] 5155 	ld	a,-64 (ix)
   686B DD 77 BE      [19] 5156 	ld	-66 (ix),a
   686E DD 7E B3      [19] 5157 	ld	a,-77 (ix)
   6871 DD 77 BB      [19] 5158 	ld	-69 (ix),a
   6874 DD 7E B4      [19] 5159 	ld	a,-76 (ix)
   6877 DD 77 BC      [19] 5160 	ld	-68 (ix),a
   687A DD 7E B5      [19] 5161 	ld	a,-75 (ix)
   687D DD 77 F8      [19] 5162 	ld	-8 (ix),a
   6880 DD 7E B6      [19] 5163 	ld	a,-74 (ix)
   6883 DD 77 F9      [19] 5164 	ld	-7 (ix),a
   6886 DD 7E AB      [19] 5165 	ld	a,-85 (ix)
   6889 DD 77 F6      [19] 5166 	ld	-10 (ix),a
   688C DD 7E AC      [19] 5167 	ld	a,-84 (ix)
   688F DD 77 F7      [19] 5168 	ld	-9 (ix),a
   6892 DD 7E D1      [19] 5169 	ld	a,-47 (ix)
   6895 DD 77 F4      [19] 5170 	ld	-12 (ix),a
   6898 DD 7E D2      [19] 5171 	ld	a,-46 (ix)
   689B DD 77 F5      [19] 5172 	ld	-11 (ix),a
   689E DD 7E FE      [19] 5173 	ld	a,-2 (ix)
   68A1 DD 77 C5      [19] 5174 	ld	-59 (ix),a
   68A4 DD 7E FF      [19] 5175 	ld	a,-1 (ix)
   68A7 DD 77 C6      [19] 5176 	ld	-58 (ix),a
   68AA DD 7E BF      [19] 5177 	ld	a,-65 (ix)
   68AD DD 77 C3      [19] 5178 	ld	-61 (ix),a
   68B0 DD 7E C0      [19] 5179 	ld	a,-64 (ix)
   68B3 DD 77 C4      [19] 5180 	ld	-60 (ix),a
   68B6                    5181 00133$:
                           5182 ;src/main.c:617: cpct_waitVSYNC();
   68B6 CD 4F 73      [17] 5183 	call	_cpct_waitVSYNC
                           5184 ;src/main.c:620: erasePlayer(p.lx,p.ly,p.lsize,p.sizeY);
   68B9 DD 6E D3      [19] 5185 	ld	l,-45 (ix)
   68BC DD 66 D4      [19] 5186 	ld	h,-44 (ix)
   68BF 46            [ 7] 5187 	ld	b,(hl)
   68C0 DD 6E D7      [19] 5188 	ld	l,-41 (ix)
   68C3 DD 66 D8      [19] 5189 	ld	h,-40 (ix)
   68C6 7E            [ 7] 5190 	ld	a,(hl)
   68C7 DD 6E D5      [19] 5191 	ld	l,-43 (ix)
   68CA DD 66 D6      [19] 5192 	ld	h,-42 (ix)
   68CD 5E            [ 7] 5193 	ld	e,(hl)
   68CE DD 6E DF      [19] 5194 	ld	l,-33 (ix)
   68D1 DD 66 E0      [19] 5195 	ld	h,-32 (ix)
   68D4 56            [ 7] 5196 	ld	d,(hl)
   68D5 C5            [11] 5197 	push	bc
   68D6 33            [ 6] 5198 	inc	sp
   68D7 F5            [11] 5199 	push	af
   68D8 33            [ 6] 5200 	inc	sp
   68D9 7B            [ 4] 5201 	ld	a,e
   68DA F5            [11] 5202 	push	af
   68DB 33            [ 6] 5203 	inc	sp
   68DC D5            [11] 5204 	push	de
   68DD 33            [ 6] 5205 	inc	sp
   68DE CD 99 4F      [17] 5206 	call	_erasePlayer
   68E1 F1            [10] 5207 	pop	af
   68E2 F1            [10] 5208 	pop	af
                           5209 ;src/main.c:621: erasePlayer(e.lx,e.ly,e.lsize,e.sizeY);
   68E3 DD 6E B7      [19] 5210 	ld	l,-73 (ix)
   68E6 DD 66 B8      [19] 5211 	ld	h,-72 (ix)
   68E9 46            [ 7] 5212 	ld	b,(hl)
   68EA DD 6E A3      [19] 5213 	ld	l,-93 (ix)
   68ED DD 66 A4      [19] 5214 	ld	h,-92 (ix)
   68F0 7E            [ 7] 5215 	ld	a,(hl)
   68F1 DD 6E B1      [19] 5216 	ld	l,-79 (ix)
   68F4 DD 66 B2      [19] 5217 	ld	h,-78 (ix)
   68F7 5E            [ 7] 5218 	ld	e,(hl)
   68F8 DD 6E CB      [19] 5219 	ld	l,-53 (ix)
   68FB DD 66 CC      [19] 5220 	ld	h,-52 (ix)
   68FE 56            [ 7] 5221 	ld	d,(hl)
   68FF C5            [11] 5222 	push	bc
   6900 33            [ 6] 5223 	inc	sp
   6901 F5            [11] 5224 	push	af
   6902 33            [ 6] 5225 	inc	sp
   6903 7B            [ 4] 5226 	ld	a,e
   6904 F5            [11] 5227 	push	af
   6905 33            [ 6] 5228 	inc	sp
   6906 D5            [11] 5229 	push	de
   6907 33            [ 6] 5230 	inc	sp
   6908 CD 99 4F      [17] 5231 	call	_erasePlayer
   690B F1            [10] 5232 	pop	af
   690C F1            [10] 5233 	pop	af
                           5234 ;src/main.c:622: if(arrow == 1){
   690D DD 7E A0      [19] 5235 	ld	a,-96 (ix)
   6910 3D            [ 4] 5236 	dec	a
   6911 20 27         [12] 5237 	jr	NZ,00104$
                           5238 ;src/main.c:623: erasePlayer(object.lx,object.ly,object.sizeX,object.sizeY);
   6913 21 4E 76      [10] 5239 	ld	hl, #(_object + 0x0009) + 0
   6916 46            [ 7] 5240 	ld	b,(hl)
   6917 3A 4D 76      [13] 5241 	ld	a, (#(_object + 0x0008) + 0)
   691A 21 48 76      [10] 5242 	ld	hl, #(_object + 0x0003) + 0
   691D 5E            [ 7] 5243 	ld	e,(hl)
   691E 21 47 76      [10] 5244 	ld	hl, #(_object + 0x0002) + 0
   6921 56            [ 7] 5245 	ld	d,(hl)
   6922 C5            [11] 5246 	push	bc
   6923 33            [ 6] 5247 	inc	sp
   6924 F5            [11] 5248 	push	af
   6925 33            [ 6] 5249 	inc	sp
   6926 7B            [ 4] 5250 	ld	a,e
   6927 F5            [11] 5251 	push	af
   6928 33            [ 6] 5252 	inc	sp
   6929 D5            [11] 5253 	push	de
   692A 33            [ 6] 5254 	inc	sp
   692B CD 99 4F      [17] 5255 	call	_erasePlayer
   692E F1            [10] 5256 	pop	af
   692F F1            [10] 5257 	pop	af
                           5258 ;src/main.c:624: if(bound == 1) arrow = 0;
   6930 DD 7E F3      [19] 5259 	ld	a,-13 (ix)
   6933 3D            [ 4] 5260 	dec	a
   6934 20 04         [12] 5261 	jr	NZ,00104$
   6936 DD 36 A0 00   [19] 5262 	ld	-96 (ix),#0x00
   693A                    5263 00104$:
                           5264 ;src/main.c:628: drawPickUps(n.corazon,n.bullet);
   693A DD 6E B3      [19] 5265 	ld	l,-77 (ix)
   693D DD 66 B4      [19] 5266 	ld	h,-76 (ix)
   6940 46            [ 7] 5267 	ld	b,(hl)
   6941 DD 6E B5      [19] 5268 	ld	l,-75 (ix)
   6944 DD 66 B6      [19] 5269 	ld	h,-74 (ix)
   6947 4E            [ 7] 5270 	ld	c, (hl)
   6948 C5            [11] 5271 	push	bc
   6949 CD EE 50      [17] 5272 	call	_drawPickUps
   694C F1            [10] 5273 	pop	af
                           5274 ;src/main.c:631: drawPlayer(p.x,p.y,p.sprite,p.sizeX,p.sizeY,p.life);
   694D DD 6E D1      [19] 5275 	ld	l,-47 (ix)
   6950 DD 66 D2      [19] 5276 	ld	h,-46 (ix)
   6953 7E            [ 7] 5277 	ld	a,(hl)
   6954 DD 6E D3      [19] 5278 	ld	l,-45 (ix)
   6957 DD 66 D4      [19] 5279 	ld	h,-44 (ix)
   695A 4E            [ 7] 5280 	ld	c,(hl)
   695B DD 6E AD      [19] 5281 	ld	l,-83 (ix)
   695E DD 66 AE      [19] 5282 	ld	h,-82 (ix)
   6961 46            [ 7] 5283 	ld	b,(hl)
   6962 DD 6E CF      [19] 5284 	ld	l,-49 (ix)
   6965 DD 66 D0      [19] 5285 	ld	h,-48 (ix)
   6968 F5            [11] 5286 	push	af
   6969 7E            [ 7] 5287 	ld	a,(hl)
   696A DD 77 C1      [19] 5288 	ld	-63 (ix),a
   696D 23            [ 6] 5289 	inc	hl
   696E 7E            [ 7] 5290 	ld	a,(hl)
   696F DD 77 C2      [19] 5291 	ld	-62 (ix),a
   6972 F1            [10] 5292 	pop	af
   6973 DD 6E FE      [19] 5293 	ld	l,-2 (ix)
   6976 DD 66 FF      [19] 5294 	ld	h,-1 (ix)
   6979 5E            [ 7] 5295 	ld	e,(hl)
   697A DD 6E BF      [19] 5296 	ld	l,-65 (ix)
   697D DD 66 C0      [19] 5297 	ld	h,-64 (ix)
   6980 56            [ 7] 5298 	ld	d,(hl)
   6981 F5            [11] 5299 	push	af
   6982 33            [ 6] 5300 	inc	sp
   6983 79            [ 4] 5301 	ld	a,c
   6984 F5            [11] 5302 	push	af
   6985 33            [ 6] 5303 	inc	sp
   6986 C5            [11] 5304 	push	bc
   6987 33            [ 6] 5305 	inc	sp
   6988 DD 6E C1      [19] 5306 	ld	l,-63 (ix)
   698B DD 66 C2      [19] 5307 	ld	h,-62 (ix)
   698E E5            [11] 5308 	push	hl
   698F 7B            [ 4] 5309 	ld	a,e
   6990 F5            [11] 5310 	push	af
   6991 33            [ 6] 5311 	inc	sp
   6992 D5            [11] 5312 	push	de
   6993 33            [ 6] 5313 	inc	sp
   6994 CD 66 4F      [17] 5314 	call	_drawPlayer
   6997 21 07 00      [10] 5315 	ld	hl,#7
   699A 39            [11] 5316 	add	hl,sp
   699B F9            [ 6] 5317 	ld	sp,hl
                           5318 ;src/main.c:632: if(e.life > 0) drawPlayer(e.x,e.y,e.sprite,e.sizeX,e.sizeY,e.life);
   699C DD 6E FC      [19] 5319 	ld	l,-4 (ix)
   699F DD 66 FD      [19] 5320 	ld	h,-3 (ix)
   69A2 4E            [ 7] 5321 	ld	c,(hl)
   69A3 79            [ 4] 5322 	ld	a,c
   69A4 B7            [ 4] 5323 	or	a, a
   69A5 28 4C         [12] 5324 	jr	Z,00106$
   69A7 DD 6E B7      [19] 5325 	ld	l,-73 (ix)
   69AA DD 66 B8      [19] 5326 	ld	h,-72 (ix)
   69AD 46            [ 7] 5327 	ld	b,(hl)
   69AE DD 6E B9      [19] 5328 	ld	l,-71 (ix)
   69B1 DD 66 BA      [19] 5329 	ld	h,-70 (ix)
   69B4 5E            [ 7] 5330 	ld	e,(hl)
   69B5 DD 6E AF      [19] 5331 	ld	l,-81 (ix)
   69B8 DD 66 B0      [19] 5332 	ld	h,-80 (ix)
   69BB 7E            [ 7] 5333 	ld	a,(hl)
   69BC DD 77 C1      [19] 5334 	ld	-63 (ix),a
   69BF 23            [ 6] 5335 	inc	hl
   69C0 7E            [ 7] 5336 	ld	a,(hl)
   69C1 DD 77 C2      [19] 5337 	ld	-62 (ix),a
   69C4 DD 6E CD      [19] 5338 	ld	l,-51 (ix)
   69C7 DD 66 CE      [19] 5339 	ld	h,-50 (ix)
   69CA 7E            [ 7] 5340 	ld	a,(hl)
   69CB DD 77 E5      [19] 5341 	ld	-27 (ix),a
   69CE DD 6E A9      [19] 5342 	ld	l,-87 (ix)
   69D1 DD 66 AA      [19] 5343 	ld	h,-86 (ix)
   69D4 56            [ 7] 5344 	ld	d,(hl)
   69D5 79            [ 4] 5345 	ld	a,c
   69D6 F5            [11] 5346 	push	af
   69D7 33            [ 6] 5347 	inc	sp
   69D8 C5            [11] 5348 	push	bc
   69D9 33            [ 6] 5349 	inc	sp
   69DA 7B            [ 4] 5350 	ld	a,e
   69DB F5            [11] 5351 	push	af
   69DC 33            [ 6] 5352 	inc	sp
   69DD DD 6E C1      [19] 5353 	ld	l,-63 (ix)
   69E0 DD 66 C2      [19] 5354 	ld	h,-62 (ix)
   69E3 E5            [11] 5355 	push	hl
   69E4 DD 7E E5      [19] 5356 	ld	a,-27 (ix)
   69E7 F5            [11] 5357 	push	af
   69E8 33            [ 6] 5358 	inc	sp
   69E9 D5            [11] 5359 	push	de
   69EA 33            [ 6] 5360 	inc	sp
   69EB CD 66 4F      [17] 5361 	call	_drawPlayer
   69EE 21 07 00      [10] 5362 	ld	hl,#7
   69F1 39            [11] 5363 	add	hl,sp
   69F2 F9            [ 6] 5364 	ld	sp,hl
   69F3                    5365 00106$:
                           5366 ;src/main.c:633: if(arrow == 1) drawPlayer(object.x,object.y,object.sprite,object.sizeX,object.sizeY,object.vivo);
   69F3 DD 7E A0      [19] 5367 	ld	a,-96 (ix)
   69F6 3D            [ 4] 5368 	dec	a
   69F7 20 3C         [12] 5369 	jr	NZ,00108$
   69F9 3A 4B 76      [13] 5370 	ld	a, (#(_object + 0x0006) + 0)
   69FC 21 4E 76      [10] 5371 	ld	hl, #(_object + 0x0009) + 0
   69FF 4E            [ 7] 5372 	ld	c,(hl)
   6A00 21 4D 76      [10] 5373 	ld	hl, #(_object + 0x0008) + 0
   6A03 46            [ 7] 5374 	ld	b,(hl)
   6A04 21 49 76      [10] 5375 	ld	hl, #_object + 4
   6A07 F5            [11] 5376 	push	af
   6A08 7E            [ 7] 5377 	ld	a,(hl)
   6A09 DD 77 C1      [19] 5378 	ld	-63 (ix),a
   6A0C 23            [ 6] 5379 	inc	hl
   6A0D 7E            [ 7] 5380 	ld	a,(hl)
   6A0E DD 77 C2      [19] 5381 	ld	-62 (ix),a
   6A11 F1            [10] 5382 	pop	af
   6A12 21 46 76      [10] 5383 	ld	hl, #(_object + 0x0001) + 0
   6A15 5E            [ 7] 5384 	ld	e,(hl)
   6A16 21 45 76      [10] 5385 	ld	hl, #_object + 0
   6A19 56            [ 7] 5386 	ld	d,(hl)
   6A1A F5            [11] 5387 	push	af
   6A1B 33            [ 6] 5388 	inc	sp
   6A1C 79            [ 4] 5389 	ld	a,c
   6A1D F5            [11] 5390 	push	af
   6A1E 33            [ 6] 5391 	inc	sp
   6A1F C5            [11] 5392 	push	bc
   6A20 33            [ 6] 5393 	inc	sp
   6A21 DD 6E C1      [19] 5394 	ld	l,-63 (ix)
   6A24 DD 66 C2      [19] 5395 	ld	h,-62 (ix)
   6A27 E5            [11] 5396 	push	hl
   6A28 7B            [ 4] 5397 	ld	a,e
   6A29 F5            [11] 5398 	push	af
   6A2A 33            [ 6] 5399 	inc	sp
   6A2B D5            [11] 5400 	push	de
   6A2C 33            [ 6] 5401 	inc	sp
   6A2D CD 66 4F      [17] 5402 	call	_drawPlayer
   6A30 21 07 00      [10] 5403 	ld	hl,#7
   6A33 39            [11] 5404 	add	hl,sp
   6A34 F9            [ 6] 5405 	ld	sp,hl
   6A35                    5406 00108$:
                           5407 ;src/main.c:636: drawVida(p.life);
   6A35 DD 6E D1      [19] 5408 	ld	l,-47 (ix)
   6A38 DD 66 D2      [19] 5409 	ld	h,-46 (ix)
   6A3B 66            [ 7] 5410 	ld	h,(hl)
   6A3C E5            [11] 5411 	push	hl
   6A3D 33            [ 6] 5412 	inc	sp
   6A3E CD 56 51      [17] 5413 	call	_drawVida
   6A41 33            [ 6] 5414 	inc	sp
                           5415 ;src/main.c:637: drawBullets(p.bullets);
   6A42 DD 6E AB      [19] 5416 	ld	l,-85 (ix)
   6A45 DD 66 AC      [19] 5417 	ld	h,-84 (ix)
   6A48 66            [ 7] 5418 	ld	h,(hl)
   6A49 E5            [11] 5419 	push	hl
   6A4A 33            [ 6] 5420 	inc	sp
   6A4B CD C0 51      [17] 5421 	call	_drawBullets
   6A4E 33            [ 6] 5422 	inc	sp
                           5423 ;src/main.c:640: if(p.atk < 20) drawFatiga(p.atk,2);
   6A4F DD 6E C7      [19] 5424 	ld	l,-57 (ix)
   6A52 DD 66 C8      [19] 5425 	ld	h,-56 (ix)
   6A55 56            [ 7] 5426 	ld	d,(hl)
   6A56 7A            [ 4] 5427 	ld	a,d
   6A57 D6 14         [ 7] 5428 	sub	a, #0x14
   6A59 30 0C         [12] 5429 	jr	NC,00113$
   6A5B 3E 02         [ 7] 5430 	ld	a,#0x02
   6A5D F5            [11] 5431 	push	af
   6A5E 33            [ 6] 5432 	inc	sp
   6A5F D5            [11] 5433 	push	de
   6A60 33            [ 6] 5434 	inc	sp
   6A61 CD C8 4F      [17] 5435 	call	_drawFatiga
   6A64 F1            [10] 5436 	pop	af
   6A65 18 1A         [12] 5437 	jr	00114$
   6A67                    5438 00113$:
                           5439 ;src/main.c:641: else if(p.atk > 20) drawFatiga(p.atk,1);
   6A67 3E 14         [ 7] 5440 	ld	a,#0x14
   6A69 92            [ 4] 5441 	sub	a, d
   6A6A 30 0C         [12] 5442 	jr	NC,00110$
   6A6C 3E 01         [ 7] 5443 	ld	a,#0x01
   6A6E F5            [11] 5444 	push	af
   6A6F 33            [ 6] 5445 	inc	sp
   6A70 D5            [11] 5446 	push	de
   6A71 33            [ 6] 5447 	inc	sp
   6A72 CD C8 4F      [17] 5448 	call	_drawFatiga
   6A75 F1            [10] 5449 	pop	af
   6A76 18 09         [12] 5450 	jr	00114$
   6A78                    5451 00110$:
                           5452 ;src/main.c:642: else drawFatiga(p.atk,0);
   6A78 AF            [ 4] 5453 	xor	a, a
   6A79 F5            [11] 5454 	push	af
   6A7A 33            [ 6] 5455 	inc	sp
   6A7B D5            [11] 5456 	push	de
   6A7C 33            [ 6] 5457 	inc	sp
   6A7D CD C8 4F      [17] 5458 	call	_drawFatiga
   6A80 F1            [10] 5459 	pop	af
   6A81                    5460 00114$:
                           5461 ;src/main.c:645: p.lx = p.x;
   6A81 DD 6E BF      [19] 5462 	ld	l,-65 (ix)
   6A84 DD 66 C0      [19] 5463 	ld	h,-64 (ix)
   6A87 7E            [ 7] 5464 	ld	a,(hl)
   6A88 DD 6E DF      [19] 5465 	ld	l,-33 (ix)
   6A8B DD 66 E0      [19] 5466 	ld	h,-32 (ix)
   6A8E 77            [ 7] 5467 	ld	(hl),a
                           5468 ;src/main.c:646: p.ly = p.y;
   6A8F DD 6E FE      [19] 5469 	ld	l,-2 (ix)
   6A92 DD 66 FF      [19] 5470 	ld	h,-1 (ix)
   6A95 7E            [ 7] 5471 	ld	a,(hl)
   6A96 DD 6E D5      [19] 5472 	ld	l,-43 (ix)
   6A99 DD 66 D6      [19] 5473 	ld	h,-42 (ix)
   6A9C 77            [ 7] 5474 	ld	(hl),a
                           5475 ;src/main.c:647: e.lx = e.x;
   6A9D DD 6E A9      [19] 5476 	ld	l,-87 (ix)
   6AA0 DD 66 AA      [19] 5477 	ld	h,-86 (ix)
   6AA3 7E            [ 7] 5478 	ld	a,(hl)
   6AA4 DD 6E CB      [19] 5479 	ld	l,-53 (ix)
   6AA7 DD 66 CC      [19] 5480 	ld	h,-52 (ix)
   6AAA 77            [ 7] 5481 	ld	(hl),a
                           5482 ;src/main.c:648: e.ly = e.y;
   6AAB DD 6E CD      [19] 5483 	ld	l,-51 (ix)
   6AAE DD 66 CE      [19] 5484 	ld	h,-50 (ix)
   6AB1 7E            [ 7] 5485 	ld	a,(hl)
   6AB2 DD 6E B1      [19] 5486 	ld	l,-79 (ix)
   6AB5 DD 66 B2      [19] 5487 	ld	h,-78 (ix)
   6AB8 77            [ 7] 5488 	ld	(hl),a
                           5489 ;src/main.c:649: p.latk = p.atk;
   6AB9 DD 6E C7      [19] 5490 	ld	l,-57 (ix)
   6ABC DD 66 C8      [19] 5491 	ld	h,-56 (ix)
   6ABF 7E            [ 7] 5492 	ld	a,(hl)
   6AC0 DD 6E C9      [19] 5493 	ld	l,-55 (ix)
   6AC3 DD 66 CA      [19] 5494 	ld	h,-54 (ix)
   6AC6 77            [ 7] 5495 	ld	(hl),a
                           5496 ;src/main.c:650: p.lsize = p.sizeX;
   6AC7 DD 6E AD      [19] 5497 	ld	l,-83 (ix)
   6ACA DD 66 AE      [19] 5498 	ld	h,-82 (ix)
   6ACD 7E            [ 7] 5499 	ld	a,(hl)
   6ACE DD 6E D7      [19] 5500 	ld	l,-41 (ix)
   6AD1 DD 66 D8      [19] 5501 	ld	h,-40 (ix)
   6AD4 77            [ 7] 5502 	ld	(hl),a
                           5503 ;src/main.c:653: cpct_scanKeyboard_f();
   6AD5 CD 3F 71      [17] 5504 	call	_cpct_scanKeyboard_f
                           5505 ;src/main.c:654: p.sprite = checkKeyboard(&p.x,&p.y,&p.atk,&p.dir,p.sprite,&p.sizeX,&p.bullets,&finish,&arrow);
   6AD8 21 25 00      [10] 5506 	ld	hl,#0x0025
   6ADB 39            [11] 5507 	add	hl,sp
   6ADC 4D            [ 4] 5508 	ld	c, l
   6ADD 44            [ 4] 5509 	ld	b, h
   6ADE 21 24 00      [10] 5510 	ld	hl,#0x0024
   6AE1 39            [11] 5511 	add	hl,sp
   6AE2 DD 75 C1      [19] 5512 	ld	-63 (ix),l
   6AE5 DD 74 C2      [19] 5513 	ld	-62 (ix),h
   6AE8 DD 5E ED      [19] 5514 	ld	e,-19 (ix)
   6AEB DD 56 EE      [19] 5515 	ld	d,-18 (ix)
   6AEE DD 7E A7      [19] 5516 	ld	a,-89 (ix)
   6AF1 DD 77 E3      [19] 5517 	ld	-29 (ix),a
   6AF4 DD 7E A8      [19] 5518 	ld	a,-88 (ix)
   6AF7 DD 77 E4      [19] 5519 	ld	-28 (ix),a
   6AFA DD 6E CF      [19] 5520 	ld	l,-49 (ix)
   6AFD DD 66 D0      [19] 5521 	ld	h,-48 (ix)
   6B00 7E            [ 7] 5522 	ld	a,(hl)
   6B01 DD 77 E1      [19] 5523 	ld	-31 (ix),a
   6B04 23            [ 6] 5524 	inc	hl
   6B05 7E            [ 7] 5525 	ld	a,(hl)
   6B06 DD 77 E2      [19] 5526 	ld	-30 (ix),a
   6B09 DD 7E A5      [19] 5527 	ld	a,-91 (ix)
   6B0C DD 77 EB      [19] 5528 	ld	-21 (ix),a
   6B0F DD 7E A6      [19] 5529 	ld	a,-90 (ix)
   6B12 DD 77 EC      [19] 5530 	ld	-20 (ix),a
   6B15 DD 7E DB      [19] 5531 	ld	a,-37 (ix)
   6B18 DD 77 E9      [19] 5532 	ld	-23 (ix),a
   6B1B DD 7E DC      [19] 5533 	ld	a,-36 (ix)
   6B1E DD 77 EA      [19] 5534 	ld	-22 (ix),a
   6B21 DD 6E D9      [19] 5535 	ld	l,-39 (ix)
   6B24 DD 66 DA      [19] 5536 	ld	h,-38 (ix)
   6B27 DD 7E BD      [19] 5537 	ld	a,-67 (ix)
   6B2A DD 77 E7      [19] 5538 	ld	-25 (ix),a
   6B2D DD 7E BE      [19] 5539 	ld	a,-66 (ix)
   6B30 DD 77 E8      [19] 5540 	ld	-24 (ix),a
   6B33 C5            [11] 5541 	push	bc
   6B34 DD 4E C1      [19] 5542 	ld	c,-63 (ix)
   6B37 DD 46 C2      [19] 5543 	ld	b,-62 (ix)
   6B3A C5            [11] 5544 	push	bc
   6B3B D5            [11] 5545 	push	de
   6B3C DD 4E E3      [19] 5546 	ld	c,-29 (ix)
   6B3F DD 46 E4      [19] 5547 	ld	b,-28 (ix)
   6B42 C5            [11] 5548 	push	bc
   6B43 DD 4E E1      [19] 5549 	ld	c,-31 (ix)
   6B46 DD 46 E2      [19] 5550 	ld	b,-30 (ix)
   6B49 C5            [11] 5551 	push	bc
   6B4A DD 4E EB      [19] 5552 	ld	c,-21 (ix)
   6B4D DD 46 EC      [19] 5553 	ld	b,-20 (ix)
   6B50 C5            [11] 5554 	push	bc
   6B51 DD 4E E9      [19] 5555 	ld	c,-23 (ix)
   6B54 DD 46 EA      [19] 5556 	ld	b,-22 (ix)
   6B57 C5            [11] 5557 	push	bc
   6B58 E5            [11] 5558 	push	hl
   6B59 DD 6E E7      [19] 5559 	ld	l,-25 (ix)
   6B5C DD 66 E8      [19] 5560 	ld	h,-24 (ix)
   6B5F E5            [11] 5561 	push	hl
   6B60 CD EB 59      [17] 5562 	call	_checkKeyboard
   6B63 FD 21 12 00   [14] 5563 	ld	iy,#18
   6B67 FD 39         [15] 5564 	add	iy,sp
   6B69 FD F9         [10] 5565 	ld	sp,iy
   6B6B 55            [ 4] 5566 	ld	d,l
   6B6C 5C            [ 4] 5567 	ld	e,h
   6B6D DD 6E CF      [19] 5568 	ld	l,-49 (ix)
   6B70 DD 66 D0      [19] 5569 	ld	h,-48 (ix)
   6B73 72            [ 7] 5570 	ld	(hl),d
   6B74 23            [ 6] 5571 	inc	hl
   6B75 73            [ 7] 5572 	ld	(hl),e
                           5573 ;src/main.c:655: checkBoundsCollisions(&p.x,&p.y,p.lx,p.ly,p.sizeX,p.sizeY,&p.life,&p.bullets,&n.corazon,&n.bullet);
   6B76 DD 4E BB      [19] 5574 	ld	c,-69 (ix)
   6B79 DD 46 BC      [19] 5575 	ld	b,-68 (ix)
   6B7C DD 5E F8      [19] 5576 	ld	e,-8 (ix)
   6B7F DD 56 F9      [19] 5577 	ld	d,-7 (ix)
   6B82 DD 7E F6      [19] 5578 	ld	a,-10 (ix)
   6B85 DD 77 E7      [19] 5579 	ld	-25 (ix),a
   6B88 DD 7E F7      [19] 5580 	ld	a,-9 (ix)
   6B8B DD 77 E8      [19] 5581 	ld	-24 (ix),a
   6B8E DD 7E F4      [19] 5582 	ld	a,-12 (ix)
   6B91 DD 77 E9      [19] 5583 	ld	-23 (ix),a
   6B94 DD 7E F5      [19] 5584 	ld	a,-11 (ix)
   6B97 DD 77 EA      [19] 5585 	ld	-22 (ix),a
   6B9A DD 6E D3      [19] 5586 	ld	l,-45 (ix)
   6B9D DD 66 D4      [19] 5587 	ld	h,-44 (ix)
   6BA0 7E            [ 7] 5588 	ld	a,(hl)
   6BA1 DD 77 EB      [19] 5589 	ld	-21 (ix),a
   6BA4 DD 6E AD      [19] 5590 	ld	l,-83 (ix)
   6BA7 DD 66 AE      [19] 5591 	ld	h,-82 (ix)
   6BAA 7E            [ 7] 5592 	ld	a,(hl)
   6BAB DD 77 E1      [19] 5593 	ld	-31 (ix),a
   6BAE DD 6E D5      [19] 5594 	ld	l,-43 (ix)
   6BB1 DD 66 D6      [19] 5595 	ld	h,-42 (ix)
   6BB4 7E            [ 7] 5596 	ld	a,(hl)
   6BB5 DD 77 E3      [19] 5597 	ld	-29 (ix),a
   6BB8 DD 6E DF      [19] 5598 	ld	l,-33 (ix)
   6BBB DD 66 E0      [19] 5599 	ld	h,-32 (ix)
   6BBE 7E            [ 7] 5600 	ld	a,(hl)
   6BBF DD 77 E5      [19] 5601 	ld	-27 (ix),a
   6BC2 DD 7E C5      [19] 5602 	ld	a,-59 (ix)
   6BC5 DD 77 C1      [19] 5603 	ld	-63 (ix),a
   6BC8 DD 7E C6      [19] 5604 	ld	a,-58 (ix)
   6BCB DD 77 C2      [19] 5605 	ld	-62 (ix),a
   6BCE E5            [11] 5606 	push	hl
   6BCF DD 6E C3      [19] 5607 	ld	l,-61 (ix)
   6BD2 DD 66 C4      [19] 5608 	ld	h,-60 (ix)
   6BD5 E5            [11] 5609 	push	hl
   6BD6 FD E1         [14] 5610 	pop	iy
   6BD8 E1            [10] 5611 	pop	hl
   6BD9 C5            [11] 5612 	push	bc
   6BDA D5            [11] 5613 	push	de
   6BDB DD 6E E7      [19] 5614 	ld	l,-25 (ix)
   6BDE DD 66 E8      [19] 5615 	ld	h,-24 (ix)
   6BE1 E5            [11] 5616 	push	hl
   6BE2 DD 6E E9      [19] 5617 	ld	l,-23 (ix)
   6BE5 DD 66 EA      [19] 5618 	ld	h,-22 (ix)
   6BE8 E5            [11] 5619 	push	hl
   6BE9 DD 66 EB      [19] 5620 	ld	h,-21 (ix)
   6BEC DD 6E E1      [19] 5621 	ld	l,-31 (ix)
   6BEF E5            [11] 5622 	push	hl
   6BF0 DD 66 E3      [19] 5623 	ld	h,-29 (ix)
   6BF3 DD 6E E5      [19] 5624 	ld	l,-27 (ix)
   6BF6 E5            [11] 5625 	push	hl
   6BF7 DD 6E C1      [19] 5626 	ld	l,-63 (ix)
   6BFA DD 66 C2      [19] 5627 	ld	h,-62 (ix)
   6BFD E5            [11] 5628 	push	hl
   6BFE FD E5         [15] 5629 	push	iy
   6C00 CD D7 55      [17] 5630 	call	_checkBoundsCollisions
   6C03 21 10 00      [10] 5631 	ld	hl,#16
   6C06 39            [11] 5632 	add	hl,sp
   6C07 F9            [ 6] 5633 	ld	sp,hl
                           5634 ;src/main.c:656: if(e.life > 0)
   6C08 DD 6E FC      [19] 5635 	ld	l,-4 (ix)
   6C0B DD 66 FD      [19] 5636 	ld	h,-3 (ix)
   6C0E 7E            [ 7] 5637 	ld	a,(hl)
   6C0F B7            [ 4] 5638 	or	a, a
   6C10 CA D1 6C      [10] 5639 	jp	Z,00116$
                           5640 ;src/main.c:657: e.sprite = move(&e.x,&e.y,e.lx,e.ly,e.sizeX,e.sizeY,&e.dir,e.sprite,e.room,p.x,p.y,&following);
   6C13 21 23 00      [10] 5641 	ld	hl,#0x0023
   6C16 39            [11] 5642 	add	hl,sp
   6C17 DD 75 E7      [19] 5643 	ld	-25 (ix),l
   6C1A DD 74 E8      [19] 5644 	ld	-24 (ix),h
   6C1D DD 6E FE      [19] 5645 	ld	l,-2 (ix)
   6C20 DD 66 FF      [19] 5646 	ld	h,-1 (ix)
   6C23 7E            [ 7] 5647 	ld	a,(hl)
   6C24 DD 77 E9      [19] 5648 	ld	-23 (ix),a
   6C27 DD 6E BF      [19] 5649 	ld	l,-65 (ix)
   6C2A DD 66 C0      [19] 5650 	ld	h,-64 (ix)
   6C2D 7E            [ 7] 5651 	ld	a,(hl)
   6C2E DD 77 EB      [19] 5652 	ld	-21 (ix),a
   6C31 DD 6E A1      [19] 5653 	ld	l,-95 (ix)
   6C34 DD 66 A2      [19] 5654 	ld	h,-94 (ix)
   6C37 7E            [ 7] 5655 	ld	a,(hl)
   6C38 DD 77 E1      [19] 5656 	ld	-31 (ix),a
   6C3B DD 6E AF      [19] 5657 	ld	l,-81 (ix)
   6C3E DD 66 B0      [19] 5658 	ld	h,-80 (ix)
   6C41 7E            [ 7] 5659 	ld	a,(hl)
   6C42 DD 77 E3      [19] 5660 	ld	-29 (ix),a
   6C45 23            [ 6] 5661 	inc	hl
   6C46 7E            [ 7] 5662 	ld	a,(hl)
   6C47 DD 77 E4      [19] 5663 	ld	-28 (ix),a
   6C4A DD 7E FA      [19] 5664 	ld	a,-6 (ix)
   6C4D DD 77 C1      [19] 5665 	ld	-63 (ix),a
   6C50 DD 7E FB      [19] 5666 	ld	a,-5 (ix)
   6C53 DD 77 C2      [19] 5667 	ld	-62 (ix),a
   6C56 DD 6E B7      [19] 5668 	ld	l,-73 (ix)
   6C59 DD 66 B8      [19] 5669 	ld	h,-72 (ix)
   6C5C 7E            [ 7] 5670 	ld	a,(hl)
   6C5D DD 77 E5      [19] 5671 	ld	-27 (ix),a
   6C60 DD 6E B9      [19] 5672 	ld	l,-71 (ix)
   6C63 DD 66 BA      [19] 5673 	ld	h,-70 (ix)
   6C66 7E            [ 7] 5674 	ld	a,(hl)
   6C67 DD 77 E6      [19] 5675 	ld	-26 (ix),a
   6C6A DD 6E B1      [19] 5676 	ld	l,-79 (ix)
   6C6D DD 66 B2      [19] 5677 	ld	h,-78 (ix)
   6C70 7E            [ 7] 5678 	ld	a,(hl)
   6C71 DD 77 DE      [19] 5679 	ld	-34 (ix),a
   6C74 DD 6E CB      [19] 5680 	ld	l,-53 (ix)
   6C77 DD 66 CC      [19] 5681 	ld	h,-52 (ix)
   6C7A 7E            [ 7] 5682 	ld	a,(hl)
   6C7B DD 77 DD      [19] 5683 	ld	-35 (ix),a
   6C7E DD 5E F1      [19] 5684 	ld	e,-15 (ix)
   6C81 DD 56 F2      [19] 5685 	ld	d,-14 (ix)
   6C84 DD 4E EF      [19] 5686 	ld	c,-17 (ix)
   6C87 DD 46 F0      [19] 5687 	ld	b,-16 (ix)
   6C8A DD 6E E7      [19] 5688 	ld	l,-25 (ix)
   6C8D DD 66 E8      [19] 5689 	ld	h,-24 (ix)
   6C90 E5            [11] 5690 	push	hl
   6C91 DD 66 E9      [19] 5691 	ld	h,-23 (ix)
   6C94 DD 6E EB      [19] 5692 	ld	l,-21 (ix)
   6C97 E5            [11] 5693 	push	hl
   6C98 DD 7E E1      [19] 5694 	ld	a,-31 (ix)
   6C9B F5            [11] 5695 	push	af
   6C9C 33            [ 6] 5696 	inc	sp
   6C9D DD 6E E3      [19] 5697 	ld	l,-29 (ix)
   6CA0 DD 66 E4      [19] 5698 	ld	h,-28 (ix)
   6CA3 E5            [11] 5699 	push	hl
   6CA4 DD 6E C1      [19] 5700 	ld	l,-63 (ix)
   6CA7 DD 66 C2      [19] 5701 	ld	h,-62 (ix)
   6CAA E5            [11] 5702 	push	hl
   6CAB DD 66 E5      [19] 5703 	ld	h,-27 (ix)
   6CAE DD 6E E6      [19] 5704 	ld	l,-26 (ix)
   6CB1 E5            [11] 5705 	push	hl
   6CB2 DD 66 DE      [19] 5706 	ld	h,-34 (ix)
   6CB5 DD 6E DD      [19] 5707 	ld	l,-35 (ix)
   6CB8 E5            [11] 5708 	push	hl
   6CB9 D5            [11] 5709 	push	de
   6CBA C5            [11] 5710 	push	bc
   6CBB CD 3B 61      [17] 5711 	call	_move
   6CBE FD 21 11 00   [14] 5712 	ld	iy,#17
   6CC2 FD 39         [15] 5713 	add	iy,sp
   6CC4 FD F9         [10] 5714 	ld	sp,iy
   6CC6 55            [ 4] 5715 	ld	d,l
   6CC7 5C            [ 4] 5716 	ld	e,h
   6CC8 DD 6E AF      [19] 5717 	ld	l,-81 (ix)
   6CCB DD 66 B0      [19] 5718 	ld	h,-80 (ix)
   6CCE 72            [ 7] 5719 	ld	(hl),d
   6CCF 23            [ 6] 5720 	inc	hl
   6CD0 73            [ 7] 5721 	ld	(hl),e
   6CD1                    5722 00116$:
                           5723 ;src/main.c:659: if(e.life > 0)
   6CD1 DD 6E FC      [19] 5724 	ld	l,-4 (ix)
   6CD4 DD 66 FD      [19] 5725 	ld	h,-3 (ix)
   6CD7 7E            [ 7] 5726 	ld	a, (hl)
   6CD8 B7            [ 4] 5727 	or	a, a
   6CD9 CA 7F 6D      [10] 5728 	jp	Z,00125$
                           5729 ;src/main.c:660: if(checkCollisions(p.x, p.y, e.x, e.y, p.atk) == 2){
   6CDC DD 6E C7      [19] 5730 	ld	l,-57 (ix)
   6CDF DD 66 C8      [19] 5731 	ld	h,-56 (ix)
   6CE2 7E            [ 7] 5732 	ld	a,(hl)
   6CE3 DD 6E CD      [19] 5733 	ld	l,-51 (ix)
   6CE6 DD 66 CE      [19] 5734 	ld	h,-50 (ix)
   6CE9 4E            [ 7] 5735 	ld	c,(hl)
   6CEA DD 6E A9      [19] 5736 	ld	l,-87 (ix)
   6CED DD 66 AA      [19] 5737 	ld	h,-86 (ix)
   6CF0 46            [ 7] 5738 	ld	b,(hl)
   6CF1 DD 6E FE      [19] 5739 	ld	l,-2 (ix)
   6CF4 DD 66 FF      [19] 5740 	ld	h,-1 (ix)
   6CF7 5E            [ 7] 5741 	ld	e,(hl)
   6CF8 DD 6E BF      [19] 5742 	ld	l,-65 (ix)
   6CFB DD 66 C0      [19] 5743 	ld	h,-64 (ix)
   6CFE 56            [ 7] 5744 	ld	d,(hl)
   6CFF F5            [11] 5745 	push	af
   6D00 33            [ 6] 5746 	inc	sp
   6D01 79            [ 4] 5747 	ld	a,c
   6D02 F5            [11] 5748 	push	af
   6D03 33            [ 6] 5749 	inc	sp
   6D04 C5            [11] 5750 	push	bc
   6D05 33            [ 6] 5751 	inc	sp
   6D06 7B            [ 4] 5752 	ld	a,e
   6D07 F5            [11] 5753 	push	af
   6D08 33            [ 6] 5754 	inc	sp
   6D09 D5            [11] 5755 	push	de
   6D0A 33            [ 6] 5756 	inc	sp
   6D0B CD D3 49      [17] 5757 	call	_checkCollisions
   6D0E F1            [10] 5758 	pop	af
   6D0F F1            [10] 5759 	pop	af
   6D10 33            [ 6] 5760 	inc	sp
   6D11 7D            [ 4] 5761 	ld	a,l
   6D12 D6 02         [ 7] 5762 	sub	a, #0x02
   6D14 20 29         [12] 5763 	jr	NZ,00122$
                           5764 ;src/main.c:661: p.x = 0;
   6D16 DD 6E BF      [19] 5765 	ld	l,-65 (ix)
   6D19 DD 66 C0      [19] 5766 	ld	h,-64 (ix)
   6D1C 36 00         [10] 5767 	ld	(hl),#0x00
                           5768 ;src/main.c:662: p.y = 80;
   6D1E DD 6E FE      [19] 5769 	ld	l,-2 (ix)
   6D21 DD 66 FF      [19] 5770 	ld	h,-1 (ix)
   6D24 36 50         [10] 5771 	ld	(hl),#0x50
                           5772 ;src/main.c:663: p.life -= 1;
   6D26 DD 6E D1      [19] 5773 	ld	l,-47 (ix)
   6D29 DD 66 D2      [19] 5774 	ld	h,-46 (ix)
   6D2C 7E            [ 7] 5775 	ld	a,(hl)
   6D2D C6 FF         [ 7] 5776 	add	a,#0xFF
   6D2F DD 6E D1      [19] 5777 	ld	l,-47 (ix)
   6D32 DD 66 D2      [19] 5778 	ld	h,-46 (ix)
   6D35 77            [ 7] 5779 	ld	(hl),a
                           5780 ;src/main.c:664: if(p.life == 0){
   6D36 B7            [ 4] 5781 	or	a, a
   6D37 20 46         [12] 5782 	jr	NZ,00125$
                           5783 ;src/main.c:665: gameOver();
   6D39 CD FF 4A      [17] 5784 	call	_gameOver
                           5785 ;src/main.c:666: break;
   6D3C C3 0C 6E      [10] 5786 	jp	00135$
   6D3F                    5787 00122$:
                           5788 ;src/main.c:668: }else if(checkCollisions(p.x, p.y, e.x, e.y, p.atk) == 1){
   6D3F DD 6E C7      [19] 5789 	ld	l,-57 (ix)
   6D42 DD 66 C8      [19] 5790 	ld	h,-56 (ix)
   6D45 7E            [ 7] 5791 	ld	a,(hl)
   6D46 DD 6E CD      [19] 5792 	ld	l,-51 (ix)
   6D49 DD 66 CE      [19] 5793 	ld	h,-50 (ix)
   6D4C 4E            [ 7] 5794 	ld	c,(hl)
   6D4D DD 6E A9      [19] 5795 	ld	l,-87 (ix)
   6D50 DD 66 AA      [19] 5796 	ld	h,-86 (ix)
   6D53 46            [ 7] 5797 	ld	b,(hl)
   6D54 DD 6E FE      [19] 5798 	ld	l,-2 (ix)
   6D57 DD 66 FF      [19] 5799 	ld	h,-1 (ix)
   6D5A 5E            [ 7] 5800 	ld	e,(hl)
   6D5B DD 6E BF      [19] 5801 	ld	l,-65 (ix)
   6D5E DD 66 C0      [19] 5802 	ld	h,-64 (ix)
   6D61 56            [ 7] 5803 	ld	d,(hl)
   6D62 F5            [11] 5804 	push	af
   6D63 33            [ 6] 5805 	inc	sp
   6D64 79            [ 4] 5806 	ld	a,c
   6D65 F5            [11] 5807 	push	af
   6D66 33            [ 6] 5808 	inc	sp
   6D67 C5            [11] 5809 	push	bc
   6D68 33            [ 6] 5810 	inc	sp
   6D69 7B            [ 4] 5811 	ld	a,e
   6D6A F5            [11] 5812 	push	af
   6D6B 33            [ 6] 5813 	inc	sp
   6D6C D5            [11] 5814 	push	de
   6D6D 33            [ 6] 5815 	inc	sp
   6D6E CD D3 49      [17] 5816 	call	_checkCollisions
   6D71 F1            [10] 5817 	pop	af
   6D72 F1            [10] 5818 	pop	af
   6D73 33            [ 6] 5819 	inc	sp
   6D74 2D            [ 4] 5820 	dec	l
   6D75 20 08         [12] 5821 	jr	NZ,00125$
                           5822 ;src/main.c:669: e.life =0;
   6D77 DD 6E FC      [19] 5823 	ld	l,-4 (ix)
   6D7A DD 66 FD      [19] 5824 	ld	h,-3 (ix)
   6D7D 36 00         [10] 5825 	ld	(hl),#0x00
   6D7F                    5826 00125$:
                           5827 ;src/main.c:673: if(arrow == 1){
   6D7F DD 7E A0      [19] 5828 	ld	a,-96 (ix)
   6D82 3D            [ 4] 5829 	dec	a
   6D83 C2 05 6E      [10] 5830 	jp	NZ,00129$
                           5831 ;src/main.c:674: moveObject();
   6D86 CD 02 5D      [17] 5832 	call	_moveObject
                           5833 ;src/main.c:675: bound = checkBoundsCollisions(&object.x,&object.y,object.lx,object.ly,object.sizeX,object.sizeY,0,0,0,0);
   6D89 21 4E 76      [10] 5834 	ld	hl, #(_object + 0x0009) + 0
   6D8C 5E            [ 7] 5835 	ld	e,(hl)
   6D8D 21 4D 76      [10] 5836 	ld	hl, #(_object + 0x0008) + 0
   6D90 4E            [ 7] 5837 	ld	c,(hl)
   6D91 3A 48 76      [13] 5838 	ld	a,(#(_object + 0x0003) + 0)
   6D94 DD 77 DD      [19] 5839 	ld	-35 (ix),a
   6D97 21 47 76      [10] 5840 	ld	hl, #(_object + 0x0002) + 0
   6D9A 56            [ 7] 5841 	ld	d,(hl)
   6D9B 21 00 00      [10] 5842 	ld	hl,#0x0000
   6D9E E5            [11] 5843 	push	hl
   6D9F 2E 00         [ 7] 5844 	ld	l, #0x00
   6DA1 E5            [11] 5845 	push	hl
   6DA2 2E 00         [ 7] 5846 	ld	l, #0x00
   6DA4 E5            [11] 5847 	push	hl
   6DA5 2E 00         [ 7] 5848 	ld	l, #0x00
   6DA7 E5            [11] 5849 	push	hl
   6DA8 7B            [ 4] 5850 	ld	a,e
   6DA9 F5            [11] 5851 	push	af
   6DAA 33            [ 6] 5852 	inc	sp
   6DAB 79            [ 4] 5853 	ld	a,c
   6DAC F5            [11] 5854 	push	af
   6DAD 33            [ 6] 5855 	inc	sp
   6DAE DD 7E DD      [19] 5856 	ld	a,-35 (ix)
   6DB1 F5            [11] 5857 	push	af
   6DB2 33            [ 6] 5858 	inc	sp
   6DB3 D5            [11] 5859 	push	de
   6DB4 33            [ 6] 5860 	inc	sp
   6DB5 21 46 76      [10] 5861 	ld	hl,#(_object + 0x0001)
   6DB8 E5            [11] 5862 	push	hl
   6DB9 21 45 76      [10] 5863 	ld	hl,#_object
   6DBC E5            [11] 5864 	push	hl
   6DBD CD D7 55      [17] 5865 	call	_checkBoundsCollisions
   6DC0 FD 21 10 00   [14] 5866 	ld	iy,#16
   6DC4 FD 39         [15] 5867 	add	iy,sp
   6DC6 FD F9         [10] 5868 	ld	sp,iy
   6DC8 DD 75 F3      [19] 5869 	ld	-13 (ix),l
                           5870 ;src/main.c:676: if(checkCollisions(object.x, object.y, e.x, e.y, 21) == 1){
   6DCB DD 6E CD      [19] 5871 	ld	l,-51 (ix)
   6DCE DD 66 CE      [19] 5872 	ld	h,-50 (ix)
   6DD1 4E            [ 7] 5873 	ld	c,(hl)
   6DD2 DD 6E A9      [19] 5874 	ld	l,-87 (ix)
   6DD5 DD 66 AA      [19] 5875 	ld	h,-86 (ix)
   6DD8 46            [ 7] 5876 	ld	b,(hl)
   6DD9 21 46 76      [10] 5877 	ld	hl, #(_object + 0x0001) + 0
   6DDC 5E            [ 7] 5878 	ld	e,(hl)
   6DDD 21 45 76      [10] 5879 	ld	hl, #_object + 0
   6DE0 56            [ 7] 5880 	ld	d,(hl)
   6DE1 3E 15         [ 7] 5881 	ld	a,#0x15
   6DE3 F5            [11] 5882 	push	af
   6DE4 33            [ 6] 5883 	inc	sp
   6DE5 79            [ 4] 5884 	ld	a,c
   6DE6 F5            [11] 5885 	push	af
   6DE7 33            [ 6] 5886 	inc	sp
   6DE8 C5            [11] 5887 	push	bc
   6DE9 33            [ 6] 5888 	inc	sp
   6DEA 7B            [ 4] 5889 	ld	a,e
   6DEB F5            [11] 5890 	push	af
   6DEC 33            [ 6] 5891 	inc	sp
   6DED D5            [11] 5892 	push	de
   6DEE 33            [ 6] 5893 	inc	sp
   6DEF CD D3 49      [17] 5894 	call	_checkCollisions
   6DF2 F1            [10] 5895 	pop	af
   6DF3 F1            [10] 5896 	pop	af
   6DF4 33            [ 6] 5897 	inc	sp
   6DF5 2D            [ 4] 5898 	dec	l
   6DF6 20 0D         [12] 5899 	jr	NZ,00129$
                           5900 ;src/main.c:677: e.life = 0;
   6DF8 DD 6E FC      [19] 5901 	ld	l,-4 (ix)
   6DFB DD 66 FD      [19] 5902 	ld	h,-3 (ix)
   6DFE 36 00         [10] 5903 	ld	(hl),#0x00
                           5904 ;src/main.c:678: object.vivo = 0;
   6E00 21 4B 76      [10] 5905 	ld	hl,#(_object + 0x0006)
   6E03 36 00         [10] 5906 	ld	(hl),#0x00
   6E05                    5907 00129$:
                           5908 ;src/main.c:682: if(finish == 1) return;
   6E05 DD 7E 9F      [19] 5909 	ld	a,-97 (ix)
   6E08 3D            [ 4] 5910 	dec	a
   6E09 C2 B6 68      [10] 5911 	jp	NZ,00133$
   6E0C                    5912 00135$:
   6E0C DD F9         [10] 5913 	ld	sp, ix
   6E0E DD E1         [14] 5914 	pop	ix
   6E10 C9            [10] 5915 	ret
                           5916 ;src/main.c:689: void credits(){
                           5917 ;	---------------------------------
                           5918 ; Function credits
                           5919 ; ---------------------------------
   6E11                    5920 _credits::
                           5921 ;src/main.c:691: cpct_clearScreen(0);
   6E11 21 00 40      [10] 5922 	ld	hl,#0x4000
   6E14 E5            [11] 5923 	push	hl
   6E15 AF            [ 4] 5924 	xor	a, a
   6E16 F5            [11] 5925 	push	af
   6E17 33            [ 6] 5926 	inc	sp
   6E18 26 C0         [ 7] 5927 	ld	h, #0xC0
   6E1A E5            [11] 5928 	push	hl
   6E1B CD 69 73      [17] 5929 	call	_cpct_memset
                           5930 ;src/main.c:692: memptr = cpct_getScreenPtr(VMEM,10,10);
   6E1E 21 0A 0A      [10] 5931 	ld	hl,#0x0A0A
   6E21 E5            [11] 5932 	push	hl
   6E22 21 00 C0      [10] 5933 	ld	hl,#0xC000
   6E25 E5            [11] 5934 	push	hl
   6E26 CD 5C 74      [17] 5935 	call	_cpct_getScreenPtr
                           5936 ;src/main.c:693: cpct_drawStringM0("Lounge Gladiator",memptr,1,0);
   6E29 EB            [ 4] 5937 	ex	de,hl
   6E2A 01 49 6E      [10] 5938 	ld	bc,#___str_5+0
   6E2D 21 01 00      [10] 5939 	ld	hl,#0x0001
   6E30 E5            [11] 5940 	push	hl
   6E31 D5            [11] 5941 	push	de
   6E32 C5            [11] 5942 	push	bc
   6E33 CD 20 72      [17] 5943 	call	_cpct_drawStringM0
   6E36 21 06 00      [10] 5944 	ld	hl,#6
   6E39 39            [11] 5945 	add	hl,sp
   6E3A F9            [ 6] 5946 	ld	sp,hl
                           5947 ;src/main.c:695: while (1){
   6E3B                    5948 00104$:
                           5949 ;src/main.c:697: cpct_scanKeyboard_f();
   6E3B CD 3F 71      [17] 5950 	call	_cpct_scanKeyboard_f
                           5951 ;src/main.c:701: if(cpct_isKeyPressed(Key_Esc)) {
   6E3E 21 08 04      [10] 5952 	ld	hl,#0x0408
   6E41 CD 33 71      [17] 5953 	call	_cpct_isKeyPressed
   6E44 7D            [ 4] 5954 	ld	a,l
   6E45 B7            [ 4] 5955 	or	a, a
   6E46 28 F3         [12] 5956 	jr	Z,00104$
                           5957 ;src/main.c:703: return;
   6E48 C9            [10] 5958 	ret
   6E49                    5959 ___str_5:
   6E49 4C 6F 75 6E 67 65  5960 	.ascii "Lounge Gladiator"
        20 47 6C 61 64 69
        61 74 6F 72
   6E59 00                 5961 	.db 0x00
                           5962 ;src/main.c:713: void main(void) {
                           5963 ;	---------------------------------
                           5964 ; Function main
                           5965 ; ---------------------------------
   6E5A                    5966 _main::
                           5967 ;src/main.c:717: init();
   6E5A CD DA 4A      [17] 5968 	call	_init
                           5969 ;src/main.c:720: while(1){
   6E5D                    5970 00106$:
                           5971 ;src/main.c:721: x=menu();
   6E5D CD 3C 4B      [17] 5972 	call	_menu
   6E60 5D            [ 4] 5973 	ld	e, l
   6E61 54            [ 4] 5974 	ld	d, h
                           5975 ;src/main.c:722: switch(x){
   6E62 CB 7A         [ 8] 5976 	bit	7, d
   6E64 20 F7         [12] 5977 	jr	NZ,00106$
   6E66 3E 02         [ 7] 5978 	ld	a,#0x02
   6E68 BB            [ 4] 5979 	cp	a, e
   6E69 3E 00         [ 7] 5980 	ld	a,#0x00
   6E6B 9A            [ 4] 5981 	sbc	a, d
   6E6C E2 71 6E      [10] 5982 	jp	PO, 00122$
   6E6F EE 80         [ 7] 5983 	xor	a, #0x80
   6E71                    5984 00122$:
   6E71 FA 5D 6E      [10] 5985 	jp	M,00106$
   6E74 16 00         [ 7] 5986 	ld	d,#0x00
   6E76 21 7C 6E      [10] 5987 	ld	hl,#00123$
   6E79 19            [11] 5988 	add	hl,de
   6E7A 19            [11] 5989 	add	hl,de
                           5990 ;src/main.c:723: case 0: return;break;
                           5991 ;src/main.c:724: case 1: game(); break;
   6E7B E9            [ 4] 5992 	jp	(hl)
   6E7C                    5993 00123$:
   6E7C 18 10         [12] 5994 	jr	00108$
   6E7E 18 04         [12] 5995 	jr	00102$
   6E80 18 07         [12] 5996 	jr	00103$
   6E82 18 0A         [12] 5997 	jr	00108$
   6E84                    5998 00102$:
   6E84 CD 2C 65      [17] 5999 	call	_game
   6E87 18 D4         [12] 6000 	jr	00106$
                           6001 ;src/main.c:725: case 2: credits();break;
   6E89                    6002 00103$:
   6E89 CD 11 6E      [17] 6003 	call	_credits
                           6004 ;src/main.c:726: }
   6E8C 18 CF         [12] 6005 	jr	00106$
   6E8E                    6006 00108$:
   6E8E C9            [10] 6007 	ret
                           6008 	.area _CODE
                           6009 	.area _INITIALIZER
                           6010 	.area _CABS (ABS)
