                              1 ;--------------------------------------------------------
                              2 ; File Created by SDCC : free open source ANSI-C Compiler
                              3 ; Version 3.5.0 #9253 (Sep 26 2015) (CYGWIN)
                              4 ; This file was generated Wed Oct 21 23:59:57 2015
                              5 ;--------------------------------------------------------
                              6 	.module main
                              7 	.optsdcc -mz80
                              8 	
                              9 ;--------------------------------------------------------
                             10 ; Public variables in this module
                             11 ;--------------------------------------------------------
                             12 	.globl _main
                             13 	.globl _credits
                             14 	.globl _game
                             15 	.globl _enemyIa
                             16 	.globl _move
                             17 	.globl _arrowCheckings
                             18 	.globl _shoot
                             19 	.globl _vissionSensor
                             20 	.globl _followPlayer
                             21 	.globl _checkBoundsCollisions
                             22 	.globl _checkBoundsCollisionsEnemy
                             23 	.globl _moveObject
                             24 	.globl _menu
                             25 	.globl _gameOver
                             26 	.globl _initEnemies
                             27 	.globl _initPlayer
                             28 	.globl _init
                             29 	.globl _checkKeyboard
                             30 	.globl _checkArrowCollisions
                             31 	.globl _checkCollisions
                             32 	.globl _patrol
                             33 	.globl _movement
                             34 	.globl _setDirection
                             35 	.globl _chooseDirection
                             36 	.globl _detectPlayerRoom
                             37 	.globl _drawPickUps
                             38 	.globl _drawFatiga
                             39 	.globl _erases
                             40 	.globl _draws
                             41 	.globl _drawStats
                             42 	.globl _erase
                             43 	.globl _draw
                             44 	.globl _drawBullets
                             45 	.globl _drawVida
                             46 	.globl _drawMap
                             47 	.globl _cpct_getScreenPtr
                             48 	.globl _cpct_setPalette
                             49 	.globl _cpct_fw2hw
                             50 	.globl _cpct_waitVSYNC
                             51 	.globl _cpct_setVideoMode
                             52 	.globl _cpct_drawStringM0
                             53 	.globl _cpct_drawSolidBox
                             54 	.globl _cpct_drawSpriteMasked
                             55 	.globl _cpct_drawSprite
                             56 	.globl _cpct_isKeyPressed
                             57 	.globl _cpct_scanKeyboard_f
                             58 	.globl _cpct_scanKeyboard
                             59 	.globl _cpct_memset
                             60 	.globl _cpct_disableFirmware
                             61 	.globl _rand
                             62 	.globl _enemy
                             63 	.globl _player
                             64 	.globl _earrow
                             65 	.globl _parrow
                             66 	.globl _archer
                             67 	.globl _bounds
                             68 	.globl _bound
                             69 	.globl _following
                             70 	.globl _shooted
                             71 	.globl _arrow
                             72 	.globl _finish
                             73 	.globl _path
                             74 	.globl _map
                             75 	.globl _temp
                             76 	.globl _scene
                             77 	.globl _mapa2
                             78 	.globl _mapa1
                             79 	.globl _origins
                             80 	.globl _g_palette
                             81 ;--------------------------------------------------------
                             82 ; special function registers
                             83 ;--------------------------------------------------------
                             84 ;--------------------------------------------------------
                             85 ; ram data
                             86 ;--------------------------------------------------------
                             87 	.area _DATA
   0000                      88 _scene::
   0000                      89 	.ds 240
   00F0                      90 _temp::
   00F0                      91 	.ds 1
   00F1                      92 _map::
   00F1                      93 	.ds 1
   00F2                      94 _path::
   00F2                      95 	.ds 1
   00F3                      96 _finish::
   00F3                      97 	.ds 1
   00F4                      98 _arrow::
   00F4                      99 	.ds 1
   00F5                     100 _shooted::
   00F5                     101 	.ds 1
   00F6                     102 _following::
   00F6                     103 	.ds 1
   00F7                     104 _bound::
   00F7                     105 	.ds 1
   00F8                     106 _bounds::
   00F8                     107 	.ds 1
   00F9                     108 _archer::
   00F9                     109 	.ds 1
   00FA                     110 _parrow::
   00FA                     111 	.ds 10
   0104                     112 _earrow::
   0104                     113 	.ds 10
   010E                     114 _player::
   010E                     115 	.ds 11
   0119                     116 _enemy::
   0119                     117 	.ds 15
                            118 ;--------------------------------------------------------
                            119 ; ram data
                            120 ;--------------------------------------------------------
                            121 	.area _INITIALIZED
                            122 ;--------------------------------------------------------
                            123 ; absolute external ram data
                            124 ;--------------------------------------------------------
                            125 	.area _DABS (ABS)
                            126 ;--------------------------------------------------------
                            127 ; global & static initialisations
                            128 ;--------------------------------------------------------
                            129 	.area _HOME
                            130 	.area _GSINIT
                            131 	.area _GSFINAL
                            132 	.area _GSINIT
                            133 ;--------------------------------------------------------
                            134 ; Home
                            135 ;--------------------------------------------------------
                            136 	.area _HOME
                            137 	.area _HOME
                            138 ;--------------------------------------------------------
                            139 ; code
                            140 ;--------------------------------------------------------
                            141 	.area _CODE
                            142 ;src/draws.h:14: void drawMap(u8 t){
                            143 ;	---------------------------------
                            144 ; Function drawMap
                            145 ; ---------------------------------
   0000                     146 _drawMap::
   0000 DD E5         [15]  147 	push	ix
   0002 DD 21 00 00   [14]  148 	ld	ix,#0
   0006 DD 39         [15]  149 	add	ix,sp
   0008 21 F0 FF      [10]  150 	ld	hl,#-16
   000B 39            [11]  151 	add	hl,sp
   000C F9            [ 6]  152 	ld	sp,hl
                            153 ;src/draws.h:18: if(t == 1){
   000D DD 7E 04      [19]  154 	ld	a,4 (ix)
   0010 3D            [ 4]  155 	dec	a
   0011 C2rB9r00      [10]  156 	jp	NZ,00104$
                            157 ;src/draws.h:19: for(y=0;y<height;y++){
   0014 21 00 00      [10]  158 	ld	hl,#0x0000
   0017 E3            [19]  159 	ex	(sp), hl
   0018 DD 36 F8 00   [19]  160 	ld	-8 (ix),#0x00
   001C DD 36 F9 00   [19]  161 	ld	-7 (ix),#0x00
                            162 ;src/draws.h:20: for(x=0;x<width;x++){
   0020                     163 00130$:
   0020 3Er00         [ 7]  164 	ld	a,#<(_scene)
   0022 DD 86 F8      [19]  165 	add	a, -8 (ix)
   0025 DD 77 FE      [19]  166 	ld	-2 (ix),a
   0028 3Es00         [ 7]  167 	ld	a,#>(_scene)
   002A DD 8E F9      [19]  168 	adc	a, -7 (ix)
   002D DD 77 FF      [19]  169 	ld	-1 (ix),a
   0030 3Er57         [ 7]  170 	ld	a,#<(_mapa1)
   0032 DD 86 F8      [19]  171 	add	a, -8 (ix)
   0035 DD 77 FA      [19]  172 	ld	-6 (ix),a
   0038 3Es02         [ 7]  173 	ld	a,#>(_mapa1)
   003A DD 8E F9      [19]  174 	adc	a, -7 (ix)
   003D DD 77 FB      [19]  175 	ld	-5 (ix),a
   0040 DD 36 F2 00   [19]  176 	ld	-14 (ix),#0x00
   0044 DD 36 F3 00   [19]  177 	ld	-13 (ix),#0x00
   0048                     178 00115$:
                            179 ;src/draws.h:21: scene[y][x] = mapa1[y][x];
   0048 DD 7E FE      [19]  180 	ld	a,-2 (ix)
   004B DD 86 F2      [19]  181 	add	a, -14 (ix)
   004E DD 77 FC      [19]  182 	ld	-4 (ix),a
   0051 DD 7E FF      [19]  183 	ld	a,-1 (ix)
   0054 DD 8E F3      [19]  184 	adc	a, -13 (ix)
   0057 DD 77 FD      [19]  185 	ld	-3 (ix),a
   005A DD 7E FA      [19]  186 	ld	a,-6 (ix)
   005D DD 86 F2      [19]  187 	add	a, -14 (ix)
   0060 DD 77 F6      [19]  188 	ld	-10 (ix),a
   0063 DD 7E FB      [19]  189 	ld	a,-5 (ix)
   0066 DD 8E F3      [19]  190 	adc	a, -13 (ix)
   0069 DD 77 F7      [19]  191 	ld	-9 (ix),a
   006C DD 6E F6      [19]  192 	ld	l,-10 (ix)
   006F DD 66 F7      [19]  193 	ld	h,-9 (ix)
   0072 7E            [ 7]  194 	ld	a,(hl)
   0073 DD 6E FC      [19]  195 	ld	l,-4 (ix)
   0076 DD 66 FD      [19]  196 	ld	h,-3 (ix)
   0079 77            [ 7]  197 	ld	(hl),a
                            198 ;src/draws.h:20: for(x=0;x<width;x++){
   007A DD 34 F2      [23]  199 	inc	-14 (ix)
   007D 20 03         [12]  200 	jr	NZ,00189$
   007F DD 34 F3      [23]  201 	inc	-13 (ix)
   0082                     202 00189$:
   0082 DD 7E F2      [19]  203 	ld	a,-14 (ix)
   0085 D6 14         [ 7]  204 	sub	a, #0x14
   0087 DD 7E F3      [19]  205 	ld	a,-13 (ix)
   008A 17            [ 4]  206 	rla
   008B 3F            [ 4]  207 	ccf
   008C 1F            [ 4]  208 	rra
   008D DE 80         [ 7]  209 	sbc	a, #0x80
   008F 38 B7         [12]  210 	jr	C,00115$
                            211 ;src/draws.h:19: for(y=0;y<height;y++){
   0091 DD 7E F8      [19]  212 	ld	a,-8 (ix)
   0094 C6 14         [ 7]  213 	add	a, #0x14
   0096 DD 77 F8      [19]  214 	ld	-8 (ix),a
   0099 DD 7E F9      [19]  215 	ld	a,-7 (ix)
   009C CE 00         [ 7]  216 	adc	a, #0x00
   009E DD 77 F9      [19]  217 	ld	-7 (ix),a
   00A1 DD 34 F0      [23]  218 	inc	-16 (ix)
   00A4 20 03         [12]  219 	jr	NZ,00190$
   00A6 DD 34 F1      [23]  220 	inc	-15 (ix)
   00A9                     221 00190$:
   00A9 DD 7E F0      [19]  222 	ld	a,-16 (ix)
   00AC D6 0C         [ 7]  223 	sub	a, #0x0C
   00AE DD 7E F1      [19]  224 	ld	a,-15 (ix)
   00B1 17            [ 4]  225 	rla
   00B2 3F            [ 4]  226 	ccf
   00B3 1F            [ 4]  227 	rra
   00B4 DE 80         [ 7]  228 	sbc	a, #0x80
   00B6 DAr20r00      [10]  229 	jp	C,00130$
   00B9                     230 00104$:
                            231 ;src/draws.h:26: if(t == 2){
   00B9 DD 7E 04      [19]  232 	ld	a,4 (ix)
   00BC D6 02         [ 7]  233 	sub	a, #0x02
   00BE C2r66r01      [10]  234 	jp	NZ,00141$
                            235 ;src/draws.h:27: for(y=0;y<height;y++){
   00C1 21 00 00      [10]  236 	ld	hl,#0x0000
   00C4 E3            [19]  237 	ex	(sp), hl
   00C5 DD 36 F6 00   [19]  238 	ld	-10 (ix),#0x00
   00C9 DD 36 F7 00   [19]  239 	ld	-9 (ix),#0x00
                            240 ;src/draws.h:28: for(x=0;x<width;x++){
   00CD                     241 00134$:
   00CD 3Er00         [ 7]  242 	ld	a,#<(_scene)
   00CF DD 86 F6      [19]  243 	add	a, -10 (ix)
   00D2 DD 77 FC      [19]  244 	ld	-4 (ix),a
   00D5 3Es00         [ 7]  245 	ld	a,#>(_scene)
   00D7 DD 8E F7      [19]  246 	adc	a, -9 (ix)
   00DA DD 77 FD      [19]  247 	ld	-3 (ix),a
   00DD 3Er47         [ 7]  248 	ld	a,#<(_mapa2)
   00DF DD 86 F6      [19]  249 	add	a, -10 (ix)
   00E2 DD 77 FA      [19]  250 	ld	-6 (ix),a
   00E5 3Es03         [ 7]  251 	ld	a,#>(_mapa2)
   00E7 DD 8E F7      [19]  252 	adc	a, -9 (ix)
   00EA DD 77 FB      [19]  253 	ld	-5 (ix),a
   00ED DD 36 F2 00   [19]  254 	ld	-14 (ix),#0x00
   00F1 DD 36 F3 00   [19]  255 	ld	-13 (ix),#0x00
   00F5                     256 00119$:
                            257 ;src/draws.h:29: scene[y][x] = mapa2[y][x];
   00F5 DD 7E FC      [19]  258 	ld	a,-4 (ix)
   00F8 DD 86 F2      [19]  259 	add	a, -14 (ix)
   00FB DD 77 FE      [19]  260 	ld	-2 (ix),a
   00FE DD 7E FD      [19]  261 	ld	a,-3 (ix)
   0101 DD 8E F3      [19]  262 	adc	a, -13 (ix)
   0104 DD 77 FF      [19]  263 	ld	-1 (ix),a
   0107 DD 7E FA      [19]  264 	ld	a,-6 (ix)
   010A DD 86 F2      [19]  265 	add	a, -14 (ix)
   010D DD 77 F8      [19]  266 	ld	-8 (ix),a
   0110 DD 7E FB      [19]  267 	ld	a,-5 (ix)
   0113 DD 8E F3      [19]  268 	adc	a, -13 (ix)
   0116 DD 77 F9      [19]  269 	ld	-7 (ix),a
   0119 DD 6E F8      [19]  270 	ld	l,-8 (ix)
   011C DD 66 F9      [19]  271 	ld	h,-7 (ix)
   011F 7E            [ 7]  272 	ld	a,(hl)
   0120 DD 6E FE      [19]  273 	ld	l,-2 (ix)
   0123 DD 66 FF      [19]  274 	ld	h,-1 (ix)
   0126 77            [ 7]  275 	ld	(hl),a
                            276 ;src/draws.h:28: for(x=0;x<width;x++){
   0127 DD 34 F2      [23]  277 	inc	-14 (ix)
   012A 20 03         [12]  278 	jr	NZ,00193$
   012C DD 34 F3      [23]  279 	inc	-13 (ix)
   012F                     280 00193$:
   012F DD 7E F2      [19]  281 	ld	a,-14 (ix)
   0132 D6 14         [ 7]  282 	sub	a, #0x14
   0134 DD 7E F3      [19]  283 	ld	a,-13 (ix)
   0137 17            [ 4]  284 	rla
   0138 3F            [ 4]  285 	ccf
   0139 1F            [ 4]  286 	rra
   013A DE 80         [ 7]  287 	sbc	a, #0x80
   013C 38 B7         [12]  288 	jr	C,00119$
                            289 ;src/draws.h:27: for(y=0;y<height;y++){
   013E DD 7E F6      [19]  290 	ld	a,-10 (ix)
   0141 C6 14         [ 7]  291 	add	a, #0x14
   0143 DD 77 F6      [19]  292 	ld	-10 (ix),a
   0146 DD 7E F7      [19]  293 	ld	a,-9 (ix)
   0149 CE 00         [ 7]  294 	adc	a, #0x00
   014B DD 77 F7      [19]  295 	ld	-9 (ix),a
   014E DD 34 F0      [23]  296 	inc	-16 (ix)
   0151 20 03         [12]  297 	jr	NZ,00194$
   0153 DD 34 F1      [23]  298 	inc	-15 (ix)
   0156                     299 00194$:
   0156 DD 7E F0      [19]  300 	ld	a,-16 (ix)
   0159 D6 0C         [ 7]  301 	sub	a, #0x0C
   015B DD 7E F1      [19]  302 	ld	a,-15 (ix)
   015E 17            [ 4]  303 	rla
   015F 3F            [ 4]  304 	ccf
   0160 1F            [ 4]  305 	rra
   0161 DE 80         [ 7]  306 	sbc	a, #0x80
   0163 DArCDr00      [10]  307 	jp	C,00134$
                            308 ;src/draws.h:34: for(posY=0; posY<height;posY++){
   0166                     309 00141$:
   0166 01 00 00      [10]  310 	ld	bc,#0x0000
   0169 DD 36 F6 00   [19]  311 	ld	-10 (ix),#0x00
   016D DD 36 F7 00   [19]  312 	ld	-9 (ix),#0x00
   0171 11 00 00      [10]  313 	ld	de,#0x0000
                            314 ;src/draws.h:35: for(posX=0; posX<width;posX++){
   0174                     315 00139$:
   0174 21r00r00      [10]  316 	ld	hl,#_scene
   0177 19            [11]  317 	add	hl,de
   0178 DD 75 FC      [19]  318 	ld	-4 (ix),l
   017B DD 74 FD      [19]  319 	ld	-3 (ix),h
   017E DD 36 F4 00   [19]  320 	ld	-12 (ix),#0x00
   0182 DD 36 F5 00   [19]  321 	ld	-11 (ix),#0x00
   0186                     322 00123$:
                            323 ;src/draws.h:36: memptr = cpct_getScreenPtr(VMEM, posX*tilewidth, posY*tileheight);
   0186 79            [ 4]  324 	ld	a,c
   0187 07            [ 4]  325 	rlca
   0188 07            [ 4]  326 	rlca
   0189 07            [ 4]  327 	rlca
   018A 07            [ 4]  328 	rlca
   018B E6 F0         [ 7]  329 	and	a,#0xF0
   018D 67            [ 4]  330 	ld	h,a
   018E DD 7E F4      [19]  331 	ld	a,-12 (ix)
   0191 87            [ 4]  332 	add	a, a
   0192 87            [ 4]  333 	add	a, a
   0193 C5            [11]  334 	push	bc
   0194 D5            [11]  335 	push	de
   0195 E5            [11]  336 	push	hl
   0196 33            [ 6]  337 	inc	sp
   0197 F5            [11]  338 	push	af
   0198 33            [ 6]  339 	inc	sp
   0199 21 00 C0      [10]  340 	ld	hl,#0xC000
   019C E5            [11]  341 	push	hl
   019D CDr00r00      [17]  342 	call	_cpct_getScreenPtr
   01A0 D1            [10]  343 	pop	de
   01A1 C1            [10]  344 	pop	bc
   01A2 E5            [11]  345 	push	hl
   01A3 FD E1         [14]  346 	pop	iy
                            347 ;src/draws.h:37: if(scene[posY][posX] == 1){
   01A5 DD 7E FC      [19]  348 	ld	a,-4 (ix)
   01A8 DD 86 F4      [19]  349 	add	a, -12 (ix)
   01AB 6F            [ 4]  350 	ld	l,a
   01AC DD 7E FD      [19]  351 	ld	a,-3 (ix)
   01AF DD 8E F5      [19]  352 	adc	a, -11 (ix)
   01B2 67            [ 4]  353 	ld	h,a
   01B3 66            [ 7]  354 	ld	h,(hl)
                            355 ;src/draws.h:38: cpct_drawSprite(muro,memptr,tilewidth, tileheight);
   01B4 FD E5         [15]  356 	push	iy
   01B6 F1            [10]  357 	pop	af
   01B7 DD 77 FB      [19]  358 	ld	-5 (ix),a
   01BA FD E5         [15]  359 	push	iy
   01BC 3B            [ 6]  360 	dec	sp
   01BD F1            [10]  361 	pop	af
   01BE 33            [ 6]  362 	inc	sp
   01BF DD 77 FA      [19]  363 	ld	-6 (ix),a
                            364 ;src/draws.h:37: if(scene[posY][posX] == 1){
   01C2 25            [ 4]  365 	dec	h
   01C3 20 16         [12]  366 	jr	NZ,00110$
                            367 ;src/draws.h:38: cpct_drawSprite(muro,memptr,tilewidth, tileheight);
   01C5 C5            [11]  368 	push	bc
   01C6 D5            [11]  369 	push	de
   01C7 21 04 10      [10]  370 	ld	hl,#0x1004
   01CA E5            [11]  371 	push	hl
   01CB DD 6E FA      [19]  372 	ld	l,-6 (ix)
   01CE DD 66 FB      [19]  373 	ld	h,-5 (ix)
   01D1 E5            [11]  374 	push	hl
   01D2 21r00r00      [10]  375 	ld	hl,#_muro
   01D5 E5            [11]  376 	push	hl
   01D6 CDr00r00      [17]  377 	call	_cpct_drawSprite
   01D9 D1            [10]  378 	pop	de
   01DA C1            [10]  379 	pop	bc
   01DB                     380 00110$:
                            381 ;src/draws.h:40: if(scene[posY][posX] == 9){
   01DB 3Er00         [ 7]  382 	ld	a,#<(_scene)
   01DD DD 86 F6      [19]  383 	add	a, -10 (ix)
   01E0 6F            [ 4]  384 	ld	l,a
   01E1 3Es00         [ 7]  385 	ld	a,#>(_scene)
   01E3 DD 8E F7      [19]  386 	adc	a, -9 (ix)
   01E6 67            [ 4]  387 	ld	h,a
   01E7 7D            [ 4]  388 	ld	a,l
   01E8 DD 86 F4      [19]  389 	add	a, -12 (ix)
   01EB 6F            [ 4]  390 	ld	l,a
   01EC 7C            [ 4]  391 	ld	a,h
   01ED DD 8E F5      [19]  392 	adc	a, -11 (ix)
   01F0 67            [ 4]  393 	ld	h,a
   01F1 7E            [ 7]  394 	ld	a,(hl)
   01F2 D6 09         [ 7]  395 	sub	a, #0x09
   01F4 20 19         [12]  396 	jr	NZ,00124$
                            397 ;src/draws.h:41: cpct_drawSolidBox(memptr, 9, tilewidth, tileheight);
   01F6 C5            [11]  398 	push	bc
   01F7 D5            [11]  399 	push	de
   01F8 21 04 10      [10]  400 	ld	hl,#0x1004
   01FB E5            [11]  401 	push	hl
   01FC 3E 09         [ 7]  402 	ld	a,#0x09
   01FE F5            [11]  403 	push	af
   01FF 33            [ 6]  404 	inc	sp
   0200 DD 6E FA      [19]  405 	ld	l,-6 (ix)
   0203 DD 66 FB      [19]  406 	ld	h,-5 (ix)
   0206 E5            [11]  407 	push	hl
   0207 CDr00r00      [17]  408 	call	_cpct_drawSolidBox
   020A F1            [10]  409 	pop	af
   020B F1            [10]  410 	pop	af
   020C 33            [ 6]  411 	inc	sp
   020D D1            [10]  412 	pop	de
   020E C1            [10]  413 	pop	bc
   020F                     414 00124$:
                            415 ;src/draws.h:35: for(posX=0; posX<width;posX++){
   020F DD 34 F4      [23]  416 	inc	-12 (ix)
   0212 20 03         [12]  417 	jr	NZ,00199$
   0214 DD 34 F5      [23]  418 	inc	-11 (ix)
   0217                     419 00199$:
   0217 DD 7E F4      [19]  420 	ld	a,-12 (ix)
   021A D6 14         [ 7]  421 	sub	a, #0x14
   021C DD 7E F5      [19]  422 	ld	a,-11 (ix)
   021F 17            [ 4]  423 	rla
   0220 3F            [ 4]  424 	ccf
   0221 1F            [ 4]  425 	rra
   0222 DE 80         [ 7]  426 	sbc	a, #0x80
   0224 DAr86r01      [10]  427 	jp	C,00123$
                            428 ;src/draws.h:34: for(posY=0; posY<height;posY++){
   0227 DD 7E F6      [19]  429 	ld	a,-10 (ix)
   022A C6 14         [ 7]  430 	add	a, #0x14
   022C DD 77 F6      [19]  431 	ld	-10 (ix),a
   022F DD 7E F7      [19]  432 	ld	a,-9 (ix)
   0232 CE 00         [ 7]  433 	adc	a, #0x00
   0234 DD 77 F7      [19]  434 	ld	-9 (ix),a
   0237 21 14 00      [10]  435 	ld	hl,#0x0014
   023A 19            [11]  436 	add	hl,de
   023B EB            [ 4]  437 	ex	de,hl
   023C 03            [ 6]  438 	inc	bc
   023D 79            [ 4]  439 	ld	a,c
   023E D6 0C         [ 7]  440 	sub	a, #0x0C
   0240 78            [ 4]  441 	ld	a,b
   0241 17            [ 4]  442 	rla
   0242 3F            [ 4]  443 	ccf
   0243 1F            [ 4]  444 	rra
   0244 DE 80         [ 7]  445 	sbc	a, #0x80
   0246 DAr74r01      [10]  446 	jp	C,00139$
   0249 DD F9         [10]  447 	ld	sp, ix
   024B DD E1         [14]  448 	pop	ix
   024D C9            [10]  449 	ret
   024E                     450 _g_palette:
   024E 00                  451 	.db #0x00	; 0
   024F 1A                  452 	.db #0x1A	; 26
   0250 06                  453 	.db #0x06	; 6
   0251 0D                  454 	.db #0x0D	; 13
   0252 00                  455 	.db 0x00
   0253                     456 _origins:
   0253 00                  457 	.db #0x00	; 0
   0254 50                  458 	.db #0x50	; 80	'P'
   0255 34                  459 	.db #0x34	; 52	'4'
   0256 50                  460 	.db #0x50	; 80	'P'
   0257                     461 _mapa1:
   0257 01                  462 	.db #0x01	; 1
   0258 01                  463 	.db #0x01	; 1
   0259 01                  464 	.db #0x01	; 1
   025A 01                  465 	.db #0x01	; 1
   025B 01                  466 	.db #0x01	; 1
   025C 01                  467 	.db #0x01	; 1
   025D 01                  468 	.db #0x01	; 1
   025E 01                  469 	.db #0x01	; 1
   025F 01                  470 	.db #0x01	; 1
   0260 01                  471 	.db #0x01	; 1
   0261 01                  472 	.db #0x01	; 1
   0262 01                  473 	.db #0x01	; 1
   0263 01                  474 	.db #0x01	; 1
   0264 01                  475 	.db #0x01	; 1
   0265 01                  476 	.db #0x01	; 1
   0266 01                  477 	.db #0x01	; 1
   0267 01                  478 	.db #0x01	; 1
   0268 01                  479 	.db #0x01	; 1
   0269 01                  480 	.db #0x01	; 1
   026A 01                  481 	.db #0x01	; 1
   026B 01                  482 	.db #0x01	; 1
   026C 07                  483 	.db #0x07	; 7
   026D 05                  484 	.db #0x05	; 5
   026E 07                  485 	.db #0x07	; 7
   026F 07                  486 	.db #0x07	; 7
   0270 07                  487 	.db #0x07	; 7
   0271 07                  488 	.db #0x07	; 7
   0272 07                  489 	.db #0x07	; 7
   0273 07                  490 	.db #0x07	; 7
   0274 07                  491 	.db #0x07	; 7
   0275 07                  492 	.db #0x07	; 7
   0276 07                  493 	.db #0x07	; 7
   0277 07                  494 	.db #0x07	; 7
   0278 07                  495 	.db #0x07	; 7
   0279 07                  496 	.db #0x07	; 7
   027A 07                  497 	.db #0x07	; 7
   027B 07                  498 	.db #0x07	; 7
   027C 07                  499 	.db #0x07	; 7
   027D 07                  500 	.db #0x07	; 7
   027E 01                  501 	.db #0x01	; 1
   027F 01                  502 	.db #0x01	; 1
   0280 07                  503 	.db #0x07	; 7
   0281 07                  504 	.db #0x07	; 7
   0282 07                  505 	.db #0x07	; 7
   0283 07                  506 	.db #0x07	; 7
   0284 07                  507 	.db #0x07	; 7
   0285 07                  508 	.db #0x07	; 7
   0286 07                  509 	.db #0x07	; 7
   0287 07                  510 	.db #0x07	; 7
   0288 07                  511 	.db #0x07	; 7
   0289 07                  512 	.db #0x07	; 7
   028A 07                  513 	.db #0x07	; 7
   028B 07                  514 	.db #0x07	; 7
   028C 07                  515 	.db #0x07	; 7
   028D 07                  516 	.db #0x07	; 7
   028E 07                  517 	.db #0x07	; 7
   028F 07                  518 	.db #0x07	; 7
   0290 07                  519 	.db #0x07	; 7
   0291 07                  520 	.db #0x07	; 7
   0292 01                  521 	.db #0x01	; 1
   0293 01                  522 	.db #0x01	; 1
   0294 01                  523 	.db #0x01	; 1
   0295 01                  524 	.db #0x01	; 1
   0296 01                  525 	.db #0x01	; 1
   0297 01                  526 	.db #0x01	; 1
   0298 01                  527 	.db #0x01	; 1
   0299 01                  528 	.db #0x01	; 1
   029A 01                  529 	.db #0x01	; 1
   029B 01                  530 	.db #0x01	; 1
   029C 07                  531 	.db #0x07	; 7
   029D 07                  532 	.db #0x07	; 7
   029E 01                  533 	.db #0x01	; 1
   029F 01                  534 	.db #0x01	; 1
   02A0 01                  535 	.db #0x01	; 1
   02A1 01                  536 	.db #0x01	; 1
   02A2 07                  537 	.db #0x07	; 7
   02A3 07                  538 	.db #0x07	; 7
   02A4 01                  539 	.db #0x01	; 1
   02A5 01                  540 	.db #0x01	; 1
   02A6 01                  541 	.db #0x01	; 1
   02A7 01                  542 	.db #0x01	; 1
   02A8 00                  543 	.db #0x00	; 0
   02A9 00                  544 	.db #0x00	; 0
   02AA 00                  545 	.db #0x00	; 0
   02AB 00                  546 	.db #0x00	; 0
   02AC 00                  547 	.db #0x00	; 0
   02AD 00                  548 	.db #0x00	; 0
   02AE 00                  549 	.db #0x00	; 0
   02AF 06                  550 	.db #0x06	; 6
   02B0 06                  551 	.db #0x06	; 6
   02B1 06                  552 	.db #0x06	; 6
   02B2 01                  553 	.db #0x01	; 1
   02B3 03                  554 	.db #0x03	; 3
   02B4 03                  555 	.db #0x03	; 3
   02B5 03                  556 	.db #0x03	; 3
   02B6 03                  557 	.db #0x03	; 3
   02B7 03                  558 	.db #0x03	; 3
   02B8 03                  559 	.db #0x03	; 3
   02B9 03                  560 	.db #0x03	; 3
   02BA 01                  561 	.db #0x01	; 1
   02BB 00                  562 	.db #0x00	; 0
   02BC 00                  563 	.db #0x00	; 0
   02BD 01                  564 	.db #0x01	; 1
   02BE 01                  565 	.db #0x01	; 1
   02BF 04                  566 	.db #0x04	; 4
   02C0 04                  567 	.db #0x04	; 4
   02C1 01                  568 	.db #0x01	; 1
   02C2 01                  569 	.db #0x01	; 1
   02C3 06                  570 	.db #0x06	; 6
   02C4 06                  571 	.db #0x06	; 6
   02C5 06                  572 	.db #0x06	; 6
   02C6 01                  573 	.db #0x01	; 1
   02C7 03                  574 	.db #0x03	; 3
   02C8 03                  575 	.db #0x03	; 3
   02C9 03                  576 	.db #0x03	; 3
   02CA 03                  577 	.db #0x03	; 3
   02CB 03                  578 	.db #0x03	; 3
   02CC 03                  579 	.db #0x03	; 3
   02CD 03                  580 	.db #0x03	; 3
   02CE 01                  581 	.db #0x01	; 1
   02CF 01                  582 	.db #0x01	; 1
   02D0 00                  583 	.db #0x00	; 0
   02D1 01                  584 	.db #0x01	; 1
   02D2 04                  585 	.db #0x04	; 4
   02D3 04                  586 	.db #0x04	; 4
   02D4 04                  587 	.db #0x04	; 4
   02D5 04                  588 	.db #0x04	; 4
   02D6 01                  589 	.db #0x01	; 1
   02D7 06                  590 	.db #0x06	; 6
   02D8 06                  591 	.db #0x06	; 6
   02D9 06                  592 	.db #0x06	; 6
   02DA 01                  593 	.db #0x01	; 1
   02DB 03                  594 	.db #0x03	; 3
   02DC 03                  595 	.db #0x03	; 3
   02DD 03                  596 	.db #0x03	; 3
   02DE 03                  597 	.db #0x03	; 3
   02DF 03                  598 	.db #0x03	; 3
   02E0 03                  599 	.db #0x03	; 3
   02E1 03                  600 	.db #0x03	; 3
   02E2 01                  601 	.db #0x01	; 1
   02E3 01                  602 	.db #0x01	; 1
   02E4 00                  603 	.db #0x00	; 0
   02E5 01                  604 	.db #0x01	; 1
   02E6 04                  605 	.db #0x04	; 4
   02E7 04                  606 	.db #0x04	; 4
   02E8 04                  607 	.db #0x04	; 4
   02E9 04                  608 	.db #0x04	; 4
   02EA 01                  609 	.db #0x01	; 1
   02EB 06                  610 	.db #0x06	; 6
   02EC 06                  611 	.db #0x06	; 6
   02ED 06                  612 	.db #0x06	; 6
   02EE 01                  613 	.db #0x01	; 1
   02EF 03                  614 	.db #0x03	; 3
   02F0 03                  615 	.db #0x03	; 3
   02F1 03                  616 	.db #0x03	; 3
   02F2 03                  617 	.db #0x03	; 3
   02F3 03                  618 	.db #0x03	; 3
   02F4 03                  619 	.db #0x03	; 3
   02F5 03                  620 	.db #0x03	; 3
   02F6 01                  621 	.db #0x01	; 1
   02F7 01                  622 	.db #0x01	; 1
   02F8 00                  623 	.db #0x00	; 0
   02F9 01                  624 	.db #0x01	; 1
   02FA 04                  625 	.db #0x04	; 4
   02FB 04                  626 	.db #0x04	; 4
   02FC 04                  627 	.db #0x04	; 4
   02FD 04                  628 	.db #0x04	; 4
   02FE 01                  629 	.db #0x01	; 1
   02FF 06                  630 	.db #0x06	; 6
   0300 06                  631 	.db #0x06	; 6
   0301 06                  632 	.db #0x06	; 6
   0302 01                  633 	.db #0x01	; 1
   0303 03                  634 	.db #0x03	; 3
   0304 03                  635 	.db #0x03	; 3
   0305 03                  636 	.db #0x03	; 3
   0306 03                  637 	.db #0x03	; 3
   0307 03                  638 	.db #0x03	; 3
   0308 03                  639 	.db #0x03	; 3
   0309 03                  640 	.db #0x03	; 3
   030A 01                  641 	.db #0x01	; 1
   030B 01                  642 	.db #0x01	; 1
   030C 00                  643 	.db #0x00	; 0
   030D 01                  644 	.db #0x01	; 1
   030E 04                  645 	.db #0x04	; 4
   030F 04                  646 	.db #0x04	; 4
   0310 04                  647 	.db #0x04	; 4
   0311 04                  648 	.db #0x04	; 4
   0312 01                  649 	.db #0x01	; 1
   0313 06                  650 	.db #0x06	; 6
   0314 06                  651 	.db #0x06	; 6
   0315 06                  652 	.db #0x06	; 6
   0316 01                  653 	.db #0x01	; 1
   0317 03                  654 	.db #0x03	; 3
   0318 03                  655 	.db #0x03	; 3
   0319 03                  656 	.db #0x03	; 3
   031A 03                  657 	.db #0x03	; 3
   031B 03                  658 	.db #0x03	; 3
   031C 03                  659 	.db #0x03	; 3
   031D 03                  660 	.db #0x03	; 3
   031E 01                  661 	.db #0x01	; 1
   031F 01                  662 	.db #0x01	; 1
   0320 02                  663 	.db #0x02	; 2
   0321 01                  664 	.db #0x01	; 1
   0322 04                  665 	.db #0x04	; 4
   0323 04                  666 	.db #0x04	; 4
   0324 04                  667 	.db #0x04	; 4
   0325 04                  668 	.db #0x04	; 4
   0326 01                  669 	.db #0x01	; 1
   0327 06                  670 	.db #0x06	; 6
   0328 06                  671 	.db #0x06	; 6
   0329 06                  672 	.db #0x06	; 6
   032A 03                  673 	.db #0x03	; 3
   032B 03                  674 	.db #0x03	; 3
   032C 03                  675 	.db #0x03	; 3
   032D 03                  676 	.db #0x03	; 3
   032E 03                  677 	.db #0x03	; 3
   032F 03                  678 	.db #0x03	; 3
   0330 03                  679 	.db #0x03	; 3
   0331 03                  680 	.db #0x03	; 3
   0332 01                  681 	.db #0x01	; 1
   0333 01                  682 	.db #0x01	; 1
   0334 01                  683 	.db #0x01	; 1
   0335 01                  684 	.db #0x01	; 1
   0336 01                  685 	.db #0x01	; 1
   0337 01                  686 	.db #0x01	; 1
   0338 01                  687 	.db #0x01	; 1
   0339 01                  688 	.db #0x01	; 1
   033A 01                  689 	.db #0x01	; 1
   033B 01                  690 	.db #0x01	; 1
   033C 01                  691 	.db #0x01	; 1
   033D 01                  692 	.db #0x01	; 1
   033E 01                  693 	.db #0x01	; 1
   033F 01                  694 	.db #0x01	; 1
   0340 01                  695 	.db #0x01	; 1
   0341 01                  696 	.db #0x01	; 1
   0342 09                  697 	.db #0x09	; 9
   0343 09                  698 	.db #0x09	; 9
   0344 01                  699 	.db #0x01	; 1
   0345 01                  700 	.db #0x01	; 1
   0346 01                  701 	.db #0x01	; 1
   0347                     702 _mapa2:
   0347 01                  703 	.db #0x01	; 1
   0348 01                  704 	.db #0x01	; 1
   0349 01                  705 	.db #0x01	; 1
   034A 01                  706 	.db #0x01	; 1
   034B 01                  707 	.db #0x01	; 1
   034C 01                  708 	.db #0x01	; 1
   034D 01                  709 	.db #0x01	; 1
   034E 01                  710 	.db #0x01	; 1
   034F 01                  711 	.db #0x01	; 1
   0350 01                  712 	.db #0x01	; 1
   0351 01                  713 	.db #0x01	; 1
   0352 01                  714 	.db #0x01	; 1
   0353 01                  715 	.db #0x01	; 1
   0354 01                  716 	.db #0x01	; 1
   0355 01                  717 	.db #0x01	; 1
   0356 01                  718 	.db #0x01	; 1
   0357 01                  719 	.db #0x01	; 1
   0358 01                  720 	.db #0x01	; 1
   0359 01                  721 	.db #0x01	; 1
   035A 01                  722 	.db #0x01	; 1
   035B 01                  723 	.db #0x01	; 1
   035C 00                  724 	.db #0x00	; 0
   035D 00                  725 	.db #0x00	; 0
   035E 00                  726 	.db #0x00	; 0
   035F 00                  727 	.db #0x00	; 0
   0360 01                  728 	.db #0x01	; 1
   0361 00                  729 	.db #0x00	; 0
   0362 00                  730 	.db #0x00	; 0
   0363 00                  731 	.db #0x00	; 0
   0364 00                  732 	.db #0x00	; 0
   0365 00                  733 	.db #0x00	; 0
   0366 00                  734 	.db #0x00	; 0
   0367 00                  735 	.db #0x00	; 0
   0368 00                  736 	.db #0x00	; 0
   0369 00                  737 	.db #0x00	; 0
   036A 00                  738 	.db #0x00	; 0
   036B 00                  739 	.db #0x00	; 0
   036C 00                  740 	.db #0x00	; 0
   036D 00                  741 	.db #0x00	; 0
   036E 06                  742 	.db #0x06	; 6
   036F 01                  743 	.db #0x01	; 1
   0370 00                  744 	.db #0x00	; 0
   0371 00                  745 	.db #0x00	; 0
   0372 01                  746 	.db #0x01	; 1
   0373 00                  747 	.db #0x00	; 0
   0374 00                  748 	.db #0x00	; 0
   0375 00                  749 	.db #0x00	; 0
   0376 00                  750 	.db #0x00	; 0
   0377 00                  751 	.db #0x00	; 0
   0378 00                  752 	.db #0x00	; 0
   0379 00                  753 	.db #0x00	; 0
   037A 00                  754 	.db #0x00	; 0
   037B 00                  755 	.db #0x00	; 0
   037C 00                  756 	.db #0x00	; 0
   037D 00                  757 	.db #0x00	; 0
   037E 00                  758 	.db #0x00	; 0
   037F 00                  759 	.db #0x00	; 0
   0380 00                  760 	.db #0x00	; 0
   0381 00                  761 	.db #0x00	; 0
   0382 01                  762 	.db #0x01	; 1
   0383 01                  763 	.db #0x01	; 1
   0384 00                  764 	.db #0x00	; 0
   0385 01                  765 	.db #0x01	; 1
   0386 01                  766 	.db #0x01	; 1
   0387 01                  767 	.db #0x01	; 1
   0388 01                  768 	.db #0x01	; 1
   0389 00                  769 	.db #0x00	; 0
   038A 00                  770 	.db #0x00	; 0
   038B 01                  771 	.db #0x01	; 1
   038C 01                  772 	.db #0x01	; 1
   038D 01                  773 	.db #0x01	; 1
   038E 01                  774 	.db #0x01	; 1
   038F 01                  775 	.db #0x01	; 1
   0390 01                  776 	.db #0x01	; 1
   0391 01                  777 	.db #0x01	; 1
   0392 01                  778 	.db #0x01	; 1
   0393 01                  779 	.db #0x01	; 1
   0394 01                  780 	.db #0x01	; 1
   0395 01                  781 	.db #0x01	; 1
   0396 01                  782 	.db #0x01	; 1
   0397 01                  783 	.db #0x01	; 1
   0398 00                  784 	.db #0x00	; 0
   0399 05                  785 	.db #0x05	; 5
   039A 01                  786 	.db #0x01	; 1
   039B 00                  787 	.db #0x00	; 0
   039C 00                  788 	.db #0x00	; 0
   039D 00                  789 	.db #0x00	; 0
   039E 00                  790 	.db #0x00	; 0
   039F 00                  791 	.db #0x00	; 0
   03A0 00                  792 	.db #0x00	; 0
   03A1 00                  793 	.db #0x00	; 0
   03A2 01                  794 	.db #0x01	; 1
   03A3 00                  795 	.db #0x00	; 0
   03A4 00                  796 	.db #0x00	; 0
   03A5 00                  797 	.db #0x00	; 0
   03A6 00                  798 	.db #0x00	; 0
   03A7 00                  799 	.db #0x00	; 0
   03A8 00                  800 	.db #0x00	; 0
   03A9 00                  801 	.db #0x00	; 0
   03AA 01                  802 	.db #0x01	; 1
   03AB 01                  803 	.db #0x01	; 1
   03AC 00                  804 	.db #0x00	; 0
   03AD 01                  805 	.db #0x01	; 1
   03AE 01                  806 	.db #0x01	; 1
   03AF 00                  807 	.db #0x00	; 0
   03B0 01                  808 	.db #0x01	; 1
   03B1 01                  809 	.db #0x01	; 1
   03B2 01                  810 	.db #0x01	; 1
   03B3 02                  811 	.db #0x02	; 2
   03B4 02                  812 	.db #0x02	; 2
   03B5 02                  813 	.db #0x02	; 2
   03B6 01                  814 	.db #0x01	; 1
   03B7 00                  815 	.db #0x00	; 0
   03B8 00                  816 	.db #0x00	; 0
   03B9 00                  817 	.db #0x00	; 0
   03BA 05                  818 	.db #0x05	; 5
   03BB 00                  819 	.db #0x00	; 0
   03BC 00                  820 	.db #0x00	; 0
   03BD 00                  821 	.db #0x00	; 0
   03BE 01                  822 	.db #0x01	; 1
   03BF 01                  823 	.db #0x01	; 1
   03C0 00                  824 	.db #0x00	; 0
   03C1 01                  825 	.db #0x01	; 1
   03C2 02                  826 	.db #0x02	; 2
   03C3 02                  827 	.db #0x02	; 2
   03C4 02                  828 	.db #0x02	; 2
   03C5 02                  829 	.db #0x02	; 2
   03C6 01                  830 	.db #0x01	; 1
   03C7 00                  831 	.db #0x00	; 0
   03C8 00                  832 	.db #0x00	; 0
   03C9 00                  833 	.db #0x00	; 0
   03CA 01                  834 	.db #0x01	; 1
   03CB 00                  835 	.db #0x00	; 0
   03CC 00                  836 	.db #0x00	; 0
   03CD 00                  837 	.db #0x00	; 0
   03CE 05                  838 	.db #0x05	; 5
   03CF 00                  839 	.db #0x00	; 0
   03D0 00                  840 	.db #0x00	; 0
   03D1 00                  841 	.db #0x00	; 0
   03D2 01                  842 	.db #0x01	; 1
   03D3 01                  843 	.db #0x01	; 1
   03D4 00                  844 	.db #0x00	; 0
   03D5 01                  845 	.db #0x01	; 1
   03D6 02                  846 	.db #0x02	; 2
   03D7 02                  847 	.db #0x02	; 2
   03D8 02                  848 	.db #0x02	; 2
   03D9 02                  849 	.db #0x02	; 2
   03DA 01                  850 	.db #0x01	; 1
   03DB 02                  851 	.db #0x02	; 2
   03DC 02                  852 	.db #0x02	; 2
   03DD 02                  853 	.db #0x02	; 2
   03DE 01                  854 	.db #0x01	; 1
   03DF 00                  855 	.db #0x00	; 0
   03E0 00                  856 	.db #0x00	; 0
   03E1 00                  857 	.db #0x00	; 0
   03E2 05                  858 	.db #0x05	; 5
   03E3 00                  859 	.db #0x00	; 0
   03E4 00                  860 	.db #0x00	; 0
   03E5 00                  861 	.db #0x00	; 0
   03E6 01                  862 	.db #0x01	; 1
   03E7 01                  863 	.db #0x01	; 1
   03E8 00                  864 	.db #0x00	; 0
   03E9 01                  865 	.db #0x01	; 1
   03EA 02                  866 	.db #0x02	; 2
   03EB 02                  867 	.db #0x02	; 2
   03EC 02                  868 	.db #0x02	; 2
   03ED 02                  869 	.db #0x02	; 2
   03EE 01                  870 	.db #0x01	; 1
   03EF 00                  871 	.db #0x00	; 0
   03F0 00                  872 	.db #0x00	; 0
   03F1 00                  873 	.db #0x00	; 0
   03F2 01                  874 	.db #0x01	; 1
   03F3 00                  875 	.db #0x00	; 0
   03F4 00                  876 	.db #0x00	; 0
   03F5 00                  877 	.db #0x00	; 0
   03F6 00                  878 	.db #0x00	; 0
   03F7 00                  879 	.db #0x00	; 0
   03F8 00                  880 	.db #0x00	; 0
   03F9 00                  881 	.db #0x00	; 0
   03FA 01                  882 	.db #0x01	; 1
   03FB 01                  883 	.db #0x01	; 1
   03FC 00                  884 	.db #0x00	; 0
   03FD 01                  885 	.db #0x01	; 1
   03FE 02                  886 	.db #0x02	; 2
   03FF 02                  887 	.db #0x02	; 2
   0400 02                  888 	.db #0x02	; 2
   0401 02                  889 	.db #0x02	; 2
   0402 01                  890 	.db #0x01	; 1
   0403 02                  891 	.db #0x02	; 2
   0404 02                  892 	.db #0x02	; 2
   0405 02                  893 	.db #0x02	; 2
   0406 01                  894 	.db #0x01	; 1
   0407 00                  895 	.db #0x00	; 0
   0408 00                  896 	.db #0x00	; 0
   0409 00                  897 	.db #0x00	; 0
   040A 00                  898 	.db #0x00	; 0
   040B 00                  899 	.db #0x00	; 0
   040C 00                  900 	.db #0x00	; 0
   040D 00                  901 	.db #0x00	; 0
   040E 01                  902 	.db #0x01	; 1
   040F 01                  903 	.db #0x01	; 1
   0410 05                  904 	.db #0x05	; 5
   0411 01                  905 	.db #0x01	; 1
   0412 02                  906 	.db #0x02	; 2
   0413 02                  907 	.db #0x02	; 2
   0414 02                  908 	.db #0x02	; 2
   0415 02                  909 	.db #0x02	; 2
   0416 01                  910 	.db #0x01	; 1
   0417 00                  911 	.db #0x00	; 0
   0418 00                  912 	.db #0x00	; 0
   0419 00                  913 	.db #0x00	; 0
   041A 00                  914 	.db #0x00	; 0
   041B 00                  915 	.db #0x00	; 0
   041C 00                  916 	.db #0x00	; 0
   041D 00                  917 	.db #0x00	; 0
   041E 00                  918 	.db #0x00	; 0
   041F 00                  919 	.db #0x00	; 0
   0420 00                  920 	.db #0x00	; 0
   0421 00                  921 	.db #0x00	; 0
   0422 01                  922 	.db #0x01	; 1
   0423 01                  923 	.db #0x01	; 1
   0424 01                  924 	.db #0x01	; 1
   0425 01                  925 	.db #0x01	; 1
   0426 01                  926 	.db #0x01	; 1
   0427 01                  927 	.db #0x01	; 1
   0428 01                  928 	.db #0x01	; 1
   0429 01                  929 	.db #0x01	; 1
   042A 01                  930 	.db #0x01	; 1
   042B 01                  931 	.db #0x01	; 1
   042C 01                  932 	.db #0x01	; 1
   042D 01                  933 	.db #0x01	; 1
   042E 01                  934 	.db #0x01	; 1
   042F 01                  935 	.db #0x01	; 1
   0430 01                  936 	.db #0x01	; 1
   0431 01                  937 	.db #0x01	; 1
   0432 00                  938 	.db #0x00	; 0
   0433 01                  939 	.db #0x01	; 1
   0434 01                  940 	.db #0x01	; 1
   0435 01                  941 	.db #0x01	; 1
   0436 01                  942 	.db #0x01	; 1
                            943 ;src/draws.h:48: void drawVida(u8 life,u8 pos){
                            944 ;	---------------------------------
                            945 ; Function drawVida
                            946 ; ---------------------------------
   0437                     947 _drawVida::
   0437 DD E5         [15]  948 	push	ix
   0439 DD 21 00 00   [14]  949 	ld	ix,#0
   043D DD 39         [15]  950 	add	ix,sp
                            951 ;src/draws.h:51: u8 p = pos;
   043F DD 56 05      [19]  952 	ld	d,5 (ix)
                            953 ;src/draws.h:53: for(i=1;i<=3;i++){
   0442 1E 01         [ 7]  954 	ld	e,#0x01
   0444                     955 00105$:
                            956 ;src/draws.h:54: memptr = cpct_getScreenPtr(VMEM,p,192);
   0444 D5            [11]  957 	push	de
   0445 3E C0         [ 7]  958 	ld	a,#0xC0
   0447 F5            [11]  959 	push	af
   0448 33            [ 6]  960 	inc	sp
   0449 D5            [11]  961 	push	de
   044A 33            [ 6]  962 	inc	sp
   044B 21 00 C0      [10]  963 	ld	hl,#0xC000
   044E E5            [11]  964 	push	hl
   044F CDr00r00      [17]  965 	call	_cpct_getScreenPtr
   0452 D1            [10]  966 	pop	de
                            967 ;src/draws.h:55: p+=5;
   0453 7A            [ 4]  968 	ld	a,d
   0454 C6 05         [ 7]  969 	add	a, #0x05
   0456 57            [ 4]  970 	ld	d,a
                            971 ;src/draws.h:56: if(i<=life)  cpct_drawSpriteMasked(corazon_lleno, memptr, 4, 8);
   0457 4D            [ 4]  972 	ld	c, l
   0458 44            [ 4]  973 	ld	b, h
   0459 DD 7E 04      [19]  974 	ld	a,4 (ix)
   045C 93            [ 4]  975 	sub	a, e
   045D 38 10         [12]  976 	jr	C,00102$
   045F D5            [11]  977 	push	de
   0460 21 04 08      [10]  978 	ld	hl,#0x0804
   0463 E5            [11]  979 	push	hl
   0464 C5            [11]  980 	push	bc
   0465 21r00r00      [10]  981 	ld	hl,#_corazon_lleno
   0468 E5            [11]  982 	push	hl
   0469 CDr00r00      [17]  983 	call	_cpct_drawSpriteMasked
   046C D1            [10]  984 	pop	de
   046D 18 20         [12]  985 	jr	00106$
   046F                     986 00102$:
                            987 ;src/draws.h:58: cpct_drawSolidBox(memptr,0,4,8);
   046F C5            [11]  988 	push	bc
   0470 D5            [11]  989 	push	de
   0471 21 04 08      [10]  990 	ld	hl,#0x0804
   0474 E5            [11]  991 	push	hl
   0475 AF            [ 4]  992 	xor	a, a
   0476 F5            [11]  993 	push	af
   0477 33            [ 6]  994 	inc	sp
   0478 C5            [11]  995 	push	bc
   0479 CDr00r00      [17]  996 	call	_cpct_drawSolidBox
   047C F1            [10]  997 	pop	af
   047D F1            [10]  998 	pop	af
   047E 33            [ 6]  999 	inc	sp
   047F D1            [10] 1000 	pop	de
   0480 C1            [10] 1001 	pop	bc
                           1002 ;src/draws.h:59: cpct_drawSpriteMasked(corazon_roto, memptr, 4, 8);
   0481 D5            [11] 1003 	push	de
   0482 21 04 08      [10] 1004 	ld	hl,#0x0804
   0485 E5            [11] 1005 	push	hl
   0486 C5            [11] 1006 	push	bc
   0487 21r00r00      [10] 1007 	ld	hl,#_corazon_roto
   048A E5            [11] 1008 	push	hl
   048B CDr00r00      [17] 1009 	call	_cpct_drawSpriteMasked
   048E D1            [10] 1010 	pop	de
   048F                    1011 00106$:
                           1012 ;src/draws.h:53: for(i=1;i<=3;i++){
   048F 1C            [ 4] 1013 	inc	e
   0490 3E 03         [ 7] 1014 	ld	a,#0x03
   0492 93            [ 4] 1015 	sub	a, e
   0493 30 AF         [12] 1016 	jr	NC,00105$
   0495 DD E1         [14] 1017 	pop	ix
   0497 C9            [10] 1018 	ret
                           1019 ;src/draws.h:65: void drawBullets(u8 bullet,u8 pos){
                           1020 ;	---------------------------------
                           1021 ; Function drawBullets
                           1022 ; ---------------------------------
   0498                    1023 _drawBullets::
   0498 DD E5         [15] 1024 	push	ix
   049A DD 21 00 00   [14] 1025 	ld	ix,#0
   049E DD 39         [15] 1026 	add	ix,sp
   04A0 3B            [ 6] 1027 	dec	sp
                           1028 ;src/draws.h:67: int p = pos;
   04A1 DD 4E 05      [19] 1029 	ld	c,5 (ix)
   04A4 06 00         [ 7] 1030 	ld	b,#0x00
                           1031 ;src/draws.h:69: for(i=1;i<=3;i++){
   04A6 DD 36 FF 01   [19] 1032 	ld	-1 (ix),#0x01
   04AA                    1033 00105$:
                           1034 ;src/draws.h:70: memptr = cpct_getScreenPtr(VMEM,p,192);
   04AA 51            [ 4] 1035 	ld	d,c
   04AB C5            [11] 1036 	push	bc
   04AC 3E C0         [ 7] 1037 	ld	a,#0xC0
   04AE F5            [11] 1038 	push	af
   04AF 33            [ 6] 1039 	inc	sp
   04B0 D5            [11] 1040 	push	de
   04B1 33            [ 6] 1041 	inc	sp
   04B2 21 00 C0      [10] 1042 	ld	hl,#0xC000
   04B5 E5            [11] 1043 	push	hl
   04B6 CDr00r00      [17] 1044 	call	_cpct_getScreenPtr
   04B9 C1            [10] 1045 	pop	bc
                           1046 ;src/draws.h:71: p+=3;
   04BA 03            [ 6] 1047 	inc	bc
   04BB 03            [ 6] 1048 	inc	bc
   04BC 03            [ 6] 1049 	inc	bc
                           1050 ;src/draws.h:72: if(i<=bullet) cpct_drawSpriteMasked(flecha_arriba, memptr, 2, 8);
   04BD EB            [ 4] 1051 	ex	de,hl
   04BE DD 7E 04      [19] 1052 	ld	a,4 (ix)
   04C1 DD 96 FF      [19] 1053 	sub	a, -1 (ix)
   04C4 38 10         [12] 1054 	jr	C,00102$
   04C6 C5            [11] 1055 	push	bc
   04C7 21 02 08      [10] 1056 	ld	hl,#0x0802
   04CA E5            [11] 1057 	push	hl
   04CB D5            [11] 1058 	push	de
   04CC 21r00r00      [10] 1059 	ld	hl,#_flecha_arriba
   04CF E5            [11] 1060 	push	hl
   04D0 CDr00r00      [17] 1061 	call	_cpct_drawSpriteMasked
   04D3 C1            [10] 1062 	pop	bc
   04D4 18 10         [12] 1063 	jr	00106$
   04D6                    1064 00102$:
                           1065 ;src/draws.h:73: else  cpct_drawSolidBox(memptr,0,2,8);
   04D6 C5            [11] 1066 	push	bc
   04D7 21 02 08      [10] 1067 	ld	hl,#0x0802
   04DA E5            [11] 1068 	push	hl
   04DB AF            [ 4] 1069 	xor	a, a
   04DC F5            [11] 1070 	push	af
   04DD 33            [ 6] 1071 	inc	sp
   04DE D5            [11] 1072 	push	de
   04DF CDr00r00      [17] 1073 	call	_cpct_drawSolidBox
   04E2 F1            [10] 1074 	pop	af
   04E3 F1            [10] 1075 	pop	af
   04E4 33            [ 6] 1076 	inc	sp
   04E5 C1            [10] 1077 	pop	bc
   04E6                    1078 00106$:
                           1079 ;src/draws.h:69: for(i=1;i<=3;i++){
   04E6 DD 34 FF      [23] 1080 	inc	-1 (ix)
   04E9 3E 03         [ 7] 1081 	ld	a,#0x03
   04EB DD 96 FF      [19] 1082 	sub	a, -1 (ix)
   04EE 30 BA         [12] 1083 	jr	NC,00105$
   04F0 33            [ 6] 1084 	inc	sp
   04F1 DD E1         [14] 1085 	pop	ix
   04F3 C9            [10] 1086 	ret
                           1087 ;src/draws.h:81: void draw(u8 x,u8 y,u8 *sprite,u8 mode){
                           1088 ;	---------------------------------
                           1089 ; Function draw
                           1090 ; ---------------------------------
   04F4                    1091 _draw::
                           1092 ;src/draws.h:83: memptr = cpct_getScreenPtr(VMEM,x,y);
   04F4 21 03 00      [10] 1093 	ld	hl, #3+0
   04F7 39            [11] 1094 	add	hl, sp
   04F8 7E            [ 7] 1095 	ld	a, (hl)
   04F9 F5            [11] 1096 	push	af
   04FA 33            [ 6] 1097 	inc	sp
   04FB 21 03 00      [10] 1098 	ld	hl, #3+0
   04FE 39            [11] 1099 	add	hl, sp
   04FF 7E            [ 7] 1100 	ld	a, (hl)
   0500 F5            [11] 1101 	push	af
   0501 33            [ 6] 1102 	inc	sp
   0502 21 00 C0      [10] 1103 	ld	hl,#0xC000
   0505 E5            [11] 1104 	push	hl
   0506 CDr00r00      [17] 1105 	call	_cpct_getScreenPtr
   0509 EB            [ 4] 1106 	ex	de,hl
                           1107 ;src/draws.h:84: switch(mode){
   050A 3E 02         [ 7] 1108 	ld	a,#0x02
   050C FD 21 06 00   [14] 1109 	ld	iy,#6
   0510 FD 39         [15] 1110 	add	iy,sp
   0512 FD 96 00      [19] 1111 	sub	a, 0 (iy)
   0515 D8            [11] 1112 	ret	C
                           1113 ;src/draws.h:86: cpct_drawSpriteMasked(sprite, memptr, 4, 16);
   0516 21 04 00      [10] 1114 	ld	hl, #4
   0519 39            [11] 1115 	add	hl, sp
   051A 4E            [ 7] 1116 	ld	c, (hl)
   051B 23            [ 6] 1117 	inc	hl
   051C 46            [ 7] 1118 	ld	b, (hl)
                           1119 ;src/draws.h:84: switch(mode){
   051D D5            [11] 1120 	push	de
   051E FD 21 08 00   [14] 1121 	ld	iy,#8
   0522 FD 39         [15] 1122 	add	iy,sp
   0524 FD 5E 00      [19] 1123 	ld	e,0 (iy)
   0527 16 00         [ 7] 1124 	ld	d,#0x00
   0529 21r30r05      [10] 1125 	ld	hl,#00111$
   052C 19            [11] 1126 	add	hl,de
   052D 19            [11] 1127 	add	hl,de
                           1128 ;src/draws.h:85: case 0:
   052E D1            [10] 1129 	pop	de
   052F E9            [ 4] 1130 	jp	(hl)
   0530                    1131 00111$:
   0530 18 04         [12] 1132 	jr	00101$
   0532 18 0C         [12] 1133 	jr	00102$
   0534 18 14         [12] 1134 	jr	00103$
   0536                    1135 00101$:
                           1136 ;src/draws.h:86: cpct_drawSpriteMasked(sprite, memptr, 4, 16);
   0536 21 04 10      [10] 1137 	ld	hl,#0x1004
   0539 E5            [11] 1138 	push	hl
   053A D5            [11] 1139 	push	de
   053B C5            [11] 1140 	push	bc
   053C CDr00r00      [17] 1141 	call	_cpct_drawSpriteMasked
                           1142 ;src/draws.h:87: break;
   053F C9            [10] 1143 	ret
                           1144 ;src/draws.h:88: case 1:
   0540                    1145 00102$:
                           1146 ;src/draws.h:89: cpct_drawSpriteMasked(sprite, memptr, 2, 8);
   0540 21 02 08      [10] 1147 	ld	hl,#0x0802
   0543 E5            [11] 1148 	push	hl
   0544 D5            [11] 1149 	push	de
   0545 C5            [11] 1150 	push	bc
   0546 CDr00r00      [17] 1151 	call	_cpct_drawSpriteMasked
                           1152 ;src/draws.h:90: break;
   0549 C9            [10] 1153 	ret
                           1154 ;src/draws.h:91: case 2:
   054A                    1155 00103$:
                           1156 ;src/draws.h:92: cpct_drawSpriteMasked(sprite, memptr, 4, 4);
   054A 21 04 04      [10] 1157 	ld	hl,#0x0404
   054D E5            [11] 1158 	push	hl
   054E D5            [11] 1159 	push	de
   054F C5            [11] 1160 	push	bc
   0550 CDr00r00      [17] 1161 	call	_cpct_drawSpriteMasked
                           1162 ;src/draws.h:94: }
   0553 C9            [10] 1163 	ret
                           1164 ;src/draws.h:98: void erase(u8 x,u8 y,u8 mode){
                           1165 ;	---------------------------------
                           1166 ; Function erase
                           1167 ; ---------------------------------
   0554                    1168 _erase::
                           1169 ;src/draws.h:101: memptr = cpct_getScreenPtr(VMEM,x,y);
   0554 21 03 00      [10] 1170 	ld	hl, #3+0
   0557 39            [11] 1171 	add	hl, sp
   0558 7E            [ 7] 1172 	ld	a, (hl)
   0559 F5            [11] 1173 	push	af
   055A 33            [ 6] 1174 	inc	sp
   055B 21 03 00      [10] 1175 	ld	hl, #3+0
   055E 39            [11] 1176 	add	hl, sp
   055F 7E            [ 7] 1177 	ld	a, (hl)
   0560 F5            [11] 1178 	push	af
   0561 33            [ 6] 1179 	inc	sp
   0562 21 00 C0      [10] 1180 	ld	hl,#0xC000
   0565 E5            [11] 1181 	push	hl
   0566 CDr00r00      [17] 1182 	call	_cpct_getScreenPtr
   0569 4D            [ 4] 1183 	ld	c, l
   056A 44            [ 4] 1184 	ld	b, h
                           1185 ;src/draws.h:102: switch(mode){
   056B 3E 02         [ 7] 1186 	ld	a,#0x02
   056D FD 21 04 00   [14] 1187 	ld	iy,#4
   0571 FD 39         [15] 1188 	add	iy,sp
   0573 FD 96 00      [19] 1189 	sub	a, 0 (iy)
   0576 D8            [11] 1190 	ret	C
                           1191 ;src/draws.h:104: cpct_drawSolidBox(memptr,0,4,16);
                           1192 ;src/draws.h:102: switch(mode){
   0577 FD 5E 00      [19] 1193 	ld	e,0 (iy)
   057A 16 00         [ 7] 1194 	ld	d,#0x00
   057C 21r82r05      [10] 1195 	ld	hl,#00111$
   057F 19            [11] 1196 	add	hl,de
   0580 19            [11] 1197 	add	hl,de
                           1198 ;src/draws.h:103: case 0:
   0581 E9            [ 4] 1199 	jp	(hl)
   0582                    1200 00111$:
   0582 18 04         [12] 1201 	jr	00101$
   0584 18 11         [12] 1202 	jr	00102$
   0586 18 1E         [12] 1203 	jr	00103$
   0588                    1204 00101$:
                           1205 ;src/draws.h:104: cpct_drawSolidBox(memptr,0,4,16);
   0588 21 04 10      [10] 1206 	ld	hl,#0x1004
   058B E5            [11] 1207 	push	hl
   058C AF            [ 4] 1208 	xor	a, a
   058D F5            [11] 1209 	push	af
   058E 33            [ 6] 1210 	inc	sp
   058F C5            [11] 1211 	push	bc
   0590 CDr00r00      [17] 1212 	call	_cpct_drawSolidBox
   0593 F1            [10] 1213 	pop	af
   0594 F1            [10] 1214 	pop	af
   0595 33            [ 6] 1215 	inc	sp
                           1216 ;src/draws.h:105: break;
   0596 C9            [10] 1217 	ret
                           1218 ;src/draws.h:106: case 1:
   0597                    1219 00102$:
                           1220 ;src/draws.h:107: cpct_drawSolidBox(memptr,0,2,8);
   0597 21 02 08      [10] 1221 	ld	hl,#0x0802
   059A E5            [11] 1222 	push	hl
   059B AF            [ 4] 1223 	xor	a, a
   059C F5            [11] 1224 	push	af
   059D 33            [ 6] 1225 	inc	sp
   059E C5            [11] 1226 	push	bc
   059F CDr00r00      [17] 1227 	call	_cpct_drawSolidBox
   05A2 F1            [10] 1228 	pop	af
   05A3 F1            [10] 1229 	pop	af
   05A4 33            [ 6] 1230 	inc	sp
                           1231 ;src/draws.h:108: break;
   05A5 C9            [10] 1232 	ret
                           1233 ;src/draws.h:109: case 2:
   05A6                    1234 00103$:
                           1235 ;src/draws.h:110: cpct_drawSolidBox(memptr,0,4,4);
   05A6 21 04 04      [10] 1236 	ld	hl,#0x0404
   05A9 E5            [11] 1237 	push	hl
   05AA AF            [ 4] 1238 	xor	a, a
   05AB F5            [11] 1239 	push	af
   05AC 33            [ 6] 1240 	inc	sp
   05AD C5            [11] 1241 	push	bc
   05AE CDr00r00      [17] 1242 	call	_cpct_drawSolidBox
   05B1 F1            [10] 1243 	pop	af
   05B2 F1            [10] 1244 	pop	af
   05B3 33            [ 6] 1245 	inc	sp
                           1246 ;src/draws.h:112: }
   05B4 C9            [10] 1247 	ret
                           1248 ;src/draws.h:115: void drawStats(){
                           1249 ;	---------------------------------
                           1250 ; Function drawStats
                           1251 ; ---------------------------------
   05B5                    1252 _drawStats::
                           1253 ;src/draws.h:116: drawVida(player.life,1);
   05B5 21r14r01      [10] 1254 	ld	hl, #_player + 6
   05B8 56            [ 7] 1255 	ld	d,(hl)
   05B9 3E 01         [ 7] 1256 	ld	a,#0x01
   05BB F5            [11] 1257 	push	af
   05BC 33            [ 6] 1258 	inc	sp
   05BD D5            [11] 1259 	push	de
   05BE 33            [ 6] 1260 	inc	sp
   05BF CDr37r04      [17] 1261 	call	_drawVida
   05C2 F1            [10] 1262 	pop	af
                           1263 ;src/draws.h:117: drawBullets(player.bullets,16);
   05C3 21r18r01      [10] 1264 	ld	hl, #_player + 10
   05C6 56            [ 7] 1265 	ld	d,(hl)
   05C7 3E 10         [ 7] 1266 	ld	a,#0x10
   05C9 F5            [11] 1267 	push	af
   05CA 33            [ 6] 1268 	inc	sp
   05CB D5            [11] 1269 	push	de
   05CC 33            [ 6] 1270 	inc	sp
   05CD CDr98r04      [17] 1271 	call	_drawBullets
   05D0 F1            [10] 1272 	pop	af
                           1273 ;src/draws.h:118: drawBullets(enemy.bullets,56);
   05D1 21r23r01      [10] 1274 	ld	hl, #_enemy + 10
   05D4 56            [ 7] 1275 	ld	d,(hl)
   05D5 3E 38         [ 7] 1276 	ld	a,#0x38
   05D7 F5            [11] 1277 	push	af
   05D8 33            [ 6] 1278 	inc	sp
   05D9 D5            [11] 1279 	push	de
   05DA 33            [ 6] 1280 	inc	sp
   05DB CDr98r04      [17] 1281 	call	_drawBullets
   05DE F1            [10] 1282 	pop	af
                           1283 ;src/draws.h:119: drawVida(enemy.life,65);
   05DF 21r21r01      [10] 1284 	ld	hl, #_enemy + 8
   05E2 56            [ 7] 1285 	ld	d,(hl)
   05E3 3E 41         [ 7] 1286 	ld	a,#0x41
   05E5 F5            [11] 1287 	push	af
   05E6 33            [ 6] 1288 	inc	sp
   05E7 D5            [11] 1289 	push	de
   05E8 33            [ 6] 1290 	inc	sp
   05E9 CDr37r04      [17] 1291 	call	_drawVida
   05EC F1            [10] 1292 	pop	af
   05ED C9            [10] 1293 	ret
                           1294 ;src/draws.h:124: void draws(){
                           1295 ;	---------------------------------
                           1296 ; Function draws
                           1297 ; ---------------------------------
   05EE                    1298 _draws::
   05EE DD E5         [15] 1299 	push	ix
   05F0 DD 21 00 00   [14] 1300 	ld	ix,#0
   05F4 DD 39         [15] 1301 	add	ix,sp
   05F6 3B            [ 6] 1302 	dec	sp
                           1303 ;src/draws.h:126: if(temp%2 == 0)
   05F7 FD 21rF0r00   [14] 1304 	ld	iy,#_temp
   05FB FD CB 00 46   [20] 1305 	bit	0, 0 (iy)
   05FF 20 17         [12] 1306 	jr	NZ,00102$
                           1307 ;src/draws.h:127: draw(player.x,player.y,player.sprite,0);
   0601 ED 5Br12r01   [20] 1308 	ld	de, (#_player + 4)
   0605 21r0Fr01      [10] 1309 	ld	hl, #_player + 1
   0608 46            [ 7] 1310 	ld	b,(hl)
   0609 21r0Er01      [10] 1311 	ld	hl, #_player + 0
   060C 4E            [ 7] 1312 	ld	c,(hl)
   060D AF            [ 4] 1313 	xor	a, a
   060E F5            [11] 1314 	push	af
   060F 33            [ 6] 1315 	inc	sp
   0610 D5            [11] 1316 	push	de
   0611 C5            [11] 1317 	push	bc
   0612 CDrF4r04      [17] 1318 	call	_draw
   0615 F1            [10] 1319 	pop	af
   0616 F1            [10] 1320 	pop	af
   0617 33            [ 6] 1321 	inc	sp
   0618                    1322 00102$:
                           1323 ;src/draws.h:128: if(enemy.life > 0 && temp%2 == 1)
   0618 11r19r01      [10] 1324 	ld	de,#_enemy+0
   061B 3Ar21r01      [13] 1325 	ld	a, (#_enemy + 8)
   061E B7            [ 4] 1326 	or	a, a
   061F 28 23         [12] 1327 	jr	Z,00104$
   0621 3ArF0r00      [13] 1328 	ld	a,(#_temp + 0)
   0624 E6 01         [ 7] 1329 	and	a, #0x01
   0626 3D            [ 4] 1330 	dec	a
   0627 20 1B         [12] 1331 	jr	NZ,00104$
                           1332 ;src/draws.h:129: draw(enemy.x,enemy.y,enemy.sprite,0);
   0629 ED 4Br1Fr01   [20] 1333 	ld	bc, (#_enemy + 6)
   062D 6B            [ 4] 1334 	ld	l, e
   062E 62            [ 4] 1335 	ld	h, d
   062F 23            [ 6] 1336 	inc	hl
   0630 7E            [ 7] 1337 	ld	a,(hl)
   0631 DD 77 FF      [19] 1338 	ld	-1 (ix),a
   0634 1A            [ 7] 1339 	ld	a,(de)
   0635 5F            [ 4] 1340 	ld	e,a
   0636 AF            [ 4] 1341 	xor	a, a
   0637 F5            [11] 1342 	push	af
   0638 33            [ 6] 1343 	inc	sp
   0639 C5            [11] 1344 	push	bc
   063A DD 56 FF      [19] 1345 	ld	d, -1 (ix)
   063D D5            [11] 1346 	push	de
   063E CDrF4r04      [17] 1347 	call	_draw
   0641 F1            [10] 1348 	pop	af
   0642 F1            [10] 1349 	pop	af
   0643 33            [ 6] 1350 	inc	sp
   0644                    1351 00104$:
                           1352 ;src/draws.h:130: if(arrow == 1){
   0644 3ArF4r00      [13] 1353 	ld	a,(#_arrow + 0)
   0647 3D            [ 4] 1354 	dec	a
   0648 20 5D         [12] 1355 	jr	NZ,00116$
                           1356 ;src/draws.h:131: if(parrow.dir == 4 || parrow.dir == 6 && parrow.vivo == 1)
   064A 21r01r01      [10] 1357 	ld	hl, #_parrow + 7
   064D 5E            [ 7] 1358 	ld	e,(hl)
                           1359 ;src/draws.h:132: draw(parrow.x,parrow.y,parrow.sprite,2);
   064E 01rFBr00      [10] 1360 	ld	bc,#_parrow + 1
                           1361 ;src/draws.h:131: if(parrow.dir == 4 || parrow.dir == 6 && parrow.vivo == 1)
   0651 7B            [ 4] 1362 	ld	a,e
   0652 D6 04         [ 7] 1363 	sub	a, #0x04
   0654 28 0C         [12] 1364 	jr	Z,00110$
   0656 21r00r01      [10] 1365 	ld	hl,#_parrow + 6
   0659 7B            [ 4] 1366 	ld	a,e
   065A D6 06         [ 7] 1367 	sub	a, #0x06
   065C 20 25         [12] 1368 	jr	NZ,00111$
   065E 7E            [ 7] 1369 	ld	a,(hl)
   065F 3D            [ 4] 1370 	dec	a
   0660 20 21         [12] 1371 	jr	NZ,00111$
   0662                    1372 00110$:
                           1373 ;src/draws.h:132: draw(parrow.x,parrow.y,parrow.sprite,2);
   0662 ED 5BrFEr00   [20] 1374 	ld	de, (#(_parrow + 0x0004) + 0)
   0666 0A            [ 7] 1375 	ld	a,(bc)
   0667 DD 77 FF      [19] 1376 	ld	-1 (ix),a
   066A 21rFAr00      [10] 1377 	ld	hl, #_parrow + 0
   066D 4E            [ 7] 1378 	ld	c,(hl)
   066E 3E 02         [ 7] 1379 	ld	a,#0x02
   0670 F5            [11] 1380 	push	af
   0671 33            [ 6] 1381 	inc	sp
   0672 D5            [11] 1382 	push	de
   0673 DD 7E FF      [19] 1383 	ld	a,-1 (ix)
   0676 F5            [11] 1384 	push	af
   0677 33            [ 6] 1385 	inc	sp
   0678 79            [ 4] 1386 	ld	a,c
   0679 F5            [11] 1387 	push	af
   067A 33            [ 6] 1388 	inc	sp
   067B CDrF4r04      [17] 1389 	call	_draw
   067E F1            [10] 1390 	pop	af
   067F F1            [10] 1391 	pop	af
   0680 33            [ 6] 1392 	inc	sp
   0681 18 24         [12] 1393 	jr	00116$
   0683                    1394 00111$:
                           1395 ;src/draws.h:133: else if(parrow.dir == 2 || parrow.dir == 8 && parrow.vivo == 1)
   0683 7B            [ 4] 1396 	ld	a,e
   0684 D6 02         [ 7] 1397 	sub	a, #0x02
   0686 28 09         [12] 1398 	jr	Z,00106$
   0688 7B            [ 4] 1399 	ld	a,e
   0689 D6 08         [ 7] 1400 	sub	a, #0x08
   068B 20 1A         [12] 1401 	jr	NZ,00116$
   068D 7E            [ 7] 1402 	ld	a,(hl)
   068E 3D            [ 4] 1403 	dec	a
   068F 20 16         [12] 1404 	jr	NZ,00116$
   0691                    1405 00106$:
                           1406 ;src/draws.h:134: draw(parrow.x,parrow.y,parrow.sprite,1);
   0691 ED 5BrFEr00   [20] 1407 	ld	de, (#(_parrow + 0x0004) + 0)
   0695 0A            [ 7] 1408 	ld	a,(bc)
   0696 47            [ 4] 1409 	ld	b,a
   0697 21rFAr00      [10] 1410 	ld	hl, #_parrow + 0
   069A 4E            [ 7] 1411 	ld	c,(hl)
   069B 3E 01         [ 7] 1412 	ld	a,#0x01
   069D F5            [11] 1413 	push	af
   069E 33            [ 6] 1414 	inc	sp
   069F D5            [11] 1415 	push	de
   06A0 C5            [11] 1416 	push	bc
   06A1 CDrF4r04      [17] 1417 	call	_draw
   06A4 F1            [10] 1418 	pop	af
   06A5 F1            [10] 1419 	pop	af
   06A6 33            [ 6] 1420 	inc	sp
   06A7                    1421 00116$:
                           1422 ;src/draws.h:136: if(shooted == 1){
   06A7 3ArF5r00      [13] 1423 	ld	a,(#_shooted + 0)
   06AA 3D            [ 4] 1424 	dec	a
   06AB 20 5D         [12] 1425 	jr	NZ,00127$
                           1426 ;src/draws.h:137: if(earrow.dir == 4 || earrow.dir == 6 && earrow.vivo == 1)
   06AD 21r0Br01      [10] 1427 	ld	hl, #_earrow + 7
   06B0 5E            [ 7] 1428 	ld	e,(hl)
                           1429 ;src/draws.h:138: draw(earrow.x,earrow.y,earrow.sprite,2);
   06B1 01r05r01      [10] 1430 	ld	bc,#_earrow + 1
                           1431 ;src/draws.h:137: if(earrow.dir == 4 || earrow.dir == 6 && earrow.vivo == 1)
   06B4 7B            [ 4] 1432 	ld	a,e
   06B5 D6 04         [ 7] 1433 	sub	a, #0x04
   06B7 28 0C         [12] 1434 	jr	Z,00121$
   06B9 21r0Ar01      [10] 1435 	ld	hl,#_earrow + 6
   06BC 7B            [ 4] 1436 	ld	a,e
   06BD D6 06         [ 7] 1437 	sub	a, #0x06
   06BF 20 25         [12] 1438 	jr	NZ,00122$
   06C1 7E            [ 7] 1439 	ld	a,(hl)
   06C2 3D            [ 4] 1440 	dec	a
   06C3 20 21         [12] 1441 	jr	NZ,00122$
   06C5                    1442 00121$:
                           1443 ;src/draws.h:138: draw(earrow.x,earrow.y,earrow.sprite,2);
   06C5 ED 5Br08r01   [20] 1444 	ld	de, (#(_earrow + 0x0004) + 0)
   06C9 0A            [ 7] 1445 	ld	a,(bc)
   06CA DD 77 FF      [19] 1446 	ld	-1 (ix),a
   06CD 21r04r01      [10] 1447 	ld	hl, #_earrow + 0
   06D0 4E            [ 7] 1448 	ld	c,(hl)
   06D1 3E 02         [ 7] 1449 	ld	a,#0x02
   06D3 F5            [11] 1450 	push	af
   06D4 33            [ 6] 1451 	inc	sp
   06D5 D5            [11] 1452 	push	de
   06D6 DD 7E FF      [19] 1453 	ld	a,-1 (ix)
   06D9 F5            [11] 1454 	push	af
   06DA 33            [ 6] 1455 	inc	sp
   06DB 79            [ 4] 1456 	ld	a,c
   06DC F5            [11] 1457 	push	af
   06DD 33            [ 6] 1458 	inc	sp
   06DE CDrF4r04      [17] 1459 	call	_draw
   06E1 F1            [10] 1460 	pop	af
   06E2 F1            [10] 1461 	pop	af
   06E3 33            [ 6] 1462 	inc	sp
   06E4 18 24         [12] 1463 	jr	00127$
   06E6                    1464 00122$:
                           1465 ;src/draws.h:139: else if(earrow.dir == 2 || earrow.dir == 8 && earrow.vivo == 1)
   06E6 7B            [ 4] 1466 	ld	a,e
   06E7 D6 02         [ 7] 1467 	sub	a, #0x02
   06E9 28 09         [12] 1468 	jr	Z,00117$
   06EB 7B            [ 4] 1469 	ld	a,e
   06EC D6 08         [ 7] 1470 	sub	a, #0x08
   06EE 20 1A         [12] 1471 	jr	NZ,00127$
   06F0 7E            [ 7] 1472 	ld	a,(hl)
   06F1 3D            [ 4] 1473 	dec	a
   06F2 20 16         [12] 1474 	jr	NZ,00127$
   06F4                    1475 00117$:
                           1476 ;src/draws.h:140: draw(earrow.x,earrow.y,earrow.sprite,1);
   06F4 ED 5Br08r01   [20] 1477 	ld	de, (#(_earrow + 0x0004) + 0)
   06F8 0A            [ 7] 1478 	ld	a,(bc)
   06F9 47            [ 4] 1479 	ld	b,a
   06FA 21r04r01      [10] 1480 	ld	hl, #_earrow + 0
   06FD 4E            [ 7] 1481 	ld	c,(hl)
   06FE 3E 01         [ 7] 1482 	ld	a,#0x01
   0700 F5            [11] 1483 	push	af
   0701 33            [ 6] 1484 	inc	sp
   0702 D5            [11] 1485 	push	de
   0703 C5            [11] 1486 	push	bc
   0704 CDrF4r04      [17] 1487 	call	_draw
   0707 F1            [10] 1488 	pop	af
   0708 F1            [10] 1489 	pop	af
   0709 33            [ 6] 1490 	inc	sp
   070A                    1491 00127$:
                           1492 ;src/draws.h:142: drawStats();
   070A CDrB5r05      [17] 1493 	call	_drawStats
   070D 33            [ 6] 1494 	inc	sp
   070E DD E1         [14] 1495 	pop	ix
   0710 C9            [10] 1496 	ret
                           1497 ;src/draws.h:145: void erases(){
                           1498 ;	---------------------------------
                           1499 ; Function erases
                           1500 ; ---------------------------------
   0711                    1501 _erases::
                           1502 ;src/draws.h:147: if(temp%2 == 0) erase(player.lx,player.ly,0);
   0711 FD 21rF0r00   [14] 1503 	ld	iy,#_temp
   0715 FD CB 00 46   [20] 1504 	bit	0, 0 (iy)
   0719 20 14         [12] 1505 	jr	NZ,00102$
   071B 21r11r01      [10] 1506 	ld	hl, #_player + 3
   071E 56            [ 7] 1507 	ld	d,(hl)
   071F 21r10r01      [10] 1508 	ld	hl, #_player + 2
   0722 46            [ 7] 1509 	ld	b,(hl)
   0723 AF            [ 4] 1510 	xor	a, a
   0724 F5            [11] 1511 	push	af
   0725 33            [ 6] 1512 	inc	sp
   0726 D5            [11] 1513 	push	de
   0727 33            [ 6] 1514 	inc	sp
   0728 C5            [11] 1515 	push	bc
   0729 33            [ 6] 1516 	inc	sp
   072A CDr54r05      [17] 1517 	call	_erase
   072D F1            [10] 1518 	pop	af
   072E 33            [ 6] 1519 	inc	sp
   072F                    1520 00102$:
                           1521 ;src/draws.h:148: if(temp%2 == 1) erase(enemy.lx,enemy.ly,0);
   072F 3ArF0r00      [13] 1522 	ld	a,(#_temp + 0)
   0732 E6 01         [ 7] 1523 	and	a, #0x01
   0734 3D            [ 4] 1524 	dec	a
   0735 20 14         [12] 1525 	jr	NZ,00104$
   0737 21r1Cr01      [10] 1526 	ld	hl, #_enemy + 3
   073A 56            [ 7] 1527 	ld	d,(hl)
   073B 21r1Br01      [10] 1528 	ld	hl, #_enemy + 2
   073E 46            [ 7] 1529 	ld	b,(hl)
   073F AF            [ 4] 1530 	xor	a, a
   0740 F5            [11] 1531 	push	af
   0741 33            [ 6] 1532 	inc	sp
   0742 D5            [11] 1533 	push	de
   0743 33            [ 6] 1534 	inc	sp
   0744 C5            [11] 1535 	push	bc
   0745 33            [ 6] 1536 	inc	sp
   0746 CDr54r05      [17] 1537 	call	_erase
   0749 F1            [10] 1538 	pop	af
   074A 33            [ 6] 1539 	inc	sp
   074B                    1540 00104$:
                           1541 ;src/draws.h:149: if(arrow == 1){
   074B 3ArF4r00      [13] 1542 	ld	a,(#_arrow + 0)
   074E 3D            [ 4] 1543 	dec	a
   074F 20 3C         [12] 1544 	jr	NZ,00112$
                           1545 ;src/draws.h:150: if(parrow.dir == 4 || parrow.dir == 6) erase(parrow.lx,parrow.ly,2);
   0751 21r01r01      [10] 1546 	ld	hl, #_parrow + 7
   0754 5E            [ 7] 1547 	ld	e,(hl)
   0755 21rFDr00      [10] 1548 	ld	hl, #_parrow + 3
   0758 56            [ 7] 1549 	ld	d,(hl)
   0759 21rFCr00      [10] 1550 	ld	hl, #_parrow + 2
   075C 46            [ 7] 1551 	ld	b,(hl)
   075D 7B            [ 4] 1552 	ld	a,e
   075E FE 04         [ 7] 1553 	cp	a,#0x04
   0760 28 04         [12] 1554 	jr	Z,00105$
   0762 D6 06         [ 7] 1555 	sub	a, #0x06
   0764 20 0F         [12] 1556 	jr	NZ,00106$
   0766                    1557 00105$:
   0766 3E 02         [ 7] 1558 	ld	a,#0x02
   0768 F5            [11] 1559 	push	af
   0769 33            [ 6] 1560 	inc	sp
   076A D5            [11] 1561 	push	de
   076B 33            [ 6] 1562 	inc	sp
   076C C5            [11] 1563 	push	bc
   076D 33            [ 6] 1564 	inc	sp
   076E CDr54r05      [17] 1565 	call	_erase
   0771 F1            [10] 1566 	pop	af
   0772 33            [ 6] 1567 	inc	sp
   0773 18 0D         [12] 1568 	jr	00107$
   0775                    1569 00106$:
                           1570 ;src/draws.h:151: else erase(parrow.lx,parrow.ly,1);
   0775 3E 01         [ 7] 1571 	ld	a,#0x01
   0777 F5            [11] 1572 	push	af
   0778 33            [ 6] 1573 	inc	sp
   0779 D5            [11] 1574 	push	de
   077A 33            [ 6] 1575 	inc	sp
   077B C5            [11] 1576 	push	bc
   077C 33            [ 6] 1577 	inc	sp
   077D CDr54r05      [17] 1578 	call	_erase
   0780 F1            [10] 1579 	pop	af
   0781 33            [ 6] 1580 	inc	sp
   0782                    1581 00107$:
                           1582 ;src/draws.h:152: if(bound == 1) arrow = 0;
   0782 3ArF7r00      [13] 1583 	ld	a,(#_bound + 0)
   0785 3D            [ 4] 1584 	dec	a
   0786 20 05         [12] 1585 	jr	NZ,00112$
   0788 21rF4r00      [10] 1586 	ld	hl,#_arrow + 0
   078B 36 00         [10] 1587 	ld	(hl), #0x00
   078D                    1588 00112$:
                           1589 ;src/draws.h:154: if(shooted == 1){
   078D 3ArF5r00      [13] 1590 	ld	a,(#_shooted + 0)
   0790 3D            [ 4] 1591 	dec	a
   0791 C0            [11] 1592 	ret	NZ
                           1593 ;src/draws.h:155: if(earrow.dir == 4 || earrow.dir == 6) erase(earrow.lx,earrow.ly,2);
   0792 21r0Br01      [10] 1594 	ld	hl, #_earrow + 7
   0795 5E            [ 7] 1595 	ld	e,(hl)
   0796 21r07r01      [10] 1596 	ld	hl, #_earrow + 3
   0799 56            [ 7] 1597 	ld	d,(hl)
   079A 21r06r01      [10] 1598 	ld	hl, #_earrow + 2
   079D 46            [ 7] 1599 	ld	b,(hl)
   079E 7B            [ 4] 1600 	ld	a,e
   079F FE 04         [ 7] 1601 	cp	a,#0x04
   07A1 28 04         [12] 1602 	jr	Z,00113$
   07A3 D6 06         [ 7] 1603 	sub	a, #0x06
   07A5 20 0F         [12] 1604 	jr	NZ,00114$
   07A7                    1605 00113$:
   07A7 3E 02         [ 7] 1606 	ld	a,#0x02
   07A9 F5            [11] 1607 	push	af
   07AA 33            [ 6] 1608 	inc	sp
   07AB D5            [11] 1609 	push	de
   07AC 33            [ 6] 1610 	inc	sp
   07AD C5            [11] 1611 	push	bc
   07AE 33            [ 6] 1612 	inc	sp
   07AF CDr54r05      [17] 1613 	call	_erase
   07B2 F1            [10] 1614 	pop	af
   07B3 33            [ 6] 1615 	inc	sp
   07B4 18 0D         [12] 1616 	jr	00115$
   07B6                    1617 00114$:
                           1618 ;src/draws.h:156: else erase(earrow.lx,earrow.ly,1);
   07B6 3E 01         [ 7] 1619 	ld	a,#0x01
   07B8 F5            [11] 1620 	push	af
   07B9 33            [ 6] 1621 	inc	sp
   07BA D5            [11] 1622 	push	de
   07BB 33            [ 6] 1623 	inc	sp
   07BC C5            [11] 1624 	push	bc
   07BD 33            [ 6] 1625 	inc	sp
   07BE CDr54r05      [17] 1626 	call	_erase
   07C1 F1            [10] 1627 	pop	af
   07C2 33            [ 6] 1628 	inc	sp
   07C3                    1629 00115$:
                           1630 ;src/draws.h:157: if(bounds == 1) shooted = 0;
   07C3 3ArF8r00      [13] 1631 	ld	a,(#_bounds + 0)
   07C6 3D            [ 4] 1632 	dec	a
   07C7 C0            [11] 1633 	ret	NZ
   07C8 21rF5r00      [10] 1634 	ld	hl,#_shooted + 0
   07CB 36 00         [10] 1635 	ld	(hl), #0x00
   07CD C9            [10] 1636 	ret
                           1637 ;src/draws.h:164: void drawFatiga(u8 atk, u8 col){
                           1638 ;	---------------------------------
                           1639 ; Function drawFatiga
                           1640 ; ---------------------------------
   07CE                    1641 _drawFatiga::
   07CE DD E5         [15] 1642 	push	ix
   07D0 DD 21 00 00   [14] 1643 	ld	ix,#0
   07D4 DD 39         [15] 1644 	add	ix,sp
   07D6 F5            [11] 1645 	push	af
                           1646 ;src/draws.h:166: if(atk < 20)
   07D7 DD 7E 04      [19] 1647 	ld	a,4 (ix)
   07DA D6 14         [ 7] 1648 	sub	a, #0x14
   07DC 30 04         [12] 1649 	jr	NC,00102$
                           1650 ;src/draws.h:167: col = 2;
   07DE DD 36 05 02   [19] 1651 	ld	5 (ix),#0x02
   07E2                    1652 00102$:
                           1653 ;src/draws.h:168: if(atk > 30 || atk <= 20){
   07E2 3E 14         [ 7] 1654 	ld	a,#0x14
   07E4 DD 96 04      [19] 1655 	sub	a, 4 (ix)
   07E7 3E 00         [ 7] 1656 	ld	a,#0x00
   07E9 17            [ 4] 1657 	rla
   07EA DD 77 FF      [19] 1658 	ld	-1 (ix),a
                           1659 ;src/draws.h:170: switch(col){
   07ED 3E 02         [ 7] 1660 	ld	a,#0x02
   07EF DD 96 05      [19] 1661 	sub	a, 5 (ix)
   07F2 3E 00         [ 7] 1662 	ld	a,#0x00
   07F4 17            [ 4] 1663 	rla
   07F5 DD 77 FE      [19] 1664 	ld	-2 (ix),a
                           1665 ;src/draws.h:168: if(atk > 30 || atk <= 20){
   07F8 3E 1E         [ 7] 1666 	ld	a,#0x1E
   07FA DD 96 04      [19] 1667 	sub	a, 4 (ix)
   07FD 38 06         [12] 1668 	jr	C,00107$
   07FF DD 7E FF      [19] 1669 	ld	a,-1 (ix)
   0802 B7            [ 4] 1670 	or	a, a
   0803 20 4F         [12] 1671 	jr	NZ,00108$
   0805                    1672 00107$:
                           1673 ;src/draws.h:169: memptr = cpct_getScreenPtr(VMEM,28,192);
   0805 21 1C C0      [10] 1674 	ld	hl,#0xC01C
   0808 E5            [11] 1675 	push	hl
   0809 2E 00         [ 7] 1676 	ld	l, #0x00
   080B E5            [11] 1677 	push	hl
   080C CDr00r00      [17] 1678 	call	_cpct_getScreenPtr
                           1679 ;src/draws.h:170: switch(col){
   080F DD 7E FE      [19] 1680 	ld	a,-2 (ix)
   0812 B7            [ 4] 1681 	or	a, a
   0813 20 3F         [12] 1682 	jr	NZ,00108$
                           1683 ;src/draws.h:172: cpct_drawSolidBox(memptr, col, 2, 8);
   0815 4D            [ 4] 1684 	ld	c, l
   0816 44            [ 4] 1685 	ld	b, h
                           1686 ;src/draws.h:170: switch(col){
   0817 DD 5E 05      [19] 1687 	ld	e,5 (ix)
   081A 16 00         [ 7] 1688 	ld	d,#0x00
   081C 21r22r08      [10] 1689 	ld	hl,#00156$
   081F 19            [11] 1690 	add	hl,de
   0820 19            [11] 1691 	add	hl,de
                           1692 ;src/draws.h:171: case 0:
   0821 E9            [ 4] 1693 	jp	(hl)
   0822                    1694 00156$:
   0822 18 04         [12] 1695 	jr	00103$
   0824 18 14         [12] 1696 	jr	00104$
   0826 18 20         [12] 1697 	jr	00105$
   0828                    1698 00103$:
                           1699 ;src/draws.h:172: cpct_drawSolidBox(memptr, col, 2, 8);
   0828 21 02 08      [10] 1700 	ld	hl,#0x0802
   082B E5            [11] 1701 	push	hl
   082C DD 7E 05      [19] 1702 	ld	a,5 (ix)
   082F F5            [11] 1703 	push	af
   0830 33            [ 6] 1704 	inc	sp
   0831 C5            [11] 1705 	push	bc
   0832 CDr00r00      [17] 1706 	call	_cpct_drawSolidBox
   0835 F1            [10] 1707 	pop	af
   0836 F1            [10] 1708 	pop	af
   0837 33            [ 6] 1709 	inc	sp
                           1710 ;src/draws.h:173: break;
   0838 18 1A         [12] 1711 	jr	00108$
                           1712 ;src/draws.h:174: case 1:
   083A                    1713 00104$:
                           1714 ;src/draws.h:175: cpct_drawSpriteMasked(fatiga_nor, memptr, 2, 8);
   083A 11r00r00      [10] 1715 	ld	de,#_fatiga_nor
   083D 21 02 08      [10] 1716 	ld	hl,#0x0802
   0840 E5            [11] 1717 	push	hl
   0841 C5            [11] 1718 	push	bc
   0842 D5            [11] 1719 	push	de
   0843 CDr00r00      [17] 1720 	call	_cpct_drawSpriteMasked
                           1721 ;src/draws.h:176: break;
   0846 18 0C         [12] 1722 	jr	00108$
                           1723 ;src/draws.h:177: case 2:
   0848                    1724 00105$:
                           1725 ;src/draws.h:178: cpct_drawSpriteMasked(fatiga_full, memptr, 2, 8);
   0848 11r00r00      [10] 1726 	ld	de,#_fatiga_full
   084B 21 02 08      [10] 1727 	ld	hl,#0x0802
   084E E5            [11] 1728 	push	hl
   084F C5            [11] 1729 	push	bc
   0850 D5            [11] 1730 	push	de
   0851 CDr00r00      [17] 1731 	call	_cpct_drawSpriteMasked
                           1732 ;src/draws.h:179: }
   0854                    1733 00108$:
                           1734 ;src/draws.h:181: if(atk > 40 || atk <= 20){
   0854 3E 28         [ 7] 1735 	ld	a,#0x28
   0856 DD 96 04      [19] 1736 	sub	a, 4 (ix)
   0859 38 06         [12] 1737 	jr	C,00114$
   085B DD 7E FF      [19] 1738 	ld	a,-1 (ix)
   085E B7            [ 4] 1739 	or	a, a
   085F 20 4F         [12] 1740 	jr	NZ,00115$
   0861                    1741 00114$:
                           1742 ;src/draws.h:182: memptr = cpct_getScreenPtr(VMEM,31,192);
   0861 21 1F C0      [10] 1743 	ld	hl,#0xC01F
   0864 E5            [11] 1744 	push	hl
   0865 2E 00         [ 7] 1745 	ld	l, #0x00
   0867 E5            [11] 1746 	push	hl
   0868 CDr00r00      [17] 1747 	call	_cpct_getScreenPtr
                           1748 ;src/draws.h:183: switch(col){
   086B DD 7E FE      [19] 1749 	ld	a,-2 (ix)
   086E B7            [ 4] 1750 	or	a, a
   086F 20 3F         [12] 1751 	jr	NZ,00115$
                           1752 ;src/draws.h:172: cpct_drawSolidBox(memptr, col, 2, 8);
   0871 4D            [ 4] 1753 	ld	c, l
   0872 44            [ 4] 1754 	ld	b, h
                           1755 ;src/draws.h:183: switch(col){
   0873 DD 5E 05      [19] 1756 	ld	e,5 (ix)
   0876 16 00         [ 7] 1757 	ld	d,#0x00
   0878 21r7Er08      [10] 1758 	ld	hl,#00157$
   087B 19            [11] 1759 	add	hl,de
   087C 19            [11] 1760 	add	hl,de
                           1761 ;src/draws.h:184: case 0:
   087D E9            [ 4] 1762 	jp	(hl)
   087E                    1763 00157$:
   087E 18 04         [12] 1764 	jr	00110$
   0880 18 14         [12] 1765 	jr	00111$
   0882 18 20         [12] 1766 	jr	00112$
   0884                    1767 00110$:
                           1768 ;src/draws.h:185: cpct_drawSolidBox(memptr, col, 2, 8);
   0884 21 02 08      [10] 1769 	ld	hl,#0x0802
   0887 E5            [11] 1770 	push	hl
   0888 DD 7E 05      [19] 1771 	ld	a,5 (ix)
   088B F5            [11] 1772 	push	af
   088C 33            [ 6] 1773 	inc	sp
   088D C5            [11] 1774 	push	bc
   088E CDr00r00      [17] 1775 	call	_cpct_drawSolidBox
   0891 F1            [10] 1776 	pop	af
   0892 F1            [10] 1777 	pop	af
   0893 33            [ 6] 1778 	inc	sp
                           1779 ;src/draws.h:186: break;
   0894 18 1A         [12] 1780 	jr	00115$
                           1781 ;src/draws.h:187: case 1:
   0896                    1782 00111$:
                           1783 ;src/draws.h:188: cpct_drawSpriteMasked(fatiga_nor, memptr, 2, 8);
   0896 11r00r00      [10] 1784 	ld	de,#_fatiga_nor
   0899 21 02 08      [10] 1785 	ld	hl,#0x0802
   089C E5            [11] 1786 	push	hl
   089D C5            [11] 1787 	push	bc
   089E D5            [11] 1788 	push	de
   089F CDr00r00      [17] 1789 	call	_cpct_drawSpriteMasked
                           1790 ;src/draws.h:189: break;
   08A2 18 0C         [12] 1791 	jr	00115$
                           1792 ;src/draws.h:190: case 2:
   08A4                    1793 00112$:
                           1794 ;src/draws.h:191: cpct_drawSpriteMasked(fatiga_full, memptr, 2, 8);
   08A4 11r00r00      [10] 1795 	ld	de,#_fatiga_full
   08A7 21 02 08      [10] 1796 	ld	hl,#0x0802
   08AA E5            [11] 1797 	push	hl
   08AB C5            [11] 1798 	push	bc
   08AC D5            [11] 1799 	push	de
   08AD CDr00r00      [17] 1800 	call	_cpct_drawSpriteMasked
                           1801 ;src/draws.h:192: }
   08B0                    1802 00115$:
                           1803 ;src/draws.h:194: if(atk <= 20){
   08B0 DD 7E FF      [19] 1804 	ld	a,-1 (ix)
   08B3 B7            [ 4] 1805 	or	a, a
   08B4 20 39         [12] 1806 	jr	NZ,00122$
                           1807 ;src/draws.h:195: memptr = cpct_getScreenPtr(VMEM,34,192);
   08B6 21 22 C0      [10] 1808 	ld	hl,#0xC022
   08B9 E5            [11] 1809 	push	hl
   08BA 2E 00         [ 7] 1810 	ld	l, #0x00
   08BC E5            [11] 1811 	push	hl
   08BD CDr00r00      [17] 1812 	call	_cpct_getScreenPtr
                           1813 ;src/draws.h:172: cpct_drawSolidBox(memptr, col, 2, 8);
   08C0 4D            [ 4] 1814 	ld	c, l
   08C1 44            [ 4] 1815 	ld	b, h
                           1816 ;src/draws.h:196: switch(col){
   08C2 DD 7E 05      [19] 1817 	ld	a,5 (ix)
   08C5 B7            [ 4] 1818 	or	a, a
   08C6 28 09         [12] 1819 	jr	Z,00117$
   08C8 DD 7E 05      [19] 1820 	ld	a,5 (ix)
   08CB D6 02         [ 7] 1821 	sub	a, #0x02
   08CD 28 14         [12] 1822 	jr	Z,00118$
   08CF 18 1E         [12] 1823 	jr	00122$
                           1824 ;src/draws.h:197: case 0:
   08D1                    1825 00117$:
                           1826 ;src/draws.h:198: cpct_drawSolidBox(memptr, col, 2, 8);
   08D1 21 02 08      [10] 1827 	ld	hl,#0x0802
   08D4 E5            [11] 1828 	push	hl
   08D5 DD 7E 05      [19] 1829 	ld	a,5 (ix)
   08D8 F5            [11] 1830 	push	af
   08D9 33            [ 6] 1831 	inc	sp
   08DA C5            [11] 1832 	push	bc
   08DB CDr00r00      [17] 1833 	call	_cpct_drawSolidBox
   08DE F1            [10] 1834 	pop	af
   08DF F1            [10] 1835 	pop	af
   08E0 33            [ 6] 1836 	inc	sp
                           1837 ;src/draws.h:199: break;
   08E1 18 0C         [12] 1838 	jr	00122$
                           1839 ;src/draws.h:200: case 2:
   08E3                    1840 00118$:
                           1841 ;src/draws.h:201: cpct_drawSpriteMasked(fatiga_full, memptr, 2, 8);
   08E3 11r00r00      [10] 1842 	ld	de,#_fatiga_full
   08E6 21 02 08      [10] 1843 	ld	hl,#0x0802
   08E9 E5            [11] 1844 	push	hl
   08EA C5            [11] 1845 	push	bc
   08EB D5            [11] 1846 	push	de
   08EC CDr00r00      [17] 1847 	call	_cpct_drawSpriteMasked
                           1848 ;src/draws.h:202: }
   08EF                    1849 00122$:
   08EF DD F9         [10] 1850 	ld	sp, ix
   08F1 DD E1         [14] 1851 	pop	ix
   08F3 C9            [10] 1852 	ret
                           1853 ;src/draws.h:207: void drawPickUps(u8 corazon, u8 bullet){
                           1854 ;	---------------------------------
                           1855 ; Function drawPickUps
                           1856 ; ---------------------------------
   08F4                    1857 _drawPickUps::
   08F4 DD E5         [15] 1858 	push	ix
   08F6 DD 21 00 00   [14] 1859 	ld	ix,#0
   08FA DD 39         [15] 1860 	add	ix,sp
                           1861 ;src/draws.h:210: memptr = cpct_getScreenPtr(VMEM, 1*tilewidth, 10*tileheight);
   08FC 21 04 A0      [10] 1862 	ld	hl,#0xA004
   08FF E5            [11] 1863 	push	hl
   0900 21 00 C0      [10] 1864 	ld	hl,#0xC000
   0903 E5            [11] 1865 	push	hl
   0904 CDr00r00      [17] 1866 	call	_cpct_getScreenPtr
                           1867 ;src/draws.h:212: cpct_drawSpriteMasked(corazon_lleno,memptr,4,8);
   0907 4D            [ 4] 1868 	ld	c, l
   0908 44            [ 4] 1869 	ld	b, h
                           1870 ;src/draws.h:211: if(corazon == 0)
   0909 DD 7E 04      [19] 1871 	ld	a,4 (ix)
   090C B7            [ 4] 1872 	or	a, a
   090D 20 0E         [12] 1873 	jr	NZ,00102$
                           1874 ;src/draws.h:212: cpct_drawSpriteMasked(corazon_lleno,memptr,4,8);
   090F 11r00r00      [10] 1875 	ld	de,#_corazon_lleno
   0912 21 04 08      [10] 1876 	ld	hl,#0x0804
   0915 E5            [11] 1877 	push	hl
   0916 C5            [11] 1878 	push	bc
   0917 D5            [11] 1879 	push	de
   0918 CDr00r00      [17] 1880 	call	_cpct_drawSpriteMasked
   091B 18 0E         [12] 1881 	jr	00103$
   091D                    1882 00102$:
                           1883 ;src/draws.h:214: cpct_drawSolidBox(memptr, 0, 4, 8);
   091D 21 04 08      [10] 1884 	ld	hl,#0x0804
   0920 E5            [11] 1885 	push	hl
   0921 AF            [ 4] 1886 	xor	a, a
   0922 F5            [11] 1887 	push	af
   0923 33            [ 6] 1888 	inc	sp
   0924 C5            [11] 1889 	push	bc
   0925 CDr00r00      [17] 1890 	call	_cpct_drawSolidBox
   0928 F1            [10] 1891 	pop	af
   0929 F1            [10] 1892 	pop	af
   092A 33            [ 6] 1893 	inc	sp
   092B                    1894 00103$:
                           1895 ;src/draws.h:216: memptr = cpct_getScreenPtr(VMEM, 2*tilewidth, 1*tileheight);
   092B 21 08 10      [10] 1896 	ld	hl,#0x1008
   092E E5            [11] 1897 	push	hl
   092F 21 00 C0      [10] 1898 	ld	hl,#0xC000
   0932 E5            [11] 1899 	push	hl
   0933 CDr00r00      [17] 1900 	call	_cpct_getScreenPtr
                           1901 ;src/draws.h:212: cpct_drawSpriteMasked(corazon_lleno,memptr,4,8);
   0936 EB            [ 4] 1902 	ex	de,hl
                           1903 ;src/draws.h:217: if(bullet == 0)
   0937 DD 7E 05      [19] 1904 	ld	a,5 (ix)
   093A B7            [ 4] 1905 	or	a, a
   093B 20 0E         [12] 1906 	jr	NZ,00105$
                           1907 ;src/draws.h:218: cpct_drawSpriteMasked(flecha_arriba,memptr,2,8);
   093D 01r00r00      [10] 1908 	ld	bc,#_flecha_arriba
   0940 21 02 08      [10] 1909 	ld	hl,#0x0802
   0943 E5            [11] 1910 	push	hl
   0944 D5            [11] 1911 	push	de
   0945 C5            [11] 1912 	push	bc
   0946 CDr00r00      [17] 1913 	call	_cpct_drawSpriteMasked
   0949 18 0E         [12] 1914 	jr	00107$
   094B                    1915 00105$:
                           1916 ;src/draws.h:220: cpct_drawSolidBox(memptr, 0, 2, 8);
   094B 21 02 08      [10] 1917 	ld	hl,#0x0802
   094E E5            [11] 1918 	push	hl
   094F AF            [ 4] 1919 	xor	a, a
   0950 F5            [11] 1920 	push	af
   0951 33            [ 6] 1921 	inc	sp
   0952 D5            [11] 1922 	push	de
   0953 CDr00r00      [17] 1923 	call	_cpct_drawSolidBox
   0956 F1            [10] 1924 	pop	af
   0957 F1            [10] 1925 	pop	af
   0958 33            [ 6] 1926 	inc	sp
   0959                    1927 00107$:
   0959 DD E1         [14] 1928 	pop	ix
   095B C9            [10] 1929 	ret
                           1930 ;src/ia.h:12: u8 detectPlayerRoom(u8 px,u8 py){
                           1931 ;	---------------------------------
                           1932 ; Function detectPlayerRoom
                           1933 ; ---------------------------------
   095C                    1934 _detectPlayerRoom::
   095C DD E5         [15] 1935 	push	ix
   095E DD 21 00 00   [14] 1936 	ld	ix,#0
   0962 DD 39         [15] 1937 	add	ix,sp
                           1938 ;src/ia.h:13: return scene[py/tileheight][px/tilewidth];
   0964 11r00r00      [10] 1939 	ld	de,#_scene+0
   0967 DD 7E 05      [19] 1940 	ld	a,5 (ix)
   096A 07            [ 4] 1941 	rlca
   096B 07            [ 4] 1942 	rlca
   096C 07            [ 4] 1943 	rlca
   096D 07            [ 4] 1944 	rlca
   096E E6 0F         [ 7] 1945 	and	a,#0x0F
   0970 4F            [ 4] 1946 	ld	c,a
   0971 06 00         [ 7] 1947 	ld	b,#0x00
   0973 69            [ 4] 1948 	ld	l, c
   0974 60            [ 4] 1949 	ld	h, b
   0975 29            [11] 1950 	add	hl, hl
   0976 29            [11] 1951 	add	hl, hl
   0977 09            [11] 1952 	add	hl, bc
   0978 29            [11] 1953 	add	hl, hl
   0979 29            [11] 1954 	add	hl, hl
   097A 19            [11] 1955 	add	hl,de
   097B DD 5E 04      [19] 1956 	ld	e,4 (ix)
   097E CB 3B         [ 8] 1957 	srl	e
   0980 CB 3B         [ 8] 1958 	srl	e
   0982 16 00         [ 7] 1959 	ld	d,#0x00
   0984 19            [11] 1960 	add	hl,de
   0985 6E            [ 7] 1961 	ld	l,(hl)
   0986 DD E1         [14] 1962 	pop	ix
   0988 C9            [10] 1963 	ret
                           1964 ;src/ia.h:16: u8 chooseDirection(){
                           1965 ;	---------------------------------
                           1966 ; Function chooseDirection
                           1967 ; ---------------------------------
   0989                    1968 _chooseDirection::
                           1969 ;src/ia.h:18: u8 dir = 0;
   0989 16 00         [ 7] 1970 	ld	d,#0x00
                           1971 ;src/ia.h:19: u8 rnd = (rand()%4)+1;
   098B D5            [11] 1972 	push	de
   098C CDr00r00      [17] 1973 	call	_rand
   098F 01 04 00      [10] 1974 	ld	bc,#0x0004
   0992 C5            [11] 1975 	push	bc
   0993 E5            [11] 1976 	push	hl
   0994 CDr00r00      [17] 1977 	call	__modsint
   0997 F1            [10] 1978 	pop	af
   0998 F1            [10] 1979 	pop	af
   0999 D1            [10] 1980 	pop	de
   099A 5D            [ 4] 1981 	ld	e,l
   099B 1C            [ 4] 1982 	inc	e
                           1983 ;src/ia.h:20: switch(rnd){
   099C 7B            [ 4] 1984 	ld	a,e
   099D D6 01         [ 7] 1985 	sub	a, #0x01
   099F 38 24         [12] 1986 	jr	C,00105$
   09A1 3E 04         [ 7] 1987 	ld	a,#0x04
   09A3 93            [ 4] 1988 	sub	a, e
   09A4 38 1F         [12] 1989 	jr	C,00105$
   09A6 1D            [ 4] 1990 	dec	e
   09A7 16 00         [ 7] 1991 	ld	d,#0x00
   09A9 21rAFr09      [10] 1992 	ld	hl,#00116$
   09AC 19            [11] 1993 	add	hl,de
   09AD 19            [11] 1994 	add	hl,de
                           1995 ;src/ia.h:21: case 4: dir = 6;break;
   09AE E9            [ 4] 1996 	jp	(hl)
   09AF                    1997 00116$:
   09AF 18 12         [12] 1998 	jr	00104$
   09B1 18 0C         [12] 1999 	jr	00103$
   09B3 18 06         [12] 2000 	jr	00102$
   09B5 18 00         [12] 2001 	jr	00101$
   09B7                    2002 00101$:
   09B7 16 06         [ 7] 2003 	ld	d,#0x06
   09B9 18 0A         [12] 2004 	jr	00105$
                           2005 ;src/ia.h:22: case 3: dir = 4;break;
   09BB                    2006 00102$:
   09BB 16 04         [ 7] 2007 	ld	d,#0x04
   09BD 18 06         [12] 2008 	jr	00105$
                           2009 ;src/ia.h:23: case 2: dir = 2;break;
   09BF                    2010 00103$:
   09BF 16 02         [ 7] 2011 	ld	d,#0x02
   09C1 18 02         [12] 2012 	jr	00105$
                           2013 ;src/ia.h:24: case 1: dir = 8;break;
   09C3                    2014 00104$:
   09C3 16 08         [ 7] 2015 	ld	d,#0x08
                           2016 ;src/ia.h:25: }
   09C5                    2017 00105$:
                           2018 ;src/ia.h:27: return dir;
   09C5 6A            [ 4] 2019 	ld	l,d
   09C6 C9            [10] 2020 	ret
                           2021 ;src/ia.h:31: u8 setDirection(u8 px,u8 py,u8 x,u8 y){
                           2022 ;	---------------------------------
                           2023 ; Function setDirection
                           2024 ; ---------------------------------
   09C7                    2025 _setDirection::
   09C7 DD E5         [15] 2026 	push	ix
   09C9 DD 21 00 00   [14] 2027 	ld	ix,#0
   09CD DD 39         [15] 2028 	add	ix,sp
                           2029 ;src/ia.h:33: if(px < x) dir = 4;
   09CF DD 7E 04      [19] 2030 	ld	a,4 (ix)
   09D2 DD 96 06      [19] 2031 	sub	a, 6 (ix)
   09D5 30 04         [12] 2032 	jr	NC,00108$
   09D7 2E 04         [ 7] 2033 	ld	l,#0x04
   09D9 18 1A         [12] 2034 	jr	00109$
   09DB                    2035 00108$:
                           2036 ;src/ia.h:34: else if(py > y) dir = 2;
   09DB DD 7E 07      [19] 2037 	ld	a,7 (ix)
   09DE DD 96 05      [19] 2038 	sub	a, 5 (ix)
   09E1 30 04         [12] 2039 	jr	NC,00105$
   09E3 2E 02         [ 7] 2040 	ld	l,#0x02
   09E5 18 0E         [12] 2041 	jr	00109$
   09E7                    2042 00105$:
                           2043 ;src/ia.h:35: else if(px > x) dir = 6;
   09E7 DD 7E 06      [19] 2044 	ld	a,6 (ix)
   09EA DD 96 04      [19] 2045 	sub	a, 4 (ix)
   09ED 30 04         [12] 2046 	jr	NC,00102$
   09EF 2E 06         [ 7] 2047 	ld	l,#0x06
   09F1 18 02         [12] 2048 	jr	00109$
   09F3                    2049 00102$:
                           2050 ;src/ia.h:36: else dir = 8;
   09F3 2E 08         [ 7] 2051 	ld	l,#0x08
   09F5                    2052 00109$:
                           2053 ;src/ia.h:37: return dir;
   09F5 DD E1         [14] 2054 	pop	ix
   09F7 C9            [10] 2055 	ret
                           2056 ;src/ia.h:40: void movement(u8 dir){
                           2057 ;	---------------------------------
                           2058 ; Function movement
                           2059 ; ---------------------------------
   09F8                    2060 _movement::
                           2061 ;src/ia.h:41: switch(dir){
   09F8 FD 21 02 00   [14] 2062 	ld	iy,#2
   09FC FD 39         [15] 2063 	add	iy,sp
   09FE FD 7E 00      [19] 2064 	ld	a,0 (iy)
   0A01 D6 02         [ 7] 2065 	sub	a, #0x02
   0A03 28 2B         [12] 2066 	jr	Z,00104$
   0A05 FD 7E 00      [19] 2067 	ld	a,0 (iy)
   0A08 D6 04         [ 7] 2068 	sub	a, #0x04
   0A0A 28 14         [12] 2069 	jr	Z,00102$
   0A0C FD 7E 00      [19] 2070 	ld	a,0 (iy)
   0A0F D6 06         [ 7] 2071 	sub	a, #0x06
   0A11 28 08         [12] 2072 	jr	Z,00101$
   0A13 FD 7E 00      [19] 2073 	ld	a,0 (iy)
   0A16 D6 08         [ 7] 2074 	sub	a, #0x08
   0A18 28 0E         [12] 2075 	jr	Z,00103$
   0A1A C9            [10] 2076 	ret
                           2077 ;src/ia.h:42: case 6: enemy.x += 1; break;
   0A1B                    2078 00101$:
   0A1B 21r19r01      [10] 2079 	ld	hl,#_enemy+0
   0A1E 34            [11] 2080 	inc	(hl)
   0A1F C9            [10] 2081 	ret
                           2082 ;src/ia.h:43: case 4: enemy.x -= 1; break;
   0A20                    2083 00102$:
   0A20 11r19r01      [10] 2084 	ld	de,#_enemy+0
   0A23 1A            [ 7] 2085 	ld	a,(de)
   0A24 C6 FF         [ 7] 2086 	add	a,#0xFF
   0A26 12            [ 7] 2087 	ld	(de),a
   0A27 C9            [10] 2088 	ret
                           2089 ;src/ia.h:44: case 8: enemy.y -= 2; break;
   0A28                    2090 00103$:
   0A28 11r1Ar01      [10] 2091 	ld	de,#_enemy+1
   0A2B 1A            [ 7] 2092 	ld	a,(de)
   0A2C C6 FE         [ 7] 2093 	add	a,#0xFE
   0A2E 12            [ 7] 2094 	ld	(de),a
   0A2F C9            [10] 2095 	ret
                           2096 ;src/ia.h:45: case 2: enemy.y += 2; break;
   0A30                    2097 00104$:
   0A30 21r1Ar01      [10] 2098 	ld	hl,#_enemy+1
   0A33 7E            [ 7] 2099 	ld	a,(hl)
   0A34 C6 02         [ 7] 2100 	add	a, #0x02
   0A36 77            [ 7] 2101 	ld	(hl),a
                           2102 ;src/ia.h:46: }
   0A37 C9            [10] 2103 	ret
                           2104 ;src/ia.h:50: void patrol(){
                           2105 ;	---------------------------------
                           2106 ; Function patrol
                           2107 ; ---------------------------------
   0A38                    2108 _patrol::
   0A38 DD E5         [15] 2109 	push	ix
   0A3A DD 21 00 00   [14] 2110 	ld	ix,#0
   0A3E DD 39         [15] 2111 	add	ix,sp
   0A40 21 F4 FF      [10] 2112 	ld	hl,#-12
   0A43 39            [11] 2113 	add	hl,sp
   0A44 F9            [ 6] 2114 	ld	sp,hl
                           2115 ;src/ia.h:52: movement(enemy.dir);
   0A45 3Ar22r01      [13] 2116 	ld	a, (#(_enemy + 0x0009) + 0)
   0A48 F5            [11] 2117 	push	af
   0A49 33            [ 6] 2118 	inc	sp
   0A4A CDrF8r09      [17] 2119 	call	_movement
   0A4D 33            [ 6] 2120 	inc	sp
                           2121 ;src/ia.h:54: if(scene[(enemy.y)/tileheight][(enemy.x)/tilewidth] != enemy.room
   0A4E 3Ar1Ar01      [13] 2122 	ld	a,(#_enemy + 1)
   0A51 DD 77 F6      [19] 2123 	ld	-10 (ix), a
   0A54 07            [ 4] 2124 	rlca
   0A55 07            [ 4] 2125 	rlca
   0A56 07            [ 4] 2126 	rlca
   0A57 07            [ 4] 2127 	rlca
   0A58 E6 0F         [ 7] 2128 	and	a,#0x0F
   0A5A 4F            [ 4] 2129 	ld	c,a
   0A5B 06 00         [ 7] 2130 	ld	b,#0x00
   0A5D 69            [ 4] 2131 	ld	l, c
   0A5E 60            [ 4] 2132 	ld	h, b
   0A5F 29            [11] 2133 	add	hl, hl
   0A60 29            [11] 2134 	add	hl, hl
   0A61 09            [11] 2135 	add	hl, bc
   0A62 29            [11] 2136 	add	hl, hl
   0A63 29            [11] 2137 	add	hl, hl
   0A64 3Er00         [ 7] 2138 	ld	a,#<(_scene)
   0A66 85            [ 4] 2139 	add	a, l
   0A67 DD 77 F4      [19] 2140 	ld	-12 (ix),a
   0A6A 3Es00         [ 7] 2141 	ld	a,#>(_scene)
   0A6C 8C            [ 4] 2142 	adc	a, h
   0A6D DD 77 F5      [19] 2143 	ld	-11 (ix),a
   0A70 3Ar19r01      [13] 2144 	ld	a,(#_enemy + 0)
   0A73 DD 77 FC      [19] 2145 	ld	-4 (ix), a
   0A76 0F            [ 4] 2146 	rrca
   0A77 0F            [ 4] 2147 	rrca
   0A78 E6 3F         [ 7] 2148 	and	a,#0x3F
   0A7A DD 77 F9      [19] 2149 	ld	-7 (ix),a
   0A7D DD 7E F4      [19] 2150 	ld	a,-12 (ix)
   0A80 DD 86 F9      [19] 2151 	add	a, -7 (ix)
   0A83 5F            [ 4] 2152 	ld	e,a
   0A84 DD 7E F5      [19] 2153 	ld	a,-11 (ix)
   0A87 CE 00         [ 7] 2154 	adc	a, #0x00
   0A89 57            [ 4] 2155 	ld	d,a
   0A8A 3Ar24r01      [13] 2156 	ld	a,(#_enemy + 11)
   0A8D DD 77 FD      [19] 2157 	ld	-3 (ix),a
   0A90 1A            [ 7] 2158 	ld	a,(de)
   0A91 57            [ 4] 2159 	ld	d,a
   0A92 DD 7E FD      [19] 2160 	ld	a,-3 (ix)
   0A95 92            [ 4] 2161 	sub	a, d
   0A96 C2r92r0B      [10] 2162 	jp	NZ,00106$
                           2163 ;src/ia.h:55: || scene[(enemy.y)/tileheight][(enemy.x+tilewidth-1)/tilewidth] != enemy.room
   0A99 DD 5E FC      [19] 2164 	ld	e,-4 (ix)
   0A9C 16 00         [ 7] 2165 	ld	d,#0x00
   0A9E 21 03 00      [10] 2166 	ld	hl,#0x0003
   0AA1 19            [11] 2167 	add	hl,de
   0AA2 DD 75 F7      [19] 2168 	ld	-9 (ix),l
   0AA5 DD 74 F8      [19] 2169 	ld	-8 (ix),h
   0AA8 DD 7E F7      [19] 2170 	ld	a,-9 (ix)
   0AAB DD 77 FE      [19] 2171 	ld	-2 (ix),a
   0AAE DD 7E F8      [19] 2172 	ld	a,-8 (ix)
   0AB1 DD 77 FF      [19] 2173 	ld	-1 (ix),a
   0AB4 DD 7E F8      [19] 2174 	ld	a,-8 (ix)
   0AB7 07            [ 4] 2175 	rlca
   0AB8 E6 01         [ 7] 2176 	and	a,#0x01
   0ABA DD 77 FC      [19] 2177 	ld	-4 (ix),a
   0ABD 21 06 00      [10] 2178 	ld	hl,#0x0006
   0AC0 19            [11] 2179 	add	hl,de
   0AC1 DD 75 FA      [19] 2180 	ld	-6 (ix),l
   0AC4 DD 74 FB      [19] 2181 	ld	-5 (ix),h
   0AC7 DD 7E FC      [19] 2182 	ld	a,-4 (ix)
   0ACA B7            [ 4] 2183 	or	a, a
   0ACB 28 0C         [12] 2184 	jr	Z,00113$
   0ACD DD 7E FA      [19] 2185 	ld	a,-6 (ix)
   0AD0 DD 77 FE      [19] 2186 	ld	-2 (ix),a
   0AD3 DD 7E FB      [19] 2187 	ld	a,-5 (ix)
   0AD6 DD 77 FF      [19] 2188 	ld	-1 (ix),a
   0AD9                    2189 00113$:
   0AD9 DD 6E FE      [19] 2190 	ld	l,-2 (ix)
   0ADC DD 66 FF      [19] 2191 	ld	h,-1 (ix)
   0ADF CB 2C         [ 8] 2192 	sra	h
   0AE1 CB 1D         [ 8] 2193 	rr	l
   0AE3 CB 2C         [ 8] 2194 	sra	h
   0AE5 CB 1D         [ 8] 2195 	rr	l
   0AE7 D1            [10] 2196 	pop	de
   0AE8 D5            [11] 2197 	push	de
   0AE9 19            [11] 2198 	add	hl,de
   0AEA DD 7E FD      [19] 2199 	ld	a,-3 (ix)
   0AED 96            [ 7] 2200 	sub	a,(hl)
   0AEE C2r92r0B      [10] 2201 	jp	NZ,00106$
                           2202 ;src/ia.h:56: || scene[(enemy.y+tileheight-2)/tileheight][(enemy.x)/tilewidth] != enemy.room
   0AF1 DD 5E F6      [19] 2203 	ld	e,-10 (ix)
   0AF4 16 00         [ 7] 2204 	ld	d,#0x00
   0AF6 21 0E 00      [10] 2205 	ld	hl,#0x000E
   0AF9 19            [11] 2206 	add	hl,de
   0AFA 4D            [ 4] 2207 	ld	c,l
   0AFB 44            [ 4] 2208 	ld	b,h
   0AFC 69            [ 4] 2209 	ld	l, c
   0AFD 78            [ 4] 2210 	ld	a,b
   0AFE 67            [ 4] 2211 	ld	h,a
   0AFF 07            [ 4] 2212 	rlca
   0B00 E6 01         [ 7] 2213 	and	a,#0x01
   0B02 DD 77 FE      [19] 2214 	ld	-2 (ix),a
   0B05 7B            [ 4] 2215 	ld	a,e
   0B06 C6 1D         [ 7] 2216 	add	a, #0x1D
   0B08 DD 77 F4      [19] 2217 	ld	-12 (ix),a
   0B0B 7A            [ 4] 2218 	ld	a,d
   0B0C CE 00         [ 7] 2219 	adc	a, #0x00
   0B0E DD 77 F5      [19] 2220 	ld	-11 (ix),a
   0B11 DD 7E FE      [19] 2221 	ld	a,-2 (ix)
   0B14 B7            [ 4] 2222 	or	a, a
   0B15 28 02         [12] 2223 	jr	Z,00114$
   0B17 E1            [10] 2224 	pop	hl
   0B18 E5            [11] 2225 	push	hl
   0B19                    2226 00114$:
   0B19 CB 2C         [ 8] 2227 	sra	h
   0B1B CB 1D         [ 8] 2228 	rr	l
   0B1D CB 2C         [ 8] 2229 	sra	h
   0B1F CB 1D         [ 8] 2230 	rr	l
   0B21 CB 2C         [ 8] 2231 	sra	h
   0B23 CB 1D         [ 8] 2232 	rr	l
   0B25 CB 2C         [ 8] 2233 	sra	h
   0B27 CB 1D         [ 8] 2234 	rr	l
   0B29 5D            [ 4] 2235 	ld	e, l
   0B2A 54            [ 4] 2236 	ld	d, h
   0B2B 29            [11] 2237 	add	hl, hl
   0B2C 29            [11] 2238 	add	hl, hl
   0B2D 19            [11] 2239 	add	hl, de
   0B2E 29            [11] 2240 	add	hl, hl
   0B2F 29            [11] 2241 	add	hl, hl
   0B30 11r00r00      [10] 2242 	ld	de,#_scene
   0B33 19            [11] 2243 	add	hl,de
   0B34 DD 5E F9      [19] 2244 	ld	e,-7 (ix)
   0B37 16 00         [ 7] 2245 	ld	d,#0x00
   0B39 19            [11] 2246 	add	hl,de
   0B3A DD 7E FD      [19] 2247 	ld	a,-3 (ix)
   0B3D 96            [ 7] 2248 	sub	a,(hl)
   0B3E 20 52         [12] 2249 	jr	NZ,00106$
                           2250 ;src/ia.h:57: || scene[(enemy.y+tileheight-2)/tileheight][(enemy.x+tilewidth-1)/tilewidth] != enemy.room
   0B40 DD 7E FE      [19] 2251 	ld	a,-2 (ix)
   0B43 B7            [ 4] 2252 	or	a, a
   0B44 28 02         [12] 2253 	jr	Z,00115$
   0B46 C1            [10] 2254 	pop	bc
   0B47 C5            [11] 2255 	push	bc
   0B48                    2256 00115$:
   0B48 CB 28         [ 8] 2257 	sra	b
   0B4A CB 19         [ 8] 2258 	rr	c
   0B4C CB 28         [ 8] 2259 	sra	b
   0B4E CB 19         [ 8] 2260 	rr	c
   0B50 CB 28         [ 8] 2261 	sra	b
   0B52 CB 19         [ 8] 2262 	rr	c
   0B54 CB 28         [ 8] 2263 	sra	b
   0B56 CB 19         [ 8] 2264 	rr	c
   0B58 69            [ 4] 2265 	ld	l, c
   0B59 60            [ 4] 2266 	ld	h, b
   0B5A 29            [11] 2267 	add	hl, hl
   0B5B 29            [11] 2268 	add	hl, hl
   0B5C 09            [11] 2269 	add	hl, bc
   0B5D 29            [11] 2270 	add	hl, hl
   0B5E 29            [11] 2271 	add	hl, hl
   0B5F 3Er00         [ 7] 2272 	ld	a,#<(_scene)
   0B61 85            [ 4] 2273 	add	a, l
   0B62 DD 77 FE      [19] 2274 	ld	-2 (ix),a
   0B65 3Es00         [ 7] 2275 	ld	a,#>(_scene)
   0B67 8C            [ 4] 2276 	adc	a, h
   0B68 DD 77 FF      [19] 2277 	ld	-1 (ix),a
   0B6B DD 5E F7      [19] 2278 	ld	e,-9 (ix)
   0B6E DD 56 F8      [19] 2279 	ld	d,-8 (ix)
   0B71 DD 7E FC      [19] 2280 	ld	a,-4 (ix)
   0B74 B7            [ 4] 2281 	or	a, a
   0B75 28 06         [12] 2282 	jr	Z,00116$
   0B77 DD 5E FA      [19] 2283 	ld	e,-6 (ix)
   0B7A DD 56 FB      [19] 2284 	ld	d,-5 (ix)
   0B7D                    2285 00116$:
   0B7D CB 2A         [ 8] 2286 	sra	d
   0B7F CB 1B         [ 8] 2287 	rr	e
   0B81 CB 2A         [ 8] 2288 	sra	d
   0B83 CB 1B         [ 8] 2289 	rr	e
   0B85 DD 6E FE      [19] 2290 	ld	l,-2 (ix)
   0B88 DD 66 FF      [19] 2291 	ld	h,-1 (ix)
   0B8B 19            [11] 2292 	add	hl,de
   0B8C DD 7E FD      [19] 2293 	ld	a,-3 (ix)
   0B8F 96            [ 7] 2294 	sub	a,(hl)
   0B90 28 3B         [12] 2295 	jr	Z,00111$
   0B92                    2296 00106$:
                           2297 ;src/ia.h:59: switch(enemy.dir){
   0B92 3Ar22r01      [13] 2298 	ld	a,(#(_enemy + 0x0009) + 0)
   0B95 FE 02         [ 7] 2299 	cp	a,#0x02
   0B97 28 22         [12] 2300 	jr	Z,00103$
   0B99 FE 04         [ 7] 2301 	cp	a,#0x04
   0B9B 28 0A         [12] 2302 	jr	Z,00101$
   0B9D FE 06         [ 7] 2303 	cp	a,#0x06
   0B9F 28 10         [12] 2304 	jr	Z,00102$
   0BA1 D6 08         [ 7] 2305 	sub	a, #0x08
   0BA3 28 20         [12] 2306 	jr	Z,00104$
   0BA5 18 26         [12] 2307 	jr	00111$
                           2308 ;src/ia.h:60: case 4: movement(6); break;
   0BA7                    2309 00101$:
   0BA7 3E 06         [ 7] 2310 	ld	a,#0x06
   0BA9 F5            [11] 2311 	push	af
   0BAA 33            [ 6] 2312 	inc	sp
   0BAB CDrF8r09      [17] 2313 	call	_movement
   0BAE 33            [ 6] 2314 	inc	sp
   0BAF 18 1C         [12] 2315 	jr	00111$
                           2316 ;src/ia.h:61: case 6: movement(4); break;
   0BB1                    2317 00102$:
   0BB1 3E 04         [ 7] 2318 	ld	a,#0x04
   0BB3 F5            [11] 2319 	push	af
   0BB4 33            [ 6] 2320 	inc	sp
   0BB5 CDrF8r09      [17] 2321 	call	_movement
   0BB8 33            [ 6] 2322 	inc	sp
   0BB9 18 12         [12] 2323 	jr	00111$
                           2324 ;src/ia.h:62: case 2: movement(8); break;
   0BBB                    2325 00103$:
   0BBB 3E 08         [ 7] 2326 	ld	a,#0x08
   0BBD F5            [11] 2327 	push	af
   0BBE 33            [ 6] 2328 	inc	sp
   0BBF CDrF8r09      [17] 2329 	call	_movement
   0BC2 33            [ 6] 2330 	inc	sp
   0BC3 18 08         [12] 2331 	jr	00111$
                           2332 ;src/ia.h:63: case 8: movement(2); break;
   0BC5                    2333 00104$:
   0BC5 3E 02         [ 7] 2334 	ld	a,#0x02
   0BC7 F5            [11] 2335 	push	af
   0BC8 33            [ 6] 2336 	inc	sp
   0BC9 CDrF8r09      [17] 2337 	call	_movement
   0BCC 33            [ 6] 2338 	inc	sp
                           2339 ;src/ia.h:64: }
   0BCD                    2340 00111$:
   0BCD DD F9         [10] 2341 	ld	sp, ix
   0BCF DD E1         [14] 2342 	pop	ix
   0BD1 C9            [10] 2343 	ret
                           2344 ;src/CalcColision.h:7: u8 checkCollisions(u8 pX, u8 pY, u8 eX, u8 eY, u8 atk){
                           2345 ;	---------------------------------
                           2346 ; Function checkCollisions
                           2347 ; ---------------------------------
   0BD2                    2348 _checkCollisions::
   0BD2 DD E5         [15] 2349 	push	ix
   0BD4 DD 21 00 00   [14] 2350 	ld	ix,#0
   0BD8 DD 39         [15] 2351 	add	ix,sp
   0BDA 21 FA FF      [10] 2352 	ld	hl,#-6
   0BDD 39            [11] 2353 	add	hl,sp
   0BDE F9            [ 6] 2354 	ld	sp,hl
                           2355 ;src/CalcColision.h:14: switch(atk){
   0BDF DD 7E 08      [19] 2356 	ld	a,8 (ix)
   0BE2 D6 15         [ 7] 2357 	sub	a, #0x15
   0BE4 28 09         [12] 2358 	jr	Z,00101$
   0BE6 DD 7E 08      [19] 2359 	ld	a,8 (ix)
   0BE9 D6 16         [ 7] 2360 	sub	a, #0x16
   0BEB 28 08         [12] 2361 	jr	Z,00102$
   0BED 18 0C         [12] 2362 	jr	00103$
                           2363 ;src/CalcColision.h:15: case 21:
   0BEF                    2364 00101$:
                           2365 ;src/CalcColision.h:16: auxX = 2;
   0BEF 1E 02         [ 7] 2366 	ld	e,#0x02
                           2367 ;src/CalcColision.h:17: auxY = 8;
   0BF1 0E 08         [ 7] 2368 	ld	c,#0x08
                           2369 ;src/CalcColision.h:18: break;
   0BF3 18 0A         [12] 2370 	jr	00104$
                           2371 ;src/CalcColision.h:19: case 22:
   0BF5                    2372 00102$:
                           2373 ;src/CalcColision.h:20: auxX = 4;
   0BF5 1E 04         [ 7] 2374 	ld	e,#0x04
                           2375 ;src/CalcColision.h:21: auxY = 4;
   0BF7 0E 04         [ 7] 2376 	ld	c,#0x04
                           2377 ;src/CalcColision.h:22: break;
   0BF9 18 04         [12] 2378 	jr	00104$
                           2379 ;src/CalcColision.h:23: default:
   0BFB                    2380 00103$:
                           2381 ;src/CalcColision.h:24: auxX = tilewidth;
   0BFB 1E 04         [ 7] 2382 	ld	e,#0x04
                           2383 ;src/CalcColision.h:25: auxY = tileheight;
   0BFD 0E 10         [ 7] 2384 	ld	c,#0x10
                           2385 ;src/CalcColision.h:26: }
   0BFF                    2386 00104$:
                           2387 ;src/CalcColision.h:27: popX = pX + auxX;
   0BFF DD 7E 04      [19] 2388 	ld	a,4 (ix)
   0C02 83            [ 4] 2389 	add	a, e
   0C03 6F            [ 4] 2390 	ld	l,a
                           2391 ;src/CalcColision.h:28: popY = pY + auxY;
   0C04 DD 7E 05      [19] 2392 	ld	a,5 (ix)
   0C07 81            [ 4] 2393 	add	a, c
   0C08 DD 77 FA      [19] 2394 	ld	-6 (ix),a
                           2395 ;src/CalcColision.h:29: eopX = eX + auxX;
   0C0B DD 7E 06      [19] 2396 	ld	a,6 (ix)
   0C0E 83            [ 4] 2397 	add	a, e
   0C0F 5F            [ 4] 2398 	ld	e,a
                           2399 ;src/CalcColision.h:30: eopY = eY + auxY;
   0C10 DD 7E 07      [19] 2400 	ld	a,7 (ix)
   0C13 81            [ 4] 2401 	add	a, c
   0C14 DD 77 FB      [19] 2402 	ld	-5 (ix),a
                           2403 ;src/CalcColision.h:32: if(eopX >= pX && eopX <= popX && eY >= pY && eY <= popY)
   0C17 7B            [ 4] 2404 	ld	a,e
   0C18 DD 96 04      [19] 2405 	sub	a, 4 (ix)
   0C1B 3E 00         [ 7] 2406 	ld	a,#0x00
   0C1D 17            [ 4] 2407 	rla
   0C1E DD 77 FC      [19] 2408 	ld	-4 (ix),a
   0C21 7D            [ 4] 2409 	ld	a,l
   0C22 93            [ 4] 2410 	sub	a, e
   0C23 3E 00         [ 7] 2411 	ld	a,#0x00
   0C25 17            [ 4] 2412 	rla
   0C26 DD 77 FD      [19] 2413 	ld	-3 (ix),a
   0C29 DD 7E 07      [19] 2414 	ld	a,7 (ix)
   0C2C DD 96 05      [19] 2415 	sub	a, 5 (ix)
   0C2F 3E 00         [ 7] 2416 	ld	a,#0x00
   0C31 17            [ 4] 2417 	rla
   0C32 5F            [ 4] 2418 	ld	e,a
   0C33 DD 7E FA      [19] 2419 	ld	a,-6 (ix)
   0C36 DD 96 07      [19] 2420 	sub	a, 7 (ix)
   0C39 3E 00         [ 7] 2421 	ld	a,#0x00
   0C3B 17            [ 4] 2422 	rla
   0C3C 4F            [ 4] 2423 	ld	c,a
                           2424 ;src/CalcColision.h:33: if(atk >= 21)
   0C3D DD 7E 08      [19] 2425 	ld	a,8 (ix)
   0C40 D6 15         [ 7] 2426 	sub	a, #0x15
   0C42 3E 00         [ 7] 2427 	ld	a,#0x00
   0C44 17            [ 4] 2428 	rla
   0C45 DD 77 FF      [19] 2429 	ld	-1 (ix),a
                           2430 ;src/CalcColision.h:32: if(eopX >= pX && eopX <= popX && eY >= pY && eY <= popY)
   0C48 DD 7E FC      [19] 2431 	ld	a,-4 (ix)
   0C4B B7            [ 4] 2432 	or	a, a
   0C4C 20 1C         [12] 2433 	jr	NZ,00109$
   0C4E DD 7E FD      [19] 2434 	ld	a,-3 (ix)
   0C51 B7            [ 4] 2435 	or	a,a
   0C52 20 16         [12] 2436 	jr	NZ,00109$
   0C54 B3            [ 4] 2437 	or	a,e
   0C55 20 13         [12] 2438 	jr	NZ,00109$
   0C57 B1            [ 4] 2439 	or	a,c
   0C58 20 10         [12] 2440 	jr	NZ,00109$
                           2441 ;src/CalcColision.h:33: if(atk >= 21)
   0C5A DD 7E FF      [19] 2442 	ld	a,-1 (ix)
   0C5D B7            [ 4] 2443 	or	a, a
   0C5E 20 05         [12] 2444 	jr	NZ,00106$
                           2445 ;src/CalcColision.h:34: return 1;
   0C60 2E 01         [ 7] 2446 	ld	l,#0x01
   0C62 C3rEEr0C      [10] 2447 	jp	00137$
   0C65                    2448 00106$:
                           2449 ;src/CalcColision.h:36: return 2;
   0C65 2E 02         [ 7] 2450 	ld	l,#0x02
   0C67 C3rEEr0C      [10] 2451 	jp	00137$
   0C6A                    2452 00109$:
                           2453 ;src/CalcColision.h:38: if(eX >= pX && eX <= popX && eY >= pY && eY <= popY)
   0C6A DD 7E 06      [19] 2454 	ld	a,6 (ix)
   0C6D DD 96 04      [19] 2455 	sub	a, 4 (ix)
   0C70 3E 00         [ 7] 2456 	ld	a,#0x00
   0C72 17            [ 4] 2457 	rla
   0C73 DD 77 FE      [19] 2458 	ld	-2 (ix),a
   0C76 7D            [ 4] 2459 	ld	a,l
   0C77 DD 96 06      [19] 2460 	sub	a, 6 (ix)
   0C7A 3E 00         [ 7] 2461 	ld	a,#0x00
   0C7C 17            [ 4] 2462 	rla
   0C7D 6F            [ 4] 2463 	ld	l,a
   0C7E DD 7E FE      [19] 2464 	ld	a,-2 (ix)
   0C81 B7            [ 4] 2465 	or	a,a
   0C82 20 17         [12] 2466 	jr	NZ,00117$
   0C84 B5            [ 4] 2467 	or	a,l
   0C85 20 14         [12] 2468 	jr	NZ,00117$
   0C87 B3            [ 4] 2469 	or	a,e
   0C88 20 11         [12] 2470 	jr	NZ,00117$
   0C8A B1            [ 4] 2471 	or	a,c
   0C8B 20 0E         [12] 2472 	jr	NZ,00117$
                           2473 ;src/CalcColision.h:39: if(atk >= 21)
   0C8D DD 7E FF      [19] 2474 	ld	a,-1 (ix)
   0C90 B7            [ 4] 2475 	or	a, a
   0C91 20 04         [12] 2476 	jr	NZ,00114$
                           2477 ;src/CalcColision.h:40: return 1;
   0C93 2E 01         [ 7] 2478 	ld	l,#0x01
   0C95 18 57         [12] 2479 	jr	00137$
   0C97                    2480 00114$:
                           2481 ;src/CalcColision.h:42: return 2;
   0C97 2E 02         [ 7] 2482 	ld	l,#0x02
   0C99 18 53         [12] 2483 	jr	00137$
   0C9B                    2484 00117$:
                           2485 ;src/CalcColision.h:44: if(eX >= pX && eX <= popX && eopY >= pY && eopY <= popY)
   0C9B DD 7E FB      [19] 2486 	ld	a,-5 (ix)
   0C9E DD 96 05      [19] 2487 	sub	a, 5 (ix)
   0CA1 3E 00         [ 7] 2488 	ld	a,#0x00
   0CA3 17            [ 4] 2489 	rla
   0CA4 5F            [ 4] 2490 	ld	e,a
   0CA5 DD 7E FA      [19] 2491 	ld	a,-6 (ix)
   0CA8 DD 96 FB      [19] 2492 	sub	a, -5 (ix)
   0CAB 3E 00         [ 7] 2493 	ld	a,#0x00
   0CAD 17            [ 4] 2494 	rla
   0CAE 67            [ 4] 2495 	ld	h,a
   0CAF DD 7E FE      [19] 2496 	ld	a,-2 (ix)
   0CB2 B7            [ 4] 2497 	or	a,a
   0CB3 20 17         [12] 2498 	jr	NZ,00125$
   0CB5 B5            [ 4] 2499 	or	a,l
   0CB6 20 14         [12] 2500 	jr	NZ,00125$
   0CB8 B3            [ 4] 2501 	or	a,e
   0CB9 20 11         [12] 2502 	jr	NZ,00125$
   0CBB B4            [ 4] 2503 	or	a,h
   0CBC 20 0E         [12] 2504 	jr	NZ,00125$
                           2505 ;src/CalcColision.h:45: if(atk >= 21)
   0CBE DD 7E FF      [19] 2506 	ld	a,-1 (ix)
   0CC1 B7            [ 4] 2507 	or	a, a
   0CC2 20 04         [12] 2508 	jr	NZ,00122$
                           2509 ;src/CalcColision.h:46: return 1;
   0CC4 2E 01         [ 7] 2510 	ld	l,#0x01
   0CC6 18 26         [12] 2511 	jr	00137$
   0CC8                    2512 00122$:
                           2513 ;src/CalcColision.h:48: return 2;
   0CC8 2E 02         [ 7] 2514 	ld	l,#0x02
   0CCA 18 22         [12] 2515 	jr	00137$
   0CCC                    2516 00125$:
                           2517 ;src/CalcColision.h:50: if(eopX >= pX && eopX <= popX && eopY >= pY && eopY <= popY)
   0CCC DD 7E FC      [19] 2518 	ld	a,-4 (ix)
   0CCF B7            [ 4] 2519 	or	a, a
   0CD0 20 1A         [12] 2520 	jr	NZ,00133$
   0CD2 DD 7E FD      [19] 2521 	ld	a,-3 (ix)
   0CD5 B7            [ 4] 2522 	or	a,a
   0CD6 20 14         [12] 2523 	jr	NZ,00133$
   0CD8 B3            [ 4] 2524 	or	a,e
   0CD9 20 11         [12] 2525 	jr	NZ,00133$
   0CDB B4            [ 4] 2526 	or	a,h
   0CDC 20 0E         [12] 2527 	jr	NZ,00133$
                           2528 ;src/CalcColision.h:51: if(atk >= 21)
   0CDE DD 7E FF      [19] 2529 	ld	a,-1 (ix)
   0CE1 B7            [ 4] 2530 	or	a, a
   0CE2 20 04         [12] 2531 	jr	NZ,00130$
                           2532 ;src/CalcColision.h:52: return 1;
   0CE4 2E 01         [ 7] 2533 	ld	l,#0x01
   0CE6 18 06         [12] 2534 	jr	00137$
   0CE8                    2535 00130$:
                           2536 ;src/CalcColision.h:54: return 2;
   0CE8 2E 02         [ 7] 2537 	ld	l,#0x02
   0CEA 18 02         [12] 2538 	jr	00137$
   0CEC                    2539 00133$:
                           2540 ;src/CalcColision.h:56: return 0;
   0CEC 2E 00         [ 7] 2541 	ld	l,#0x00
   0CEE                    2542 00137$:
   0CEE DD F9         [10] 2543 	ld	sp, ix
   0CF0 DD E1         [14] 2544 	pop	ix
   0CF2 C9            [10] 2545 	ret
                           2546 ;src/CalcColision.h:59: u8 checkArrowCollisions(){
                           2547 ;	---------------------------------
                           2548 ; Function checkArrowCollisions
                           2549 ; ---------------------------------
   0CF3                    2550 _checkArrowCollisions::
   0CF3 DD E5         [15] 2551 	push	ix
   0CF5 DD 21 00 00   [14] 2552 	ld	ix,#0
   0CF9 DD 39         [15] 2553 	add	ix,sp
   0CFB 21 F4 FF      [10] 2554 	ld	hl,#-12
   0CFE 39            [11] 2555 	add	hl,sp
   0CFF F9            [ 6] 2556 	ld	sp,hl
                           2557 ;src/CalcColision.h:82: u8 bound =0;
   0D00 DD 36 F4 00   [19] 2558 	ld	-12 (ix),#0x00
                           2559 ;src/CalcColision.h:83: if(    scene[(parrow.y)/tileheight][(parrow.x)/tilewidth] == 1
   0D04 3ArFBr00      [13] 2560 	ld	a,(#(_parrow + 0x0001) + 0)
   0D07 DD 77 FB      [19] 2561 	ld	-5 (ix), a
   0D0A 07            [ 4] 2562 	rlca
   0D0B 07            [ 4] 2563 	rlca
   0D0C 07            [ 4] 2564 	rlca
   0D0D 07            [ 4] 2565 	rlca
   0D0E E6 0F         [ 7] 2566 	and	a,#0x0F
   0D10 4F            [ 4] 2567 	ld	c,a
   0D11 06 00         [ 7] 2568 	ld	b,#0x00
   0D13 69            [ 4] 2569 	ld	l, c
   0D14 60            [ 4] 2570 	ld	h, b
   0D15 29            [11] 2571 	add	hl, hl
   0D16 29            [11] 2572 	add	hl, hl
   0D17 09            [11] 2573 	add	hl, bc
   0D18 29            [11] 2574 	add	hl, hl
   0D19 29            [11] 2575 	add	hl, hl
   0D1A 3Er00         [ 7] 2576 	ld	a,#<(_scene)
   0D1C 85            [ 4] 2577 	add	a, l
   0D1D DD 77 FC      [19] 2578 	ld	-4 (ix),a
   0D20 3Es00         [ 7] 2579 	ld	a,#>(_scene)
   0D22 8C            [ 4] 2580 	adc	a, h
   0D23 DD 77 FD      [19] 2581 	ld	-3 (ix),a
   0D26 21rFAr00      [10] 2582 	ld	hl, #_parrow + 0
   0D29 4E            [ 7] 2583 	ld	c,(hl)
   0D2A 79            [ 4] 2584 	ld	a,c
   0D2B 0F            [ 4] 2585 	rrca
   0D2C 0F            [ 4] 2586 	rrca
   0D2D E6 3F         [ 7] 2587 	and	a,#0x3F
   0D2F DD 77 FA      [19] 2588 	ld	-6 (ix),a
   0D32 DD 7E FC      [19] 2589 	ld	a,-4 (ix)
   0D35 DD 86 FA      [19] 2590 	add	a, -6 (ix)
   0D38 6F            [ 4] 2591 	ld	l,a
   0D39 DD 7E FD      [19] 2592 	ld	a,-3 (ix)
   0D3C CE 00         [ 7] 2593 	adc	a, #0x00
   0D3E 67            [ 4] 2594 	ld	h,a
   0D3F 7E            [ 7] 2595 	ld	a,(hl)
   0D40 3D            [ 4] 2596 	dec	a
   0D41 CAr3Er0E      [10] 2597 	jp	Z,00101$
                           2598 ;src/CalcColision.h:84: || scene[(parrow.y)/tileheight][(parrow.x+tilewidth-1)/tilewidth] == 1
   0D44 06 00         [ 7] 2599 	ld	b,#0x00
   0D46 21 03 00      [10] 2600 	ld	hl,#0x0003
   0D49 09            [11] 2601 	add	hl,bc
   0D4A DD 75 F6      [19] 2602 	ld	-10 (ix),l
   0D4D DD 74 F7      [19] 2603 	ld	-9 (ix),h
   0D50 DD 7E F6      [19] 2604 	ld	a,-10 (ix)
   0D53 DD 77 FE      [19] 2605 	ld	-2 (ix),a
   0D56 DD 7E F7      [19] 2606 	ld	a,-9 (ix)
   0D59 DD 77 FF      [19] 2607 	ld	-1 (ix),a
   0D5C DD 7E F7      [19] 2608 	ld	a,-9 (ix)
   0D5F 07            [ 4] 2609 	rlca
   0D60 E6 01         [ 7] 2610 	and	a,#0x01
   0D62 DD 77 F5      [19] 2611 	ld	-11 (ix),a
   0D65 21 06 00      [10] 2612 	ld	hl,#0x0006
   0D68 09            [11] 2613 	add	hl,bc
   0D69 DD 75 F8      [19] 2614 	ld	-8 (ix),l
   0D6C DD 74 F9      [19] 2615 	ld	-7 (ix),h
   0D6F DD 7E F5      [19] 2616 	ld	a,-11 (ix)
   0D72 B7            [ 4] 2617 	or	a, a
   0D73 28 0C         [12] 2618 	jr	Z,00108$
   0D75 DD 7E F8      [19] 2619 	ld	a,-8 (ix)
   0D78 DD 77 FE      [19] 2620 	ld	-2 (ix),a
   0D7B DD 7E F9      [19] 2621 	ld	a,-7 (ix)
   0D7E DD 77 FF      [19] 2622 	ld	-1 (ix),a
   0D81                    2623 00108$:
   0D81 DD 6E FE      [19] 2624 	ld	l,-2 (ix)
   0D84 DD 66 FF      [19] 2625 	ld	h,-1 (ix)
   0D87 CB 2C         [ 8] 2626 	sra	h
   0D89 CB 1D         [ 8] 2627 	rr	l
   0D8B CB 2C         [ 8] 2628 	sra	h
   0D8D CB 1D         [ 8] 2629 	rr	l
   0D8F DD 5E FC      [19] 2630 	ld	e,-4 (ix)
   0D92 DD 56 FD      [19] 2631 	ld	d,-3 (ix)
   0D95 19            [11] 2632 	add	hl,de
   0D96 7E            [ 7] 2633 	ld	a,(hl)
   0D97 3D            [ 4] 2634 	dec	a
   0D98 CAr3Er0E      [10] 2635 	jp	Z,00101$
                           2636 ;src/CalcColision.h:85: || scene[(parrow.y+tileheight-2)/tileheight][(parrow.x)/tilewidth] == 1
   0D9B DD 5E FB      [19] 2637 	ld	e,-5 (ix)
   0D9E 16 00         [ 7] 2638 	ld	d,#0x00
   0DA0 21 0E 00      [10] 2639 	ld	hl,#0x000E
   0DA3 19            [11] 2640 	add	hl,de
   0DA4 4D            [ 4] 2641 	ld	c,l
   0DA5 44            [ 4] 2642 	ld	b,h
   0DA6 69            [ 4] 2643 	ld	l, c
   0DA7 78            [ 4] 2644 	ld	a,b
   0DA8 67            [ 4] 2645 	ld	h,a
   0DA9 07            [ 4] 2646 	rlca
   0DAA E6 01         [ 7] 2647 	and	a,#0x01
   0DAC DD 77 FE      [19] 2648 	ld	-2 (ix),a
   0DAF 7B            [ 4] 2649 	ld	a,e
   0DB0 C6 1D         [ 7] 2650 	add	a, #0x1D
   0DB2 DD 77 FC      [19] 2651 	ld	-4 (ix),a
   0DB5 7A            [ 4] 2652 	ld	a,d
   0DB6 CE 00         [ 7] 2653 	adc	a, #0x00
   0DB8 DD 77 FD      [19] 2654 	ld	-3 (ix),a
   0DBB DD 7E FE      [19] 2655 	ld	a,-2 (ix)
   0DBE B7            [ 4] 2656 	or	a, a
   0DBF 28 06         [12] 2657 	jr	Z,00109$
   0DC1 DD 6E FC      [19] 2658 	ld	l,-4 (ix)
   0DC4 DD 66 FD      [19] 2659 	ld	h,-3 (ix)
   0DC7                    2660 00109$:
   0DC7 CB 2C         [ 8] 2661 	sra	h
   0DC9 CB 1D         [ 8] 2662 	rr	l
   0DCB CB 2C         [ 8] 2663 	sra	h
   0DCD CB 1D         [ 8] 2664 	rr	l
   0DCF CB 2C         [ 8] 2665 	sra	h
   0DD1 CB 1D         [ 8] 2666 	rr	l
   0DD3 CB 2C         [ 8] 2667 	sra	h
   0DD5 CB 1D         [ 8] 2668 	rr	l
   0DD7 5D            [ 4] 2669 	ld	e, l
   0DD8 54            [ 4] 2670 	ld	d, h
   0DD9 29            [11] 2671 	add	hl, hl
   0DDA 29            [11] 2672 	add	hl, hl
   0DDB 19            [11] 2673 	add	hl, de
   0DDC 29            [11] 2674 	add	hl, hl
   0DDD 29            [11] 2675 	add	hl, hl
   0DDE 11r00r00      [10] 2676 	ld	de,#_scene
   0DE1 19            [11] 2677 	add	hl,de
   0DE2 DD 5E FA      [19] 2678 	ld	e,-6 (ix)
   0DE5 16 00         [ 7] 2679 	ld	d,#0x00
   0DE7 19            [11] 2680 	add	hl,de
   0DE8 7E            [ 7] 2681 	ld	a,(hl)
   0DE9 3D            [ 4] 2682 	dec	a
   0DEA 28 52         [12] 2683 	jr	Z,00101$
                           2684 ;src/CalcColision.h:86: || scene[(parrow.y+tileheight-2)/tileheight][(parrow.x+tilewidth-1)/tilewidth] == 1
   0DEC DD 7E FE      [19] 2685 	ld	a,-2 (ix)
   0DEF B7            [ 4] 2686 	or	a, a
   0DF0 28 06         [12] 2687 	jr	Z,00110$
   0DF2 DD 4E FC      [19] 2688 	ld	c,-4 (ix)
   0DF5 DD 46 FD      [19] 2689 	ld	b,-3 (ix)
   0DF8                    2690 00110$:
   0DF8 CB 28         [ 8] 2691 	sra	b
   0DFA CB 19         [ 8] 2692 	rr	c
   0DFC CB 28         [ 8] 2693 	sra	b
   0DFE CB 19         [ 8] 2694 	rr	c
   0E00 CB 28         [ 8] 2695 	sra	b
   0E02 CB 19         [ 8] 2696 	rr	c
   0E04 CB 28         [ 8] 2697 	sra	b
   0E06 CB 19         [ 8] 2698 	rr	c
   0E08 69            [ 4] 2699 	ld	l, c
   0E09 60            [ 4] 2700 	ld	h, b
   0E0A 29            [11] 2701 	add	hl, hl
   0E0B 29            [11] 2702 	add	hl, hl
   0E0C 09            [11] 2703 	add	hl, bc
   0E0D 29            [11] 2704 	add	hl, hl
   0E0E 29            [11] 2705 	add	hl, hl
   0E0F 3Er00         [ 7] 2706 	ld	a,#<(_scene)
   0E11 85            [ 4] 2707 	add	a, l
   0E12 DD 77 FE      [19] 2708 	ld	-2 (ix),a
   0E15 3Es00         [ 7] 2709 	ld	a,#>(_scene)
   0E17 8C            [ 4] 2710 	adc	a, h
   0E18 DD 77 FF      [19] 2711 	ld	-1 (ix),a
   0E1B C1            [10] 2712 	pop	bc
   0E1C E1            [10] 2713 	pop	hl
   0E1D E5            [11] 2714 	push	hl
   0E1E C5            [11] 2715 	push	bc
   0E1F DD 7E F5      [19] 2716 	ld	a,-11 (ix)
   0E22 B7            [ 4] 2717 	or	a, a
   0E23 28 06         [12] 2718 	jr	Z,00111$
   0E25 DD 6E F8      [19] 2719 	ld	l,-8 (ix)
   0E28 DD 66 F9      [19] 2720 	ld	h,-7 (ix)
   0E2B                    2721 00111$:
   0E2B CB 2C         [ 8] 2722 	sra	h
   0E2D CB 1D         [ 8] 2723 	rr	l
   0E2F CB 2C         [ 8] 2724 	sra	h
   0E31 CB 1D         [ 8] 2725 	rr	l
   0E33 DD 5E FE      [19] 2726 	ld	e,-2 (ix)
   0E36 DD 56 FF      [19] 2727 	ld	d,-1 (ix)
   0E39 19            [11] 2728 	add	hl,de
   0E3A 7E            [ 7] 2729 	ld	a,(hl)
   0E3B 3D            [ 4] 2730 	dec	a
   0E3C 20 10         [12] 2731 	jr	NZ,00102$
   0E3E                    2732 00101$:
                           2733 ;src/CalcColision.h:88: parrow.x=parrow.lx;
   0E3E 3ArFCr00      [13] 2734 	ld	a, (#_parrow + 2)
   0E41 32rFAr00      [13] 2735 	ld	(#_parrow),a
                           2736 ;src/CalcColision.h:89: parrow.y=parrow.ly;
   0E44 3ArFDr00      [13] 2737 	ld	a, (#_parrow + 3)
   0E47 32rFBr00      [13] 2738 	ld	(#(_parrow + 0x0001)),a
                           2739 ;src/CalcColision.h:90: bound = 1;
   0E4A DD 36 F4 01   [19] 2740 	ld	-12 (ix),#0x01
   0E4E                    2741 00102$:
                           2742 ;src/CalcColision.h:93: return bound;
   0E4E DD 6E F4      [19] 2743 	ld	l,-12 (ix)
   0E51 DD F9         [10] 2744 	ld	sp, ix
   0E53 DD E1         [14] 2745 	pop	ix
   0E55 C9            [10] 2746 	ret
                           2747 ;src/keyboard.h:13: u8* checkKeyboard(){
                           2748 ;	---------------------------------
                           2749 ; Function checkKeyboard
                           2750 ; ---------------------------------
   0E56                    2751 _checkKeyboard::
   0E56 DD E5         [15] 2752 	push	ix
   0E58 DD 21 00 00   [14] 2753 	ld	ix,#0
   0E5C DD 39         [15] 2754 	add	ix,sp
   0E5E 21 FA FF      [10] 2755 	ld	hl,#-6
   0E61 39            [11] 2756 	add	hl,sp
   0E62 F9            [ 6] 2757 	ld	sp,hl
                           2758 ;src/keyboard.h:14: u8 *s = NULL;
   0E63 DD 36 FE 00   [19] 2759 	ld	-2 (ix),#0x00
   0E67 DD 36 FF 00   [19] 2760 	ld	-1 (ix),#0x00
                           2761 ;src/keyboard.h:15: if(cpct_isKeyPressed(Key_Space) && player.atk>=20){
   0E6B 21 05 80      [10] 2762 	ld	hl,#0x8005
   0E6E CDr00r00      [17] 2763 	call	_cpct_isKeyPressed
   0E71 7D            [ 4] 2764 	ld	a,l
   0E72 B7            [ 4] 2765 	or	a, a
   0E73 28 68         [12] 2766 	jr	Z,00147$
   0E75 21r16r01      [10] 2767 	ld	hl, #(_player + 0x0008) + 0
   0E78 7E            [ 7] 2768 	ld	a,(hl)
   0E79 DD 77 FD      [19] 2769 	ld	-3 (ix), a
   0E7C D6 14         [ 7] 2770 	sub	a, #0x14
   0E7E 38 5D         [12] 2771 	jr	C,00147$
                           2772 ;src/keyboard.h:16: if(player.atk >= 50) player.atk =0;
   0E80 DD 7E FD      [19] 2773 	ld	a,-3 (ix)
   0E83 D6 32         [ 7] 2774 	sub	a, #0x32
   0E85 38 07         [12] 2775 	jr	C,00102$
   0E87 21r16r01      [10] 2776 	ld	hl,#(_player + 0x0008)
   0E8A 36 00         [10] 2777 	ld	(hl),#0x00
   0E8C 18 08         [12] 2778 	jr	00103$
   0E8E                    2779 00102$:
                           2780 ;src/keyboard.h:17: else player.atk += 1;
   0E8E DD 7E FD      [19] 2781 	ld	a,-3 (ix)
   0E91 3C            [ 4] 2782 	inc	a
   0E92 21r16r01      [10] 2783 	ld	hl,#(_player + 0x0008)
   0E95 77            [ 7] 2784 	ld	(hl),a
   0E96                    2785 00103$:
                           2786 ;src/keyboard.h:18: switch(player.dir){
   0E96 21r15r01      [10] 2787 	ld	hl, #_player + 7
   0E99 66            [ 7] 2788 	ld	h,(hl)
   0E9A 7C            [ 4] 2789 	ld	a,h
   0E9B D6 02         [ 7] 2790 	sub	a, #0x02
   0E9D 28 33         [12] 2791 	jr	Z,00107$
   0E9F 7C            [ 4] 2792 	ld	a,h
   0EA0 D6 04         [ 7] 2793 	sub	a, #0x04
   0EA2 28 0D         [12] 2794 	jr	Z,00104$
   0EA4 7C            [ 4] 2795 	ld	a,h
   0EA5 D6 06         [ 7] 2796 	sub	a, #0x06
   0EA7 28 13         [12] 2797 	jr	Z,00105$
   0EA9 7C            [ 4] 2798 	ld	a,h
   0EAA D6 08         [ 7] 2799 	sub	a, #0x08
   0EAC 28 19         [12] 2800 	jr	Z,00106$
   0EAE C3rA4r10      [10] 2801 	jp	00148$
                           2802 ;src/keyboard.h:19: case 4:
   0EB1                    2803 00104$:
                           2804 ;src/keyboard.h:20: s = gladis_atk_izda;
   0EB1 DD 36 FEr00   [19] 2805 	ld	-2 (ix),#<(_gladis_atk_izda)
   0EB5 DD 36 FFs00   [19] 2806 	ld	-1 (ix),#>(_gladis_atk_izda)
                           2807 ;src/keyboard.h:21: break;
   0EB9 C3rA4r10      [10] 2808 	jp	00148$
                           2809 ;src/keyboard.h:22: case 6:
   0EBC                    2810 00105$:
                           2811 ;src/keyboard.h:23: s = gladis_atk_dcha;
   0EBC DD 36 FEr00   [19] 2812 	ld	-2 (ix),#<(_gladis_atk_dcha)
   0EC0 DD 36 FFs00   [19] 2813 	ld	-1 (ix),#>(_gladis_atk_dcha)
                           2814 ;src/keyboard.h:24: break;
   0EC4 C3rA4r10      [10] 2815 	jp	00148$
                           2816 ;src/keyboard.h:25: case 8:
   0EC7                    2817 00106$:
                           2818 ;src/keyboard.h:26: s = gladis_atk_arriba;
   0EC7 DD 36 FEr00   [19] 2819 	ld	-2 (ix),#<(_gladis_atk_arriba)
   0ECB DD 36 FFs00   [19] 2820 	ld	-1 (ix),#>(_gladis_atk_arriba)
                           2821 ;src/keyboard.h:27: break;
   0ECF C3rA4r10      [10] 2822 	jp	00148$
                           2823 ;src/keyboard.h:28: case 2:
   0ED2                    2824 00107$:
                           2825 ;src/keyboard.h:29: s = gladis_atk_abajo;
   0ED2 DD 36 FEr00   [19] 2826 	ld	-2 (ix),#<(_gladis_atk_abajo)
   0ED6 DD 36 FFs00   [19] 2827 	ld	-1 (ix),#>(_gladis_atk_abajo)
                           2828 ;src/keyboard.h:31: }
   0EDA C3rA4r10      [10] 2829 	jp	00148$
   0EDD                    2830 00147$:
                           2831 ;src/keyboard.h:33: if(player.atk < 20) player.atk += 1;
   0EDD 21r16r01      [10] 2832 	ld	hl, #(_player + 0x0008) + 0
   0EE0 56            [ 7] 2833 	ld	d,(hl)
   0EE1 7A            [ 4] 2834 	ld	a,d
   0EE2 D6 14         [ 7] 2835 	sub	a, #0x14
   0EE4 30 07         [12] 2836 	jr	NC,00110$
   0EE6 14            [ 4] 2837 	inc	d
   0EE7 21r16r01      [10] 2838 	ld	hl,#(_player + 0x0008)
   0EEA 72            [ 7] 2839 	ld	(hl),d
   0EEB 18 05         [12] 2840 	jr	00111$
   0EED                    2841 00110$:
                           2842 ;src/keyboard.h:34: else player.atk = 20;
   0EED 21r16r01      [10] 2843 	ld	hl,#(_player + 0x0008)
   0EF0 36 14         [10] 2844 	ld	(hl),#0x14
   0EF2                    2845 00111$:
                           2846 ;src/keyboard.h:35: if(cpct_isKeyPressed(Key_CursorRight) && player.x < 76){
   0EF2 21 00 02      [10] 2847 	ld	hl,#0x0200
   0EF5 CDr00r00      [17] 2848 	call	_cpct_isKeyPressed
                           2849 ;src/keyboard.h:37: player.dir = 6;
                           2850 ;src/keyboard.h:35: if(cpct_isKeyPressed(Key_CursorRight) && player.x < 76){
   0EF8 7D            [ 4] 2851 	ld	a,l
   0EF9 B7            [ 4] 2852 	or	a, a
   0EFA 28 1E         [12] 2853 	jr	Z,00143$
   0EFC 21r0Er01      [10] 2854 	ld	hl, #_player + 0
   0EFF 56            [ 7] 2855 	ld	d,(hl)
   0F00 7A            [ 4] 2856 	ld	a,d
   0F01 D6 4C         [ 7] 2857 	sub	a, #0x4C
   0F03 30 15         [12] 2858 	jr	NC,00143$
                           2859 ;src/keyboard.h:36: player.x += 1;
   0F05 14            [ 4] 2860 	inc	d
   0F06 21r0Er01      [10] 2861 	ld	hl,#_player
   0F09 72            [ 7] 2862 	ld	(hl),d
                           2863 ;src/keyboard.h:37: player.dir = 6;
   0F0A 21r15r01      [10] 2864 	ld	hl,#(_player + 0x0007)
   0F0D 36 06         [10] 2865 	ld	(hl),#0x06
                           2866 ;src/keyboard.h:38: s = gladis_quieto_dcha;
   0F0F DD 36 FEr00   [19] 2867 	ld	-2 (ix),#<(_gladis_quieto_dcha)
   0F13 DD 36 FFs00   [19] 2868 	ld	-1 (ix),#>(_gladis_quieto_dcha)
   0F17 C3rA4r10      [10] 2869 	jp	00148$
   0F1A                    2870 00143$:
                           2871 ;src/keyboard.h:39: }else if(cpct_isKeyPressed(Key_CursorLeft) && player.x > 0){
   0F1A 21 01 01      [10] 2872 	ld	hl,#0x0101
   0F1D CDr00r00      [17] 2873 	call	_cpct_isKeyPressed
   0F20 7D            [ 4] 2874 	ld	a,l
   0F21 B7            [ 4] 2875 	or	a, a
   0F22 28 1B         [12] 2876 	jr	Z,00139$
   0F24 3Ar0Er01      [13] 2877 	ld	a, (#_player + 0)
   0F27 B7            [ 4] 2878 	or	a, a
   0F28 28 15         [12] 2879 	jr	Z,00139$
                           2880 ;src/keyboard.h:40: player.x -= 1;
   0F2A C6 FF         [ 7] 2881 	add	a,#0xFF
   0F2C 32r0Er01      [13] 2882 	ld	(#_player),a
                           2883 ;src/keyboard.h:41: player.dir = 4;
   0F2F 21r15r01      [10] 2884 	ld	hl,#(_player + 0x0007)
   0F32 36 04         [10] 2885 	ld	(hl),#0x04
                           2886 ;src/keyboard.h:42: s = gladis_quieto_izda;
   0F34 DD 36 FEr00   [19] 2887 	ld	-2 (ix),#<(_gladis_quieto_izda)
   0F38 DD 36 FFs00   [19] 2888 	ld	-1 (ix),#>(_gladis_quieto_izda)
   0F3C C3rA4r10      [10] 2889 	jp	00148$
   0F3F                    2890 00139$:
                           2891 ;src/keyboard.h:43: }else  if(cpct_isKeyPressed(Key_CursorDown) && player.y < 180){
   0F3F 21 00 04      [10] 2892 	ld	hl,#0x0400
   0F42 CDr00r00      [17] 2893 	call	_cpct_isKeyPressed
   0F45 01r0Fr01      [10] 2894 	ld	bc,#_player + 1
   0F48 7D            [ 4] 2895 	ld	a,l
   0F49 B7            [ 4] 2896 	or	a, a
   0F4A 28 1A         [12] 2897 	jr	Z,00135$
   0F4C 0A            [ 7] 2898 	ld	a,(bc)
   0F4D 67            [ 4] 2899 	ld	h,a
   0F4E D6 B4         [ 7] 2900 	sub	a, #0xB4
   0F50 30 14         [12] 2901 	jr	NC,00135$
                           2902 ;src/keyboard.h:44: player.y += 2;
   0F52 7C            [ 4] 2903 	ld	a,h
   0F53 C6 02         [ 7] 2904 	add	a, #0x02
   0F55 02            [ 7] 2905 	ld	(bc),a
                           2906 ;src/keyboard.h:45: player.dir = 2;
   0F56 21r15r01      [10] 2907 	ld	hl,#(_player + 0x0007)
   0F59 36 02         [10] 2908 	ld	(hl),#0x02
                           2909 ;src/keyboard.h:46: s = gladis_abajo;
   0F5B DD 36 FEr00   [19] 2910 	ld	-2 (ix),#<(_gladis_abajo)
   0F5F DD 36 FFs00   [19] 2911 	ld	-1 (ix),#>(_gladis_abajo)
   0F63 C3rA4r10      [10] 2912 	jp	00148$
   0F66                    2913 00135$:
                           2914 ;src/keyboard.h:47: }else if(cpct_isKeyPressed(Key_CursorUp) && player.y > 0 ){
   0F66 C5            [11] 2915 	push	bc
   0F67 21 00 01      [10] 2916 	ld	hl,#0x0100
   0F6A CDr00r00      [17] 2917 	call	_cpct_isKeyPressed
   0F6D 7D            [ 4] 2918 	ld	a,l
   0F6E C1            [10] 2919 	pop	bc
   0F6F B7            [ 4] 2920 	or	a, a
   0F70 28 17         [12] 2921 	jr	Z,00131$
   0F72 0A            [ 7] 2922 	ld	a,(bc)
   0F73 B7            [ 4] 2923 	or	a, a
   0F74 28 13         [12] 2924 	jr	Z,00131$
                           2925 ;src/keyboard.h:48: player.y -= 2;
   0F76 C6 FE         [ 7] 2926 	add	a,#0xFE
   0F78 02            [ 7] 2927 	ld	(bc),a
                           2928 ;src/keyboard.h:49: player.dir = 8;
   0F79 21r15r01      [10] 2929 	ld	hl,#(_player + 0x0007)
   0F7C 36 08         [10] 2930 	ld	(hl),#0x08
                           2931 ;src/keyboard.h:50: s = gladis_arriba;
   0F7E DD 36 FEr00   [19] 2932 	ld	-2 (ix),#<(_gladis_arriba)
   0F82 DD 36 FFs00   [19] 2933 	ld	-1 (ix),#>(_gladis_arriba)
   0F86 C3rA4r10      [10] 2934 	jp	00148$
   0F89                    2935 00131$:
                           2936 ;src/keyboard.h:51: }else if(cpct_isKeyPressed(Key_X) && arrow == 0 && player.atk == 20 && player.bullets >0){
   0F89 C5            [11] 2937 	push	bc
   0F8A 21 07 80      [10] 2938 	ld	hl,#0x8007
   0F8D CDr00r00      [17] 2939 	call	_cpct_isKeyPressed
   0F90 7D            [ 4] 2940 	ld	a,l
   0F91 C1            [10] 2941 	pop	bc
   0F92 B7            [ 4] 2942 	or	a, a
   0F93 CAr64r10      [10] 2943 	jp	Z,00125$
   0F96 3ArF4r00      [13] 2944 	ld	a,(#_arrow + 0)
   0F99 B7            [ 4] 2945 	or	a, a
   0F9A C2r64r10      [10] 2946 	jp	NZ,00125$
   0F9D 3Ar16r01      [13] 2947 	ld	a, (#(_player + 0x0008) + 0)
   0FA0 D6 14         [ 7] 2948 	sub	a, #0x14
   0FA2 C2r64r10      [10] 2949 	jp	NZ,00125$
   0FA5 3Ar18r01      [13] 2950 	ld	a, (#(_player + 0x000a) + 0)
   0FA8 B7            [ 4] 2951 	or	a, a
   0FA9 CAr64r10      [10] 2952 	jp	Z,00125$
                           2953 ;src/keyboard.h:52: if(player.bullets> 0){
   0FAC B7            [ 4] 2954 	or	a, a
   0FAD CAr5Dr10      [10] 2955 	jp	Z,00118$
                           2956 ;src/keyboard.h:53: u8 *spr = flecha_dcha,xs=2,ys=8;
   0FB0 DD 36 FBr00   [19] 2957 	ld	-5 (ix),#<(_flecha_dcha)
   0FB4 DD 36 FCs00   [19] 2958 	ld	-4 (ix),#>(_flecha_dcha)
   0FB8 DD 36 FA 02   [19] 2959 	ld	-6 (ix),#0x02
   0FBC 1E 08         [ 7] 2960 	ld	e,#0x08
                           2961 ;src/keyboard.h:54: switch(player.dir){
   0FBE 21r15r01      [10] 2962 	ld	hl, #(_player + 0x0007) + 0
   0FC1 56            [ 7] 2963 	ld	d,(hl)
   0FC2 7A            [ 4] 2964 	ld	a,d
   0FC3 D6 02         [ 7] 2965 	sub	a, #0x02
   0FC5 28 31         [12] 2966 	jr	Z,00114$
   0FC7 7A            [ 4] 2967 	ld	a,d
   0FC8 D6 04         [ 7] 2968 	sub	a, #0x04
   0FCA 28 1C         [12] 2969 	jr	Z,00113$
   0FCC 7A            [ 4] 2970 	ld	a,d
   0FCD D6 06         [ 7] 2971 	sub	a, #0x06
   0FCF 28 07         [12] 2972 	jr	Z,00112$
   0FD1 7A            [ 4] 2973 	ld	a,d
   0FD2 D6 08         [ 7] 2974 	sub	a, #0x08
   0FD4 28 32         [12] 2975 	jr	Z,00115$
   0FD6 18 3E         [12] 2976 	jr	00116$
                           2977 ;src/keyboard.h:55: case 6: spr = flecha_dcha; xs=4;ys=4; break;
   0FD8                    2978 00112$:
   0FD8 DD 36 FBr00   [19] 2979 	ld	-5 (ix),#<(_flecha_dcha)
   0FDC DD 36 FCs00   [19] 2980 	ld	-4 (ix),#>(_flecha_dcha)
   0FE0 DD 36 FA 04   [19] 2981 	ld	-6 (ix),#0x04
   0FE4 1E 04         [ 7] 2982 	ld	e,#0x04
   0FE6 18 2E         [12] 2983 	jr	00116$
                           2984 ;src/keyboard.h:56: case 4: spr = flecha_izda; xs=4;ys=4; break;
   0FE8                    2985 00113$:
   0FE8 DD 36 FBr00   [19] 2986 	ld	-5 (ix),#<(_flecha_izda)
   0FEC DD 36 FCs00   [19] 2987 	ld	-4 (ix),#>(_flecha_izda)
   0FF0 DD 36 FA 04   [19] 2988 	ld	-6 (ix),#0x04
   0FF4 1E 04         [ 7] 2989 	ld	e,#0x04
   0FF6 18 1E         [12] 2990 	jr	00116$
                           2991 ;src/keyboard.h:57: case 2: spr = flecha_abajo; xs=2;ys=8; break;
   0FF8                    2992 00114$:
   0FF8 DD 36 FBr00   [19] 2993 	ld	-5 (ix),#<(_flecha_abajo)
   0FFC DD 36 FCs00   [19] 2994 	ld	-4 (ix),#>(_flecha_abajo)
   1000 DD 36 FA 02   [19] 2995 	ld	-6 (ix),#0x02
   1004 1E 08         [ 7] 2996 	ld	e,#0x08
   1006 18 0E         [12] 2997 	jr	00116$
                           2998 ;src/keyboard.h:58: case 8: spr = flecha_arriba; xs=2;ys=8; break;
   1008                    2999 00115$:
   1008 DD 36 FBr00   [19] 3000 	ld	-5 (ix),#<(_flecha_arriba)
   100C DD 36 FCs00   [19] 3001 	ld	-4 (ix),#>(_flecha_arriba)
   1010 DD 36 FA 02   [19] 3002 	ld	-6 (ix),#0x02
   1014 1E 08         [ 7] 3003 	ld	e,#0x08
                           3004 ;src/keyboard.h:59: }
   1016                    3005 00116$:
                           3006 ;src/keyboard.h:60: player.atk = 0;
   1016 21r16r01      [10] 3007 	ld	hl,#(_player + 0x0008)
   1019 36 00         [10] 3008 	ld	(hl),#0x00
                           3009 ;src/keyboard.h:61: parrow.x = player.x;
   101B 3Ar0Er01      [13] 3010 	ld	a, (#_player + 0)
   101E 32rFAr00      [13] 3011 	ld	(#_parrow),a
                           3012 ;src/keyboard.h:62: parrow.y = player.y+8;
   1021 0A            [ 7] 3013 	ld	a,(bc)
   1022 C6 08         [ 7] 3014 	add	a, #0x08
   1024 32rFBr00      [13] 3015 	ld	(#(_parrow + 0x0001)),a
                           3016 ;src/keyboard.h:63: parrow.x = parrow.x;
   1027 21rFAr00      [10] 3017 	ld	hl, #_parrow + 0
   102A 56            [ 7] 3018 	ld	d,(hl)
   102B 21rFAr00      [10] 3019 	ld	hl,#_parrow
   102E 72            [ 7] 3020 	ld	(hl),d
                           3021 ;src/keyboard.h:64: parrow.y = parrow.y;
   102F 32rFBr00      [13] 3022 	ld	(#(_parrow + 0x0001)),a
                           3023 ;src/keyboard.h:65: parrow.sprite = spr;
   1032 21rFEr00      [10] 3024 	ld	hl,#_parrow + 4
   1035 DD 7E FB      [19] 3025 	ld	a,-5 (ix)
   1038 77            [ 7] 3026 	ld	(hl),a
   1039 23            [ 6] 3027 	inc	hl
   103A DD 7E FC      [19] 3028 	ld	a,-4 (ix)
   103D 77            [ 7] 3029 	ld	(hl),a
                           3030 ;src/keyboard.h:66: parrow.vivo = 1;
   103E 21r00r01      [10] 3031 	ld	hl,#_parrow + 6
   1041 36 01         [10] 3032 	ld	(hl),#0x01
                           3033 ;src/keyboard.h:67: parrow.dir = player.dir;
   1043 01r01r01      [10] 3034 	ld	bc,#_parrow + 7
   1046 3Ar15r01      [13] 3035 	ld	a, (#(_player + 0x0007) + 0)
   1049 02            [ 7] 3036 	ld	(bc),a
                           3037 ;src/keyboard.h:68: parrow.sizeX = xs;
   104A 21r02r01      [10] 3038 	ld	hl,#_parrow + 8
   104D DD 7E FA      [19] 3039 	ld	a,-6 (ix)
   1050 77            [ 7] 3040 	ld	(hl),a
                           3041 ;src/keyboard.h:69: parrow.sizeY = ys;
   1051 21r03r01      [10] 3042 	ld	hl,#_parrow + 9
   1054 73            [ 7] 3043 	ld	(hl),e
                           3044 ;src/keyboard.h:70: player.bullets--;
   1055 3Ar18r01      [13] 3045 	ld	a, (#(_player + 0x000a) + 0)
   1058 C6 FF         [ 7] 3046 	add	a,#0xFF
   105A 32r18r01      [13] 3047 	ld	(#(_player + 0x000a)),a
   105D                    3048 00118$:
                           3049 ;src/keyboard.h:72: arrow=1;
   105D 21rF4r00      [10] 3050 	ld	hl,#_arrow + 0
   1060 36 01         [10] 3051 	ld	(hl), #0x01
   1062 18 40         [12] 3052 	jr	00148$
   1064                    3053 00125$:
                           3054 ;src/keyboard.h:74: switch(player.dir){
   1064 21r15r01      [10] 3055 	ld	hl, #(_player + 0x0007) + 0
   1067 66            [ 7] 3056 	ld	h,(hl)
   1068 7C            [ 4] 3057 	ld	a,h
   1069 D6 02         [ 7] 3058 	sub	a, #0x02
   106B 28 2F         [12] 3059 	jr	Z,00122$
   106D 7C            [ 4] 3060 	ld	a,h
   106E D6 04         [ 7] 3061 	sub	a, #0x04
   1070 28 0C         [12] 3062 	jr	Z,00119$
   1072 7C            [ 4] 3063 	ld	a,h
   1073 D6 06         [ 7] 3064 	sub	a, #0x06
   1075 28 11         [12] 3065 	jr	Z,00120$
   1077 7C            [ 4] 3066 	ld	a,h
   1078 D6 08         [ 7] 3067 	sub	a, #0x08
   107A 28 16         [12] 3068 	jr	Z,00121$
   107C 18 26         [12] 3069 	jr	00148$
                           3070 ;src/keyboard.h:75: case 4:
   107E                    3071 00119$:
                           3072 ;src/keyboard.h:76: s = gladis_quieto_izda;
   107E DD 36 FEr00   [19] 3073 	ld	-2 (ix),#<(_gladis_quieto_izda)
   1082 DD 36 FFs00   [19] 3074 	ld	-1 (ix),#>(_gladis_quieto_izda)
                           3075 ;src/keyboard.h:77: break;
   1086 18 1C         [12] 3076 	jr	00148$
                           3077 ;src/keyboard.h:78: case 6:
   1088                    3078 00120$:
                           3079 ;src/keyboard.h:79: s = gladis_quieto_dcha;
   1088 DD 36 FEr00   [19] 3080 	ld	-2 (ix),#<(_gladis_quieto_dcha)
   108C DD 36 FFs00   [19] 3081 	ld	-1 (ix),#>(_gladis_quieto_dcha)
                           3082 ;src/keyboard.h:80: break;
   1090 18 12         [12] 3083 	jr	00148$
                           3084 ;src/keyboard.h:81: case 8:
   1092                    3085 00121$:
                           3086 ;src/keyboard.h:82: s = gladis_arriba;
   1092 DD 36 FEr00   [19] 3087 	ld	-2 (ix),#<(_gladis_arriba)
   1096 DD 36 FFs00   [19] 3088 	ld	-1 (ix),#>(_gladis_arriba)
                           3089 ;src/keyboard.h:83: break;
   109A 18 08         [12] 3090 	jr	00148$
                           3091 ;src/keyboard.h:84: case 2:
   109C                    3092 00122$:
                           3093 ;src/keyboard.h:85: s = gladis_abajo;
   109C DD 36 FEr00   [19] 3094 	ld	-2 (ix),#<(_gladis_abajo)
   10A0 DD 36 FFs00   [19] 3095 	ld	-1 (ix),#>(_gladis_abajo)
                           3096 ;src/keyboard.h:87: }
   10A4                    3097 00148$:
                           3098 ;src/keyboard.h:93: if(cpct_isKeyPressed(Key_L)){
   10A4 21 04 10      [10] 3099 	ld	hl,#0x1004
   10A7 CDr00r00      [17] 3100 	call	_cpct_isKeyPressed
   10AA 7D            [ 4] 3101 	ld	a,l
   10AB B7            [ 4] 3102 	or	a, a
   10AC 28 05         [12] 3103 	jr	Z,00151$
                           3104 ;src/keyboard.h:94: arrow = 0;
   10AE 21rF4r00      [10] 3105 	ld	hl,#_arrow + 0
   10B1 36 00         [10] 3106 	ld	(hl), #0x00
   10B3                    3107 00151$:
                           3108 ;src/keyboard.h:96: if(cpct_isKeyPressed(Key_Esc)){
   10B3 21 08 04      [10] 3109 	ld	hl,#0x0408
   10B6 CDr00r00      [17] 3110 	call	_cpct_isKeyPressed
   10B9 7D            [ 4] 3111 	ld	a,l
   10BA B7            [ 4] 3112 	or	a, a
   10BB 28 05         [12] 3113 	jr	Z,00153$
                           3114 ;src/keyboard.h:97: finish = 1;
   10BD 21rF3r00      [10] 3115 	ld	hl,#_finish + 0
   10C0 36 01         [10] 3116 	ld	(hl), #0x01
   10C2                    3117 00153$:
                           3118 ;src/keyboard.h:99: return s;
   10C2 DD 6E FE      [19] 3119 	ld	l,-2 (ix)
   10C5 DD 66 FF      [19] 3120 	ld	h,-1 (ix)
   10C8 DD F9         [10] 3121 	ld	sp, ix
   10CA DD E1         [14] 3122 	pop	ix
   10CC C9            [10] 3123 	ret
                           3124 ;src/main.c:37: void init(){
                           3125 ;	---------------------------------
                           3126 ; Function init
                           3127 ; ---------------------------------
   10CD                    3128 _init::
                           3129 ;src/main.c:38: cpct_disableFirmware();
   10CD CDr00r00      [17] 3130 	call	_cpct_disableFirmware
                           3131 ;src/main.c:39: cpct_setVideoMode(0);
   10D0 AF            [ 4] 3132 	xor	a, a
   10D1 F5            [11] 3133 	push	af
   10D2 33            [ 6] 3134 	inc	sp
   10D3 CDr00r00      [17] 3135 	call	_cpct_setVideoMode
   10D6 33            [ 6] 3136 	inc	sp
                           3137 ;src/main.c:40: cpct_fw2hw(g_palette,4);
   10D7 11r4Er02      [10] 3138 	ld	de,#_g_palette
   10DA 3E 04         [ 7] 3139 	ld	a,#0x04
   10DC F5            [11] 3140 	push	af
   10DD 33            [ 6] 3141 	inc	sp
   10DE D5            [11] 3142 	push	de
   10DF CDr00r00      [17] 3143 	call	_cpct_fw2hw
   10E2 F1            [10] 3144 	pop	af
   10E3 33            [ 6] 3145 	inc	sp
                           3146 ;src/main.c:41: cpct_setPalette(g_palette,4);
   10E4 11r4Er02      [10] 3147 	ld	de,#_g_palette
   10E7 3E 04         [ 7] 3148 	ld	a,#0x04
   10E9 F5            [11] 3149 	push	af
   10EA 33            [ 6] 3150 	inc	sp
   10EB D5            [11] 3151 	push	de
   10EC CDr00r00      [17] 3152 	call	_cpct_setPalette
   10EF F1            [10] 3153 	pop	af
   10F0 33            [ 6] 3154 	inc	sp
   10F1 C9            [10] 3155 	ret
                           3156 ;src/main.c:44: void initPlayer(){
                           3157 ;	---------------------------------
                           3158 ; Function initPlayer
                           3159 ; ---------------------------------
   10F2                    3160 _initPlayer::
                           3161 ;src/main.c:45: u8 *sprite = gladis_quieto_dcha;
                           3162 ;src/main.c:46: player.x = origins[0][0];
   10F2 01r53r02      [10] 3163 	ld	bc,#_origins+0
   10F5 0A            [ 7] 3164 	ld	a,(bc)
   10F6 32r0Er01      [13] 3165 	ld	(#_player),a
                           3166 ;src/main.c:47: player.y = origins[0][1];
   10F9 59            [ 4] 3167 	ld	e, c
   10FA 50            [ 4] 3168 	ld	d, b
   10FB 13            [ 6] 3169 	inc	de
   10FC 1A            [ 7] 3170 	ld	a,(de)
   10FD 32r0Fr01      [13] 3171 	ld	(#(_player + 0x0001)),a
                           3172 ;src/main.c:48: player.lx = origins[0][0];
   1100 0A            [ 7] 3173 	ld	a,(bc)
   1101 32r10r01      [13] 3174 	ld	(#(_player + 0x0002)),a
                           3175 ;src/main.c:49: player.ly = origins[0][1];
   1104 1A            [ 7] 3176 	ld	a,(de)
   1105 32r11r01      [13] 3177 	ld	(#(_player + 0x0003)),a
                           3178 ;src/main.c:50: player.sprite = sprite;
   1108 21r00r00      [10] 3179 	ld	hl,#_gladis_quieto_dcha
   110B 22r12r01      [16] 3180 	ld	((_player + 0x0004)), hl
                           3181 ;src/main.c:51: player.life = 3;
   110E 21r14r01      [10] 3182 	ld	hl,#_player + 6
   1111 36 03         [10] 3183 	ld	(hl),#0x03
                           3184 ;src/main.c:52: player.dir = 6;
   1113 21r15r01      [10] 3185 	ld	hl,#_player + 7
   1116 36 06         [10] 3186 	ld	(hl),#0x06
                           3187 ;src/main.c:53: player.atk = 20;
   1118 21r16r01      [10] 3188 	ld	hl,#_player + 8
   111B 36 14         [10] 3189 	ld	(hl),#0x14
                           3190 ;src/main.c:54: player.latk = 20;
   111D 21r17r01      [10] 3191 	ld	hl,#_player + 9
   1120 36 14         [10] 3192 	ld	(hl),#0x14
                           3193 ;src/main.c:55: player.bullets = 3;
   1122 21r18r01      [10] 3194 	ld	hl,#_player + 10
   1125 36 03         [10] 3195 	ld	(hl),#0x03
   1127 C9            [10] 3196 	ret
                           3197 ;src/main.c:58: void initEnemies(){
                           3198 ;	---------------------------------
                           3199 ; Function initEnemies
                           3200 ; ---------------------------------
   1128                    3201 _initEnemies::
                           3202 ;src/main.c:59: u8 *sprite = chacho_dcha;
                           3203 ;src/main.c:60: enemy.x = origins[1][0];
   1128 01r55r02      [10] 3204 	ld	bc,#_origins + 2
   112B 0A            [ 7] 3205 	ld	a,(bc)
   112C 32r19r01      [13] 3206 	ld	(#_enemy),a
                           3207 ;src/main.c:61: enemy.y = origins[1][1];
   112F 11r56r02      [10] 3208 	ld	de,#_origins + 3
   1132 1A            [ 7] 3209 	ld	a,(de)
   1133 32r1Ar01      [13] 3210 	ld	(#(_enemy + 0x0001)),a
                           3211 ;src/main.c:62: enemy.lx = origins[1][0];
   1136 0A            [ 7] 3212 	ld	a,(bc)
   1137 32r1Br01      [13] 3213 	ld	(#(_enemy + 0x0002)),a
                           3214 ;src/main.c:63: enemy.ly = origins[1][1];
   113A 1A            [ 7] 3215 	ld	a,(de)
   113B 32r1Cr01      [13] 3216 	ld	(#(_enemy + 0x0003)),a
                           3217 ;src/main.c:64: enemy.ox = origins[1][0];
   113E 0A            [ 7] 3218 	ld	a,(bc)
   113F 32r1Dr01      [13] 3219 	ld	(#(_enemy + 0x0004)),a
                           3220 ;src/main.c:65: enemy.oy = origins[1][1];
   1142 1A            [ 7] 3221 	ld	a,(de)
   1143 32r1Er01      [13] 3222 	ld	(#(_enemy + 0x0005)),a
                           3223 ;src/main.c:66: enemy.sprite = sprite;
   1146 21r00r00      [10] 3224 	ld	hl,#_chacho_dcha
   1149 22r1Fr01      [16] 3225 	ld	((_enemy + 0x0006)), hl
                           3226 ;src/main.c:67: enemy.life = 3;
   114C 21r21r01      [10] 3227 	ld	hl,#_enemy + 8
   114F 36 03         [10] 3228 	ld	(hl),#0x03
                           3229 ;src/main.c:68: enemy.dir = 6;
   1151 21r22r01      [10] 3230 	ld	hl,#_enemy + 9
   1154 36 06         [10] 3231 	ld	(hl),#0x06
                           3232 ;src/main.c:69: enemy.bullets = 3;
   1156 21r23r01      [10] 3233 	ld	hl,#_enemy + 10
   1159 36 03         [10] 3234 	ld	(hl),#0x03
                           3235 ;src/main.c:70: enemy.room = 3;
   115B 21r24r01      [10] 3236 	ld	hl,#_enemy + 11
   115E 36 03         [10] 3237 	ld	(hl),#0x03
   1160 C9            [10] 3238 	ret
                           3239 ;src/main.c:75: void gameOver(){
                           3240 ;	---------------------------------
                           3241 ; Function gameOver
                           3242 ; ---------------------------------
   1161                    3243 _gameOver::
                           3244 ;src/main.c:77: cpct_clearScreen(0);
   1161 21 00 40      [10] 3245 	ld	hl,#0x4000
   1164 E5            [11] 3246 	push	hl
   1165 AF            [ 4] 3247 	xor	a, a
   1166 F5            [11] 3248 	push	af
   1167 33            [ 6] 3249 	inc	sp
   1168 26 C0         [ 7] 3250 	ld	h, #0xC0
   116A E5            [11] 3251 	push	hl
   116B CDr00r00      [17] 3252 	call	_cpct_memset
                           3253 ;src/main.c:78: memptr = cpct_getScreenPtr(VMEM,10,10);
   116E 21 0A 0A      [10] 3254 	ld	hl,#0x0A0A
   1171 E5            [11] 3255 	push	hl
   1172 21 00 C0      [10] 3256 	ld	hl,#0xC000
   1175 E5            [11] 3257 	push	hl
   1176 CDr00r00      [17] 3258 	call	_cpct_getScreenPtr
                           3259 ;src/main.c:79: cpct_drawStringM0("Lounge Gladiator",memptr,1,0);
   1179 4D            [ 4] 3260 	ld	c, l
   117A 44            [ 4] 3261 	ld	b, h
   117B 11r8Er11      [10] 3262 	ld	de,#___str_0
   117E 21 01 00      [10] 3263 	ld	hl,#0x0001
   1181 E5            [11] 3264 	push	hl
   1182 C5            [11] 3265 	push	bc
   1183 D5            [11] 3266 	push	de
   1184 CDr00r00      [17] 3267 	call	_cpct_drawStringM0
   1187 21 06 00      [10] 3268 	ld	hl,#6
   118A 39            [11] 3269 	add	hl,sp
   118B F9            [ 6] 3270 	ld	sp,hl
                           3271 ;src/main.c:80: while(1){
   118C                    3272 00102$:
   118C 18 FE         [12] 3273 	jr	00102$
   118E                    3274 ___str_0:
   118E 4C 6F 75 6E 67 65  3275 	.ascii "Lounge Gladiator"
        20 47 6C 61 64 69
        61 74 6F 72
   119E 00                 3276 	.db 0x00
                           3277 ;src/main.c:87: int menu(){
                           3278 ;	---------------------------------
                           3279 ; Function menu
                           3280 ; ---------------------------------
   119F                    3281 _menu::
   119F DD E5         [15] 3282 	push	ix
   11A1 DD 21 00 00   [14] 3283 	ld	ix,#0
   11A5 DD 39         [15] 3284 	add	ix,sp
   11A7 21 FA FF      [10] 3285 	ld	hl,#-6
   11AA 39            [11] 3286 	add	hl,sp
   11AB F9            [ 6] 3287 	ld	sp,hl
                           3288 ;src/main.c:89: int init = 50;
   11AC DD 36 FC 32   [19] 3289 	ld	-4 (ix),#0x32
   11B0 DD 36 FD 00   [19] 3290 	ld	-3 (ix),#0x00
                           3291 ;src/main.c:90: int pushed =0;
   11B4 21 00 00      [10] 3292 	ld	hl,#0x0000
   11B7 E3            [19] 3293 	ex	(sp), hl
                           3294 ;src/main.c:91: int cont =0;
   11B8 11 00 00      [10] 3295 	ld	de,#0x0000
                           3296 ;src/main.c:92: cpct_clearScreen(0);
   11BB D5            [11] 3297 	push	de
   11BC 21 00 40      [10] 3298 	ld	hl,#0x4000
   11BF E5            [11] 3299 	push	hl
   11C0 AF            [ 4] 3300 	xor	a, a
   11C1 F5            [11] 3301 	push	af
   11C2 33            [ 6] 3302 	inc	sp
   11C3 26 C0         [ 7] 3303 	ld	h, #0xC0
   11C5 E5            [11] 3304 	push	hl
   11C6 CDr00r00      [17] 3305 	call	_cpct_memset
   11C9 21 0A 0A      [10] 3306 	ld	hl,#0x0A0A
   11CC E5            [11] 3307 	push	hl
   11CD 21 00 C0      [10] 3308 	ld	hl,#0xC000
   11D0 E5            [11] 3309 	push	hl
   11D1 CDr00r00      [17] 3310 	call	_cpct_getScreenPtr
   11D4 D1            [10] 3311 	pop	de
                           3312 ;src/main.c:95: cpct_drawStringM0("Lounge Gladiator",memptr,1,0);
   11D5 4D            [ 4] 3313 	ld	c, l
   11D6 44            [ 4] 3314 	ld	b, h
   11D7 D5            [11] 3315 	push	de
   11D8 21 01 00      [10] 3316 	ld	hl,#0x0001
   11DB E5            [11] 3317 	push	hl
   11DC C5            [11] 3318 	push	bc
   11DD 21r82r13      [10] 3319 	ld	hl,#___str_1
   11E0 E5            [11] 3320 	push	hl
   11E1 CDr00r00      [17] 3321 	call	_cpct_drawStringM0
   11E4 21 06 00      [10] 3322 	ld	hl,#6
   11E7 39            [11] 3323 	add	hl,sp
   11E8 F9            [ 6] 3324 	ld	sp,hl
   11E9 21 14 32      [10] 3325 	ld	hl,#0x3214
   11EC E5            [11] 3326 	push	hl
   11ED 21 00 C0      [10] 3327 	ld	hl,#0xC000
   11F0 E5            [11] 3328 	push	hl
   11F1 CDr00r00      [17] 3329 	call	_cpct_getScreenPtr
   11F4 D1            [10] 3330 	pop	de
                           3331 ;src/main.c:99: cpct_drawStringM0("Nueva Partida",memptr,1,0);
   11F5 4D            [ 4] 3332 	ld	c, l
   11F6 44            [ 4] 3333 	ld	b, h
   11F7 D5            [11] 3334 	push	de
   11F8 21 01 00      [10] 3335 	ld	hl,#0x0001
   11FB E5            [11] 3336 	push	hl
   11FC C5            [11] 3337 	push	bc
   11FD 21r93r13      [10] 3338 	ld	hl,#___str_2
   1200 E5            [11] 3339 	push	hl
   1201 CDr00r00      [17] 3340 	call	_cpct_drawStringM0
   1204 21 06 00      [10] 3341 	ld	hl,#6
   1207 39            [11] 3342 	add	hl,sp
   1208 F9            [ 6] 3343 	ld	sp,hl
   1209 21 14 46      [10] 3344 	ld	hl,#0x4614
   120C E5            [11] 3345 	push	hl
   120D 21 00 C0      [10] 3346 	ld	hl,#0xC000
   1210 E5            [11] 3347 	push	hl
   1211 CDr00r00      [17] 3348 	call	_cpct_getScreenPtr
   1214 D1            [10] 3349 	pop	de
                           3350 ;src/main.c:102: cpct_drawStringM0("Creditos",memptr,1,0);
   1215 4D            [ 4] 3351 	ld	c, l
   1216 44            [ 4] 3352 	ld	b, h
   1217 D5            [11] 3353 	push	de
   1218 21 01 00      [10] 3354 	ld	hl,#0x0001
   121B E5            [11] 3355 	push	hl
   121C C5            [11] 3356 	push	bc
   121D 21rA1r13      [10] 3357 	ld	hl,#___str_3
   1220 E5            [11] 3358 	push	hl
   1221 CDr00r00      [17] 3359 	call	_cpct_drawStringM0
   1224 21 06 00      [10] 3360 	ld	hl,#6
   1227 39            [11] 3361 	add	hl,sp
   1228 F9            [ 6] 3362 	ld	sp,hl
   1229 21 14 5A      [10] 3363 	ld	hl,#0x5A14
   122C E5            [11] 3364 	push	hl
   122D 21 00 C0      [10] 3365 	ld	hl,#0xC000
   1230 E5            [11] 3366 	push	hl
   1231 CDr00r00      [17] 3367 	call	_cpct_getScreenPtr
   1234 D1            [10] 3368 	pop	de
                           3369 ;src/main.c:95: cpct_drawStringM0("Lounge Gladiator",memptr,1,0);
   1235 DD 75 FE      [19] 3370 	ld	-2 (ix),l
   1238 DD 74 FF      [19] 3371 	ld	-1 (ix),h
                           3372 ;src/main.c:105: cpct_drawStringM0("Salir",memptr,1,0);
   123B 01rAAr13      [10] 3373 	ld	bc,#___str_4
   123E D5            [11] 3374 	push	de
   123F 21 01 00      [10] 3375 	ld	hl,#0x0001
   1242 E5            [11] 3376 	push	hl
   1243 DD 6E FE      [19] 3377 	ld	l,-2 (ix)
   1246 DD 66 FF      [19] 3378 	ld	h,-1 (ix)
   1249 E5            [11] 3379 	push	hl
   124A C5            [11] 3380 	push	bc
   124B CDr00r00      [17] 3381 	call	_cpct_drawStringM0
   124E 21 06 00      [10] 3382 	ld	hl,#6
   1251 39            [11] 3383 	add	hl,sp
   1252 F9            [ 6] 3384 	ld	sp,hl
   1253 D1            [10] 3385 	pop	de
                           3386 ;src/main.c:111: while(1){
   1254                    3387 00118$:
                           3388 ;src/main.c:113: cpct_scanKeyboard();
   1254 D5            [11] 3389 	push	de
   1255 CDr00r00      [17] 3390 	call	_cpct_scanKeyboard
   1258 21 00 04      [10] 3391 	ld	hl,#0x0400
   125B CDr00r00      [17] 3392 	call	_cpct_isKeyPressed
   125E 7D            [ 4] 3393 	ld	a,l
   125F D1            [10] 3394 	pop	de
   1260 B7            [ 4] 3395 	or	a, a
   1261 28 2D         [12] 3396 	jr	Z,00102$
   1263 3E 96         [ 7] 3397 	ld	a,#0x96
   1265 BB            [ 4] 3398 	cp	a, e
   1266 3E 00         [ 7] 3399 	ld	a,#0x00
   1268 9A            [ 4] 3400 	sbc	a, d
   1269 E2r6Er12      [10] 3401 	jp	PO, 00162$
   126C EE 80         [ 7] 3402 	xor	a, #0x80
   126E                    3403 00162$:
   126E F2r90r12      [10] 3404 	jp	P,00102$
                           3405 ;src/main.c:115: cpct_drawSolidBox(memptr, 0, 2, 8);
   1271 21 02 08      [10] 3406 	ld	hl,#0x0802
   1274 E5            [11] 3407 	push	hl
   1275 AF            [ 4] 3408 	xor	a, a
   1276 F5            [11] 3409 	push	af
   1277 33            [ 6] 3410 	inc	sp
   1278 DD 6E FE      [19] 3411 	ld	l,-2 (ix)
   127B DD 66 FF      [19] 3412 	ld	h,-1 (ix)
   127E E5            [11] 3413 	push	hl
   127F CDr00r00      [17] 3414 	call	_cpct_drawSolidBox
   1282 F1            [10] 3415 	pop	af
   1283 F1            [10] 3416 	pop	af
   1284 33            [ 6] 3417 	inc	sp
                           3418 ;src/main.c:116: pushed ++;
   1285 DD 34 FA      [23] 3419 	inc	-6 (ix)
   1288 20 03         [12] 3420 	jr	NZ,00163$
   128A DD 34 FB      [23] 3421 	inc	-5 (ix)
   128D                    3422 00163$:
                           3423 ;src/main.c:117: cont =0;
   128D 11 00 00      [10] 3424 	ld	de,#0x0000
   1290                    3425 00102$:
                           3426 ;src/main.c:119: if(cpct_isKeyPressed(Key_CursorUp) && cont > 150){
   1290 D5            [11] 3427 	push	de
   1291 21 00 01      [10] 3428 	ld	hl,#0x0100
   1294 CDr00r00      [17] 3429 	call	_cpct_isKeyPressed
   1297 7D            [ 4] 3430 	ld	a,l
   1298 D1            [10] 3431 	pop	de
   1299 B7            [ 4] 3432 	or	a, a
   129A 28 29         [12] 3433 	jr	Z,00105$
   129C 3E 96         [ 7] 3434 	ld	a,#0x96
   129E BB            [ 4] 3435 	cp	a, e
   129F 3E 00         [ 7] 3436 	ld	a,#0x00
   12A1 9A            [ 4] 3437 	sbc	a, d
   12A2 E2rA7r12      [10] 3438 	jp	PO, 00164$
   12A5 EE 80         [ 7] 3439 	xor	a, #0x80
   12A7                    3440 00164$:
   12A7 F2rC5r12      [10] 3441 	jp	P,00105$
                           3442 ;src/main.c:120: cpct_drawSolidBox(memptr, 0, 2, 8);
   12AA 21 02 08      [10] 3443 	ld	hl,#0x0802
   12AD E5            [11] 3444 	push	hl
   12AE AF            [ 4] 3445 	xor	a, a
   12AF F5            [11] 3446 	push	af
   12B0 33            [ 6] 3447 	inc	sp
   12B1 DD 6E FE      [19] 3448 	ld	l,-2 (ix)
   12B4 DD 66 FF      [19] 3449 	ld	h,-1 (ix)
   12B7 E5            [11] 3450 	push	hl
   12B8 CDr00r00      [17] 3451 	call	_cpct_drawSolidBox
   12BB F1            [10] 3452 	pop	af
   12BC F1            [10] 3453 	pop	af
   12BD 33            [ 6] 3454 	inc	sp
                           3455 ;src/main.c:121: pushed --;
   12BE E1            [10] 3456 	pop	hl
   12BF E5            [11] 3457 	push	hl
   12C0 2B            [ 6] 3458 	dec	hl
   12C1 E3            [19] 3459 	ex	(sp), hl
                           3460 ;src/main.c:122: cont = 0;
   12C2 11 00 00      [10] 3461 	ld	de,#0x0000
   12C5                    3462 00105$:
                           3463 ;src/main.c:125: switch (pushed){
   12C5 DD 7E FB      [19] 3464 	ld	a,-5 (ix)
   12C8 07            [ 4] 3465 	rlca
   12C9 E6 01         [ 7] 3466 	and	a,#0x01
   12CB 47            [ 4] 3467 	ld	b,a
   12CC 3E 02         [ 7] 3468 	ld	a,#0x02
   12CE DD BE FA      [19] 3469 	cp	a, -6 (ix)
   12D1 3E 00         [ 7] 3470 	ld	a,#0x00
   12D3 DD 9E FB      [19] 3471 	sbc	a, -5 (ix)
   12D6 E2rDBr12      [10] 3472 	jp	PO, 00165$
   12D9 EE 80         [ 7] 3473 	xor	a, #0x80
   12DB                    3474 00165$:
   12DB 07            [ 4] 3475 	rlca
   12DC E6 01         [ 7] 3476 	and	a,#0x01
   12DE 4F            [ 4] 3477 	ld	c,a
   12DF 78            [ 4] 3478 	ld	a,b
   12E0 B7            [ 4] 3479 	or	a,a
   12E1 20 32         [12] 3480 	jr	NZ,00110$
   12E3 B1            [ 4] 3481 	or	a,c
   12E4 20 2F         [12] 3482 	jr	NZ,00110$
   12E6 D5            [11] 3483 	push	de
   12E7 DD 5E FA      [19] 3484 	ld	e,-6 (ix)
   12EA 16 00         [ 7] 3485 	ld	d,#0x00
   12EC 21rF3r12      [10] 3486 	ld	hl,#00166$
   12EF 19            [11] 3487 	add	hl,de
   12F0 19            [11] 3488 	add	hl,de
                           3489 ;src/main.c:126: case 0: init = 50;break;
   12F1 D1            [10] 3490 	pop	de
   12F2 E9            [ 4] 3491 	jp	(hl)
   12F3                    3492 00166$:
   12F3 18 04         [12] 3493 	jr	00107$
   12F5 18 0C         [12] 3494 	jr	00108$
   12F7 18 14         [12] 3495 	jr	00109$
   12F9                    3496 00107$:
   12F9 DD 36 FC 32   [19] 3497 	ld	-4 (ix),#0x32
   12FD DD 36 FD 00   [19] 3498 	ld	-3 (ix),#0x00
   1301 18 12         [12] 3499 	jr	00110$
                           3500 ;src/main.c:127: case 1: init = 70;break;
   1303                    3501 00108$:
   1303 DD 36 FC 46   [19] 3502 	ld	-4 (ix),#0x46
   1307 DD 36 FD 00   [19] 3503 	ld	-3 (ix),#0x00
   130B 18 08         [12] 3504 	jr	00110$
                           3505 ;src/main.c:128: case 2: init = 90;break;
   130D                    3506 00109$:
   130D DD 36 FC 5A   [19] 3507 	ld	-4 (ix),#0x5A
   1311 DD 36 FD 00   [19] 3508 	ld	-3 (ix),#0x00
                           3509 ;src/main.c:129: }
   1315                    3510 00110$:
                           3511 ;src/main.c:130: memptr = cpct_getScreenPtr(VMEM,15,init);
   1315 DD 66 FC      [19] 3512 	ld	h,-4 (ix)
   1318 C5            [11] 3513 	push	bc
   1319 D5            [11] 3514 	push	de
   131A E5            [11] 3515 	push	hl
   131B 33            [ 6] 3516 	inc	sp
   131C 3E 0F         [ 7] 3517 	ld	a,#0x0F
   131E F5            [11] 3518 	push	af
   131F 33            [ 6] 3519 	inc	sp
   1320 21 00 C0      [10] 3520 	ld	hl,#0xC000
   1323 E5            [11] 3521 	push	hl
   1324 CDr00r00      [17] 3522 	call	_cpct_getScreenPtr
   1327 D1            [10] 3523 	pop	de
   1328 C1            [10] 3524 	pop	bc
                           3525 ;src/main.c:95: cpct_drawStringM0("Lounge Gladiator",memptr,1,0);
   1329 DD 75 FE      [19] 3526 	ld	-2 (ix),l
   132C DD 74 FF      [19] 3527 	ld	-1 (ix),h
                           3528 ;src/main.c:131: cpct_drawSolidBox(memptr, 3, 2, 8);
   132F C5            [11] 3529 	push	bc
   1330 D5            [11] 3530 	push	de
   1331 21 02 08      [10] 3531 	ld	hl,#0x0802
   1334 E5            [11] 3532 	push	hl
   1335 3E 03         [ 7] 3533 	ld	a,#0x03
   1337 F5            [11] 3534 	push	af
   1338 33            [ 6] 3535 	inc	sp
   1339 DD 6E FE      [19] 3536 	ld	l,-2 (ix)
   133C DD 66 FF      [19] 3537 	ld	h,-1 (ix)
   133F E5            [11] 3538 	push	hl
   1340 CDr00r00      [17] 3539 	call	_cpct_drawSolidBox
   1343 F1            [10] 3540 	pop	af
   1344 F1            [10] 3541 	pop	af
   1345 33            [ 6] 3542 	inc	sp
   1346 21 00 40      [10] 3543 	ld	hl,#0x4000
   1349 CDr00r00      [17] 3544 	call	_cpct_isKeyPressed
   134C 7D            [ 4] 3545 	ld	a,l
   134D D1            [10] 3546 	pop	de
   134E C1            [10] 3547 	pop	bc
   134F B7            [ 4] 3548 	or	a, a
   1350 28 27         [12] 3549 	jr	Z,00116$
                           3550 ;src/main.c:133: switch (pushed){
   1352 78            [ 4] 3551 	ld	a,b
   1353 B7            [ 4] 3552 	or	a,a
   1354 20 23         [12] 3553 	jr	NZ,00116$
   1356 B1            [ 4] 3554 	or	a,c
   1357 20 20         [12] 3555 	jr	NZ,00116$
   1359 DD 5E FA      [19] 3556 	ld	e,-6 (ix)
   135C 16 00         [ 7] 3557 	ld	d,#0x00
   135E 21r64r13      [10] 3558 	ld	hl,#00167$
   1361 19            [11] 3559 	add	hl,de
   1362 19            [11] 3560 	add	hl,de
                           3561 ;src/main.c:134: case 0: return 1;break;
   1363 E9            [ 4] 3562 	jp	(hl)
   1364                    3563 00167$:
   1364 18 04         [12] 3564 	jr	00111$
   1366 18 07         [12] 3565 	jr	00112$
   1368 18 0A         [12] 3566 	jr	00113$
   136A                    3567 00111$:
   136A 21 01 00      [10] 3568 	ld	hl,#0x0001
   136D 18 0E         [12] 3569 	jr	00120$
                           3570 ;src/main.c:135: case 1: return 2;break;
   136F                    3571 00112$:
   136F 21 02 00      [10] 3572 	ld	hl,#0x0002
   1372 18 09         [12] 3573 	jr	00120$
                           3574 ;src/main.c:136: case 2: return 0;break;
   1374                    3575 00113$:
   1374 21 00 00      [10] 3576 	ld	hl,#0x0000
   1377 18 04         [12] 3577 	jr	00120$
                           3578 ;src/main.c:137: }
   1379                    3579 00116$:
                           3580 ;src/main.c:139: cont++;
   1379 13            [ 6] 3581 	inc	de
   137A C3r54r12      [10] 3582 	jp	00118$
   137D                    3583 00120$:
   137D DD F9         [10] 3584 	ld	sp, ix
   137F DD E1         [14] 3585 	pop	ix
   1381 C9            [10] 3586 	ret
   1382                    3587 ___str_1:
   1382 4C 6F 75 6E 67 65  3588 	.ascii "Lounge Gladiator"
        20 47 6C 61 64 69
        61 74 6F 72
   1392 00                 3589 	.db 0x00
   1393                    3590 ___str_2:
   1393 4E 75 65 76 61 20  3591 	.ascii "Nueva Partida"
        50 61 72 74 69 64
        61
   13A0 00                 3592 	.db 0x00
   13A1                    3593 ___str_3:
   13A1 43 72 65 64 69 74  3594 	.ascii "Creditos"
        6F 73
   13A9 00                 3595 	.db 0x00
   13AA                    3596 ___str_4:
   13AA 53 61 6C 69 72     3597 	.ascii "Salir"
   13AF 00                 3598 	.db 0x00
                           3599 ;src/main.c:152: void moveObject(u8 c){
                           3600 ;	---------------------------------
                           3601 ; Function moveObject
                           3602 ; ---------------------------------
   13B0                    3603 _moveObject::
   13B0 DD E5         [15] 3604 	push	ix
   13B2 DD 21 00 00   [14] 3605 	ld	ix,#0
   13B6 DD 39         [15] 3606 	add	ix,sp
                           3607 ;src/main.c:153: if(c == 0){
   13B8 DD 7E 04      [19] 3608 	ld	a,4 (ix)
   13BB B7            [ 4] 3609 	or	a, a
   13BC 20 3A         [12] 3610 	jr	NZ,00112$
                           3611 ;src/main.c:154: parrow.lx = parrow.x;
   13BE 11rFAr00      [10] 3612 	ld	de,#_parrow+0
   13C1 1A            [ 7] 3613 	ld	a,(de)
   13C2 32rFCr00      [13] 3614 	ld	(#(_parrow + 0x0002)),a
                           3615 ;src/main.c:155: parrow.ly = parrow.y;
   13C5 4B            [ 4] 3616 	ld	c, e
   13C6 42            [ 4] 3617 	ld	b, d
   13C7 03            [ 6] 3618 	inc	bc
   13C8 0A            [ 7] 3619 	ld	a,(bc)
   13C9 32rFDr00      [13] 3620 	ld	(#(_parrow + 0x0003)),a
                           3621 ;src/main.c:156: switch(parrow.dir){
   13CC 3Ar01r01      [13] 3622 	ld	a,(#_parrow + 7)
   13CF FE 02         [ 7] 3623 	cp	a,#0x02
   13D1 28 19         [12] 3624 	jr	Z,00103$
   13D3 FE 04         [ 7] 3625 	cp	a,#0x04
   13D5 28 0F         [12] 3626 	jr	Z,00102$
   13D7 FE 06         [ 7] 3627 	cp	a,#0x06
   13D9 28 06         [12] 3628 	jr	Z,00101$
   13DB D6 08         [ 7] 3629 	sub	a, #0x08
   13DD 28 13         [12] 3630 	jr	Z,00104$
   13DF 18 4F         [12] 3631 	jr	00114$
                           3632 ;src/main.c:157: case 6: parrow.x += 1; break;
   13E1                    3633 00101$:
   13E1 1A            [ 7] 3634 	ld	a,(de)
   13E2 3C            [ 4] 3635 	inc	a
   13E3 12            [ 7] 3636 	ld	(de),a
   13E4 18 4A         [12] 3637 	jr	00114$
                           3638 ;src/main.c:158: case 4: parrow.x -= 1; break;
   13E6                    3639 00102$:
   13E6 1A            [ 7] 3640 	ld	a,(de)
   13E7 C6 FF         [ 7] 3641 	add	a,#0xFF
   13E9 12            [ 7] 3642 	ld	(de),a
   13EA 18 44         [12] 3643 	jr	00114$
                           3644 ;src/main.c:159: case 2: parrow.y += 2; break;
   13EC                    3645 00103$:
   13EC 0A            [ 7] 3646 	ld	a,(bc)
   13ED C6 02         [ 7] 3647 	add	a, #0x02
   13EF 02            [ 7] 3648 	ld	(bc),a
   13F0 18 3E         [12] 3649 	jr	00114$
                           3650 ;src/main.c:160: case 8: parrow.y -= 2; break;
   13F2                    3651 00104$:
   13F2 0A            [ 7] 3652 	ld	a,(bc)
   13F3 C6 FE         [ 7] 3653 	add	a,#0xFE
   13F5 02            [ 7] 3654 	ld	(bc),a
                           3655 ;src/main.c:161: }
   13F6 18 38         [12] 3656 	jr	00114$
   13F8                    3657 00112$:
                           3658 ;src/main.c:164: earrow.lx = earrow.x;
   13F8 01r04r01      [10] 3659 	ld	bc,#_earrow+0
   13FB 0A            [ 7] 3660 	ld	a,(bc)
   13FC 32r06r01      [13] 3661 	ld	(#(_earrow + 0x0002)),a
                           3662 ;src/main.c:165: earrow.ly = earrow.y;
   13FF 59            [ 4] 3663 	ld	e, c
   1400 50            [ 4] 3664 	ld	d, b
   1401 13            [ 6] 3665 	inc	de
   1402 1A            [ 7] 3666 	ld	a,(de)
   1403 32r07r01      [13] 3667 	ld	(#(_earrow + 0x0003)),a
                           3668 ;src/main.c:166: switch(earrow.dir){
   1406 3Ar0Br01      [13] 3669 	ld	a,(#_earrow + 7)
   1409 FE 02         [ 7] 3670 	cp	a,#0x02
   140B 28 19         [12] 3671 	jr	Z,00108$
   140D FE 04         [ 7] 3672 	cp	a,#0x04
   140F 28 0F         [12] 3673 	jr	Z,00107$
   1411 FE 06         [ 7] 3674 	cp	a,#0x06
   1413 28 06         [12] 3675 	jr	Z,00106$
   1415 D6 08         [ 7] 3676 	sub	a, #0x08
   1417 28 13         [12] 3677 	jr	Z,00109$
   1419 18 15         [12] 3678 	jr	00114$
                           3679 ;src/main.c:167: case 6: earrow.x += 1; break;
   141B                    3680 00106$:
   141B 0A            [ 7] 3681 	ld	a,(bc)
   141C 3C            [ 4] 3682 	inc	a
   141D 02            [ 7] 3683 	ld	(bc),a
   141E 18 10         [12] 3684 	jr	00114$
                           3685 ;src/main.c:168: case 4: earrow.x -= 1; break;
   1420                    3686 00107$:
   1420 0A            [ 7] 3687 	ld	a,(bc)
   1421 C6 FF         [ 7] 3688 	add	a,#0xFF
   1423 02            [ 7] 3689 	ld	(bc),a
   1424 18 0A         [12] 3690 	jr	00114$
                           3691 ;src/main.c:169: case 2: earrow.y += 2; break;
   1426                    3692 00108$:
   1426 1A            [ 7] 3693 	ld	a,(de)
   1427 C6 02         [ 7] 3694 	add	a, #0x02
   1429 12            [ 7] 3695 	ld	(de),a
   142A 18 04         [12] 3696 	jr	00114$
                           3697 ;src/main.c:170: case 8: earrow.y -= 2; break;
   142C                    3698 00109$:
   142C 1A            [ 7] 3699 	ld	a,(de)
   142D C6 FE         [ 7] 3700 	add	a,#0xFE
   142F 12            [ 7] 3701 	ld	(de),a
                           3702 ;src/main.c:171: }
   1430                    3703 00114$:
   1430 DD E1         [14] 3704 	pop	ix
   1432 C9            [10] 3705 	ret
                           3706 ;src/main.c:179: void checkBoundsCollisionsEnemy(u8 *x,u8 *y, u8 lx, u8 ly,u8 sizeX,u8 sizeY){
                           3707 ;	---------------------------------
                           3708 ; Function checkBoundsCollisionsEnemy
                           3709 ; ---------------------------------
   1433                    3710 _checkBoundsCollisionsEnemy::
   1433 DD E5         [15] 3711 	push	ix
   1435 DD 21 00 00   [14] 3712 	ld	ix,#0
   1439 DD 39         [15] 3713 	add	ix,sp
   143B 21 EC FF      [10] 3714 	ld	hl,#-20
   143E 39            [11] 3715 	add	hl,sp
   143F F9            [ 6] 3716 	ld	sp,hl
                           3717 ;src/main.c:181: u8 *posX = x;
   1440 DD 7E 04      [19] 3718 	ld	a,4 (ix)
   1443 DD 77 EE      [19] 3719 	ld	-18 (ix),a
   1446 DD 7E 05      [19] 3720 	ld	a,5 (ix)
   1449 DD 77 EF      [19] 3721 	ld	-17 (ix),a
                           3722 ;src/main.c:182: u8 *posY = y;
   144C DD 7E 06      [19] 3723 	ld	a,6 (ix)
   144F DD 77 EC      [19] 3724 	ld	-20 (ix),a
   1452 DD 7E 07      [19] 3725 	ld	a,7 (ix)
   1455 DD 77 ED      [19] 3726 	ld	-19 (ix),a
                           3727 ;src/main.c:183: if(    scene[(posY[0])/tileheight][(posX[0])/tilewidth] == 1
   1458 E1            [10] 3728 	pop	hl
   1459 E5            [11] 3729 	push	hl
   145A 7E            [ 7] 3730 	ld	a,(hl)
   145B DD 77 FB      [19] 3731 	ld	-5 (ix), a
   145E 07            [ 4] 3732 	rlca
   145F 07            [ 4] 3733 	rlca
   1460 07            [ 4] 3734 	rlca
   1461 07            [ 4] 3735 	rlca
   1462 E6 0F         [ 7] 3736 	and	a,#0x0F
   1464 4F            [ 4] 3737 	ld	c,a
   1465 06 00         [ 7] 3738 	ld	b,#0x00
   1467 69            [ 4] 3739 	ld	l, c
   1468 60            [ 4] 3740 	ld	h, b
   1469 29            [11] 3741 	add	hl, hl
   146A 29            [11] 3742 	add	hl, hl
   146B 09            [11] 3743 	add	hl, bc
   146C 29            [11] 3744 	add	hl, hl
   146D 29            [11] 3745 	add	hl, hl
   146E 3Er00         [ 7] 3746 	ld	a,#<(_scene)
   1470 85            [ 4] 3747 	add	a, l
   1471 DD 77 F9      [19] 3748 	ld	-7 (ix),a
   1474 3Es00         [ 7] 3749 	ld	a,#>(_scene)
   1476 8C            [ 4] 3750 	adc	a, h
   1477 DD 77 FA      [19] 3751 	ld	-6 (ix),a
   147A DD 6E EE      [19] 3752 	ld	l,-18 (ix)
   147D DD 66 EF      [19] 3753 	ld	h,-17 (ix)
   1480 7E            [ 7] 3754 	ld	a,(hl)
   1481 DD 77 FE      [19] 3755 	ld	-2 (ix), a
   1484 0F            [ 4] 3756 	rrca
   1485 0F            [ 4] 3757 	rrca
   1486 E6 3F         [ 7] 3758 	and	a,#0x3F
   1488 DD 77 FF      [19] 3759 	ld	-1 (ix), a
   148B DD 86 F9      [19] 3760 	add	a, -7 (ix)
   148E 6F            [ 4] 3761 	ld	l,a
   148F 3E 00         [ 7] 3762 	ld	a,#0x00
   1491 DD 8E FA      [19] 3763 	adc	a, -6 (ix)
   1494 67            [ 4] 3764 	ld	h,a
   1495 7E            [ 7] 3765 	ld	a,(hl)
   1496 DD 77 F8      [19] 3766 	ld	-8 (ix), a
   1499 3D            [ 4] 3767 	dec	a
   149A CArA8r15      [10] 3768 	jp	Z,00106$
                           3769 ;src/main.c:184: || scene[(posY[0])/tileheight][(posX[0]+sizeX-1)/tilewidth] == 1
   149D DD 6E FE      [19] 3770 	ld	l,-2 (ix)
   14A0 26 00         [ 7] 3771 	ld	h,#0x00
   14A2 DD 5E 0A      [19] 3772 	ld	e,10 (ix)
   14A5 16 00         [ 7] 3773 	ld	d,#0x00
   14A7 19            [11] 3774 	add	hl,de
   14A8 7D            [ 4] 3775 	ld	a,l
   14A9 C6 FF         [ 7] 3776 	add	a,#0xFF
   14AB DD 77 F0      [19] 3777 	ld	-16 (ix),a
   14AE 7C            [ 4] 3778 	ld	a,h
   14AF CE FF         [ 7] 3779 	adc	a,#0xFF
   14B1 DD 77 F1      [19] 3780 	ld	-15 (ix),a
   14B4 DD 7E F0      [19] 3781 	ld	a,-16 (ix)
   14B7 DD 77 F6      [19] 3782 	ld	-10 (ix),a
   14BA DD 7E F1      [19] 3783 	ld	a,-15 (ix)
   14BD DD 77 F7      [19] 3784 	ld	-9 (ix),a
   14C0 DD 7E F1      [19] 3785 	ld	a,-15 (ix)
   14C3 07            [ 4] 3786 	rlca
   14C4 E6 01         [ 7] 3787 	and	a,#0x01
   14C6 DD 77 FE      [19] 3788 	ld	-2 (ix),a
   14C9 23            [ 6] 3789 	inc	hl
   14CA 23            [ 6] 3790 	inc	hl
   14CB DD 75 F2      [19] 3791 	ld	-14 (ix),l
   14CE DD 74 F3      [19] 3792 	ld	-13 (ix),h
   14D1 DD 7E FE      [19] 3793 	ld	a,-2 (ix)
   14D4 B7            [ 4] 3794 	or	a, a
   14D5 28 0C         [12] 3795 	jr	Z,00114$
   14D7 DD 7E F2      [19] 3796 	ld	a,-14 (ix)
   14DA DD 77 F6      [19] 3797 	ld	-10 (ix),a
   14DD DD 7E F3      [19] 3798 	ld	a,-13 (ix)
   14E0 DD 77 F7      [19] 3799 	ld	-9 (ix),a
   14E3                    3800 00114$:
   14E3 DD 6E F6      [19] 3801 	ld	l,-10 (ix)
   14E6 DD 66 F7      [19] 3802 	ld	h,-9 (ix)
   14E9 CB 2C         [ 8] 3803 	sra	h
   14EB CB 1D         [ 8] 3804 	rr	l
   14ED CB 2C         [ 8] 3805 	sra	h
   14EF CB 1D         [ 8] 3806 	rr	l
   14F1 DD 5E F9      [19] 3807 	ld	e,-7 (ix)
   14F4 DD 56 FA      [19] 3808 	ld	d,-6 (ix)
   14F7 19            [11] 3809 	add	hl,de
   14F8 7E            [ 7] 3810 	ld	a,(hl)
   14F9 3D            [ 4] 3811 	dec	a
   14FA CArA8r15      [10] 3812 	jp	Z,00106$
                           3813 ;src/main.c:185: || scene[(posY[0]+sizeY-2)/tileheight][(posX[0])/tilewidth] == 1
   14FD DD 6E FB      [19] 3814 	ld	l,-5 (ix)
   1500 26 00         [ 7] 3815 	ld	h,#0x00
   1502 DD 5E 0B      [19] 3816 	ld	e,11 (ix)
   1505 16 00         [ 7] 3817 	ld	d,#0x00
   1507 19            [11] 3818 	add	hl,de
   1508 4D            [ 4] 3819 	ld	c,l
   1509 44            [ 4] 3820 	ld	b,h
   150A 0B            [ 6] 3821 	dec	bc
   150B 0B            [ 6] 3822 	dec	bc
   150C 59            [ 4] 3823 	ld	e, c
   150D 78            [ 4] 3824 	ld	a,b
   150E 57            [ 4] 3825 	ld	d,a
   150F 07            [ 4] 3826 	rlca
   1510 E6 01         [ 7] 3827 	and	a,#0x01
   1512 DD 77 F6      [19] 3828 	ld	-10 (ix),a
   1515 7D            [ 4] 3829 	ld	a,l
   1516 C6 0D         [ 7] 3830 	add	a, #0x0D
   1518 DD 77 FC      [19] 3831 	ld	-4 (ix),a
   151B 7C            [ 4] 3832 	ld	a,h
   151C CE 00         [ 7] 3833 	adc	a, #0x00
   151E DD 77 FD      [19] 3834 	ld	-3 (ix),a
   1521 DD 7E F6      [19] 3835 	ld	a,-10 (ix)
   1524 B7            [ 4] 3836 	or	a, a
   1525 28 06         [12] 3837 	jr	Z,00115$
   1527 DD 5E FC      [19] 3838 	ld	e,-4 (ix)
   152A DD 56 FD      [19] 3839 	ld	d,-3 (ix)
   152D                    3840 00115$:
   152D CB 2A         [ 8] 3841 	sra	d
   152F CB 1B         [ 8] 3842 	rr	e
   1531 CB 2A         [ 8] 3843 	sra	d
   1533 CB 1B         [ 8] 3844 	rr	e
   1535 CB 2A         [ 8] 3845 	sra	d
   1537 CB 1B         [ 8] 3846 	rr	e
   1539 CB 2A         [ 8] 3847 	sra	d
   153B CB 1B         [ 8] 3848 	rr	e
   153D 6B            [ 4] 3849 	ld	l, e
   153E 62            [ 4] 3850 	ld	h, d
   153F 29            [11] 3851 	add	hl, hl
   1540 29            [11] 3852 	add	hl, hl
   1541 19            [11] 3853 	add	hl, de
   1542 29            [11] 3854 	add	hl, hl
   1543 29            [11] 3855 	add	hl, hl
   1544 11r00r00      [10] 3856 	ld	de,#_scene
   1547 19            [11] 3857 	add	hl,de
   1548 DD 5E FF      [19] 3858 	ld	e,-1 (ix)
   154B 16 00         [ 7] 3859 	ld	d,#0x00
   154D 19            [11] 3860 	add	hl,de
   154E 7E            [ 7] 3861 	ld	a,(hl)
   154F 3D            [ 4] 3862 	dec	a
   1550 28 56         [12] 3863 	jr	Z,00106$
                           3864 ;src/main.c:186: || scene[(posY[0]+sizeY-2)/tileheight][(posX[0]+sizeX-1)/tilewidth] == 1
   1552 69            [ 4] 3865 	ld	l, c
   1553 60            [ 4] 3866 	ld	h, b
   1554 DD 7E F6      [19] 3867 	ld	a,-10 (ix)
   1557 B7            [ 4] 3868 	or	a, a
   1558 28 06         [12] 3869 	jr	Z,00116$
   155A DD 6E FC      [19] 3870 	ld	l,-4 (ix)
   155D DD 66 FD      [19] 3871 	ld	h,-3 (ix)
   1560                    3872 00116$:
   1560 CB 2C         [ 8] 3873 	sra	h
   1562 CB 1D         [ 8] 3874 	rr	l
   1564 CB 2C         [ 8] 3875 	sra	h
   1566 CB 1D         [ 8] 3876 	rr	l
   1568 CB 2C         [ 8] 3877 	sra	h
   156A CB 1D         [ 8] 3878 	rr	l
   156C CB 2C         [ 8] 3879 	sra	h
   156E CB 1D         [ 8] 3880 	rr	l
   1570 5D            [ 4] 3881 	ld	e, l
   1571 54            [ 4] 3882 	ld	d, h
   1572 29            [11] 3883 	add	hl, hl
   1573 29            [11] 3884 	add	hl, hl
   1574 19            [11] 3885 	add	hl, de
   1575 29            [11] 3886 	add	hl, hl
   1576 29            [11] 3887 	add	hl, hl
   1577 3Er00         [ 7] 3888 	ld	a,#<(_scene)
   1579 85            [ 4] 3889 	add	a, l
   157A DD 77 F4      [19] 3890 	ld	-12 (ix),a
   157D 3Es00         [ 7] 3891 	ld	a,#>(_scene)
   157F 8C            [ 4] 3892 	adc	a, h
   1580 DD 77 F5      [19] 3893 	ld	-11 (ix),a
   1583 DD 6E F0      [19] 3894 	ld	l,-16 (ix)
   1586 DD 66 F1      [19] 3895 	ld	h,-15 (ix)
   1589 DD 7E FE      [19] 3896 	ld	a,-2 (ix)
   158C B7            [ 4] 3897 	or	a, a
   158D 28 06         [12] 3898 	jr	Z,00117$
   158F DD 6E F2      [19] 3899 	ld	l,-14 (ix)
   1592 DD 66 F3      [19] 3900 	ld	h,-13 (ix)
   1595                    3901 00117$:
   1595 CB 2C         [ 8] 3902 	sra	h
   1597 CB 1D         [ 8] 3903 	rr	l
   1599 CB 2C         [ 8] 3904 	sra	h
   159B CB 1D         [ 8] 3905 	rr	l
   159D DD 5E F4      [19] 3906 	ld	e,-12 (ix)
   15A0 DD 56 F5      [19] 3907 	ld	d,-11 (ix)
   15A3 19            [11] 3908 	add	hl,de
   15A4 7E            [ 7] 3909 	ld	a,(hl)
   15A5 3D            [ 4] 3910 	dec	a
   15A6 20 13         [12] 3911 	jr	NZ,00107$
   15A8                    3912 00106$:
                           3913 ;src/main.c:188: *posX=lx;
   15A8 DD 6E EE      [19] 3914 	ld	l,-18 (ix)
   15AB DD 66 EF      [19] 3915 	ld	h,-17 (ix)
   15AE DD 7E 08      [19] 3916 	ld	a,8 (ix)
   15B1 77            [ 7] 3917 	ld	(hl),a
                           3918 ;src/main.c:189: *posY=ly;
   15B2 E1            [10] 3919 	pop	hl
   15B3 E5            [11] 3920 	push	hl
   15B4 DD 7E 09      [19] 3921 	ld	a,9 (ix)
   15B7 77            [ 7] 3922 	ld	(hl),a
   15B8 C3r83r16      [10] 3923 	jp	00112$
   15BB                    3924 00107$:
                           3925 ;src/main.c:191: else if(    scene[(posY[0])/tileheight][(posX[0])/tilewidth] != 3
   15BB DD 7E F8      [19] 3926 	ld	a,-8 (ix)
   15BE D6 03         [ 7] 3927 	sub	a, #0x03
   15C0 C2r73r16      [10] 3928 	jp	NZ,00101$
                           3929 ;src/main.c:192: || scene[(posY[0])/tileheight][(posX[0]+sizeX-1)/tilewidth] != 3
   15C3 DD 6E F0      [19] 3930 	ld	l,-16 (ix)
   15C6 DD 66 F1      [19] 3931 	ld	h,-15 (ix)
   15C9 DD 7E FE      [19] 3932 	ld	a,-2 (ix)
   15CC B7            [ 4] 3933 	or	a, a
   15CD 28 06         [12] 3934 	jr	Z,00118$
   15CF DD 6E F2      [19] 3935 	ld	l,-14 (ix)
   15D2 DD 66 F3      [19] 3936 	ld	h,-13 (ix)
   15D5                    3937 00118$:
   15D5 CB 2C         [ 8] 3938 	sra	h
   15D7 CB 1D         [ 8] 3939 	rr	l
   15D9 CB 2C         [ 8] 3940 	sra	h
   15DB CB 1D         [ 8] 3941 	rr	l
   15DD DD 5E F9      [19] 3942 	ld	e,-7 (ix)
   15E0 DD 56 FA      [19] 3943 	ld	d,-6 (ix)
   15E3 19            [11] 3944 	add	hl,de
   15E4 7E            [ 7] 3945 	ld	a,(hl)
   15E5 D6 03         [ 7] 3946 	sub	a, #0x03
   15E7 C2r73r16      [10] 3947 	jp	NZ,00101$
                           3948 ;src/main.c:193: || scene[(posY[0]+sizeY-2)/tileheight][(posX[0])/tilewidth] != 3
   15EA 69            [ 4] 3949 	ld	l, c
   15EB 60            [ 4] 3950 	ld	h, b
   15EC DD 7E F6      [19] 3951 	ld	a,-10 (ix)
   15EF B7            [ 4] 3952 	or	a, a
   15F0 28 06         [12] 3953 	jr	Z,00119$
   15F2 DD 6E FC      [19] 3954 	ld	l,-4 (ix)
   15F5 DD 66 FD      [19] 3955 	ld	h,-3 (ix)
   15F8                    3956 00119$:
   15F8 CB 2C         [ 8] 3957 	sra	h
   15FA CB 1D         [ 8] 3958 	rr	l
   15FC CB 2C         [ 8] 3959 	sra	h
   15FE CB 1D         [ 8] 3960 	rr	l
   1600 CB 2C         [ 8] 3961 	sra	h
   1602 CB 1D         [ 8] 3962 	rr	l
   1604 CB 2C         [ 8] 3963 	sra	h
   1606 CB 1D         [ 8] 3964 	rr	l
   1608 5D            [ 4] 3965 	ld	e, l
   1609 54            [ 4] 3966 	ld	d, h
   160A 29            [11] 3967 	add	hl, hl
   160B 29            [11] 3968 	add	hl, hl
   160C 19            [11] 3969 	add	hl, de
   160D 29            [11] 3970 	add	hl, hl
   160E 29            [11] 3971 	add	hl, hl
   160F 11r00r00      [10] 3972 	ld	de,#_scene
   1612 19            [11] 3973 	add	hl,de
   1613 DD 5E FF      [19] 3974 	ld	e,-1 (ix)
   1616 16 00         [ 7] 3975 	ld	d,#0x00
   1618 19            [11] 3976 	add	hl,de
   1619 7E            [ 7] 3977 	ld	a,(hl)
   161A D6 03         [ 7] 3978 	sub	a, #0x03
   161C 20 55         [12] 3979 	jr	NZ,00101$
                           3980 ;src/main.c:194: || scene[(posY[0]+sizeY-2)/tileheight][(posX[0]+sizeX-1)/tilewidth] != 3
   161E DD 7E F6      [19] 3981 	ld	a,-10 (ix)
   1621 B7            [ 4] 3982 	or	a, a
   1622 28 06         [12] 3983 	jr	Z,00120$
   1624 DD 4E FC      [19] 3984 	ld	c,-4 (ix)
   1627 DD 46 FD      [19] 3985 	ld	b,-3 (ix)
   162A                    3986 00120$:
   162A CB 28         [ 8] 3987 	sra	b
   162C CB 19         [ 8] 3988 	rr	c
   162E CB 28         [ 8] 3989 	sra	b
   1630 CB 19         [ 8] 3990 	rr	c
   1632 CB 28         [ 8] 3991 	sra	b
   1634 CB 19         [ 8] 3992 	rr	c
   1636 CB 28         [ 8] 3993 	sra	b
   1638 CB 19         [ 8] 3994 	rr	c
   163A 69            [ 4] 3995 	ld	l, c
   163B 60            [ 4] 3996 	ld	h, b
   163C 29            [11] 3997 	add	hl, hl
   163D 29            [11] 3998 	add	hl, hl
   163E 09            [11] 3999 	add	hl, bc
   163F 29            [11] 4000 	add	hl, hl
   1640 29            [11] 4001 	add	hl, hl
   1641 3Er00         [ 7] 4002 	ld	a,#<(_scene)
   1643 85            [ 4] 4003 	add	a, l
   1644 DD 77 F4      [19] 4004 	ld	-12 (ix),a
   1647 3Es00         [ 7] 4005 	ld	a,#>(_scene)
   1649 8C            [ 4] 4006 	adc	a, h
   164A DD 77 F5      [19] 4007 	ld	-11 (ix),a
   164D DD 6E F0      [19] 4008 	ld	l,-16 (ix)
   1650 DD 66 F1      [19] 4009 	ld	h,-15 (ix)
   1653 DD 7E FE      [19] 4010 	ld	a,-2 (ix)
   1656 B7            [ 4] 4011 	or	a, a
   1657 28 06         [12] 4012 	jr	Z,00121$
   1659 DD 6E F2      [19] 4013 	ld	l,-14 (ix)
   165C DD 66 F3      [19] 4014 	ld	h,-13 (ix)
   165F                    4015 00121$:
   165F CB 2C         [ 8] 4016 	sra	h
   1661 CB 1D         [ 8] 4017 	rr	l
   1663 CB 2C         [ 8] 4018 	sra	h
   1665 CB 1D         [ 8] 4019 	rr	l
   1667 DD 5E F4      [19] 4020 	ld	e,-12 (ix)
   166A DD 56 F5      [19] 4021 	ld	d,-11 (ix)
   166D 19            [11] 4022 	add	hl,de
   166E 7E            [ 7] 4023 	ld	a,(hl)
   166F D6 03         [ 7] 4024 	sub	a, #0x03
   1671 28 10         [12] 4025 	jr	Z,00112$
   1673                    4026 00101$:
                           4027 ;src/main.c:196: *posX=lx;
   1673 DD 6E EE      [19] 4028 	ld	l,-18 (ix)
   1676 DD 66 EF      [19] 4029 	ld	h,-17 (ix)
   1679 DD 7E 08      [19] 4030 	ld	a,8 (ix)
   167C 77            [ 7] 4031 	ld	(hl),a
                           4032 ;src/main.c:197: *posY=ly;
   167D E1            [10] 4033 	pop	hl
   167E E5            [11] 4034 	push	hl
   167F DD 7E 09      [19] 4035 	ld	a,9 (ix)
   1682 77            [ 7] 4036 	ld	(hl),a
   1683                    4037 00112$:
   1683 DD F9         [10] 4038 	ld	sp, ix
   1685 DD E1         [14] 4039 	pop	ix
   1687 C9            [10] 4040 	ret
                           4041 ;src/main.c:203: void checkBoundsCollisions(u8 *corazon,u8 *flecha){
                           4042 ;	---------------------------------
                           4043 ; Function checkBoundsCollisions
                           4044 ; ---------------------------------
   1688                    4045 _checkBoundsCollisions::
   1688 DD E5         [15] 4046 	push	ix
   168A DD 21 00 00   [14] 4047 	ld	ix,#0
   168E DD 39         [15] 4048 	add	ix,sp
   1690 21 F2 FF      [10] 4049 	ld	hl,#-14
   1693 39            [11] 4050 	add	hl,sp
   1694 F9            [ 6] 4051 	ld	sp,hl
                           4052 ;src/main.c:204: if(    scene[(player.y)/tileheight][(player.x)/tilewidth] == 1
   1695 3Ar0Fr01      [13] 4053 	ld	a,(#(_player + 0x0001) + 0)
   1698 DD 77 F8      [19] 4054 	ld	-8 (ix), a
   169B 07            [ 4] 4055 	rlca
   169C 07            [ 4] 4056 	rlca
   169D 07            [ 4] 4057 	rlca
   169E 07            [ 4] 4058 	rlca
   169F E6 0F         [ 7] 4059 	and	a,#0x0F
   16A1 4F            [ 4] 4060 	ld	c,a
   16A2 06 00         [ 7] 4061 	ld	b,#0x00
   16A4 69            [ 4] 4062 	ld	l, c
   16A5 60            [ 4] 4063 	ld	h, b
   16A6 29            [11] 4064 	add	hl, hl
   16A7 29            [11] 4065 	add	hl, hl
   16A8 09            [11] 4066 	add	hl, bc
   16A9 29            [11] 4067 	add	hl, hl
   16AA 29            [11] 4068 	add	hl, hl
   16AB 3Er00         [ 7] 4069 	ld	a,#<(_scene)
   16AD 85            [ 4] 4070 	add	a, l
   16AE DD 77 F4      [19] 4071 	ld	-12 (ix),a
   16B1 3Es00         [ 7] 4072 	ld	a,#>(_scene)
   16B3 8C            [ 4] 4073 	adc	a, h
   16B4 DD 77 F5      [19] 4074 	ld	-11 (ix),a
   16B7 21r0Er01      [10] 4075 	ld	hl, #_player + 0
   16BA 4E            [ 7] 4076 	ld	c,(hl)
   16BB 79            [ 4] 4077 	ld	a,c
   16BC 0F            [ 4] 4078 	rrca
   16BD 0F            [ 4] 4079 	rrca
   16BE E6 3F         [ 7] 4080 	and	a,#0x3F
   16C0 DD 77 F7      [19] 4081 	ld	-9 (ix), a
   16C3 DD 86 F4      [19] 4082 	add	a, -12 (ix)
   16C6 6F            [ 4] 4083 	ld	l,a
   16C7 3E 00         [ 7] 4084 	ld	a,#0x00
   16C9 DD 8E F5      [19] 4085 	adc	a, -11 (ix)
   16CC 67            [ 4] 4086 	ld	h,a
   16CD 7E            [ 7] 4087 	ld	a,(hl)
   16CE DD 77 F6      [19] 4088 	ld	-10 (ix), a
   16D1 3D            [ 4] 4089 	dec	a
   16D2 CArE8r17      [10] 4090 	jp	Z,00124$
                           4091 ;src/main.c:205: || scene[(player.y)/tileheight][(player.x+tilewidth-1)/tilewidth] == 1
   16D5 06 00         [ 7] 4092 	ld	b,#0x00
   16D7 21 03 00      [10] 4093 	ld	hl,#0x0003
   16DA 09            [11] 4094 	add	hl,bc
   16DB DD 75 FB      [19] 4095 	ld	-5 (ix),l
   16DE DD 74 FC      [19] 4096 	ld	-4 (ix),h
   16E1 DD 7E FB      [19] 4097 	ld	a,-5 (ix)
   16E4 DD 77 FE      [19] 4098 	ld	-2 (ix),a
   16E7 DD 7E FC      [19] 4099 	ld	a,-4 (ix)
   16EA DD 77 FF      [19] 4100 	ld	-1 (ix),a
   16ED DD 7E FC      [19] 4101 	ld	a,-4 (ix)
   16F0 07            [ 4] 4102 	rlca
   16F1 E6 01         [ 7] 4103 	and	a,#0x01
   16F3 DD 77 FD      [19] 4104 	ld	-3 (ix),a
   16F6 21 06 00      [10] 4105 	ld	hl,#0x0006
   16F9 09            [11] 4106 	add	hl,bc
   16FA E3            [19] 4107 	ex	(sp), hl
   16FB DD 7E FD      [19] 4108 	ld	a,-3 (ix)
   16FE B7            [ 4] 4109 	or	a, a
   16FF 28 0C         [12] 4110 	jr	Z,00132$
   1701 DD 7E F2      [19] 4111 	ld	a,-14 (ix)
   1704 DD 77 FE      [19] 4112 	ld	-2 (ix),a
   1707 DD 7E F3      [19] 4113 	ld	a,-13 (ix)
   170A DD 77 FF      [19] 4114 	ld	-1 (ix),a
   170D                    4115 00132$:
   170D DD 6E FE      [19] 4116 	ld	l,-2 (ix)
   1710 DD 66 FF      [19] 4117 	ld	h,-1 (ix)
   1713 CB 2C         [ 8] 4118 	sra	h
   1715 CB 1D         [ 8] 4119 	rr	l
   1717 CB 2C         [ 8] 4120 	sra	h
   1719 CB 1D         [ 8] 4121 	rr	l
   171B DD 5E F4      [19] 4122 	ld	e,-12 (ix)
   171E DD 56 F5      [19] 4123 	ld	d,-11 (ix)
   1721 19            [11] 4124 	add	hl,de
   1722 7E            [ 7] 4125 	ld	a,(hl)
   1723 3D            [ 4] 4126 	dec	a
   1724 CArE8r17      [10] 4127 	jp	Z,00124$
                           4128 ;src/main.c:206: || scene[(player.y+tileheight-2)/tileheight][(player.x)/tilewidth] == 1
   1727 DD 5E F8      [19] 4129 	ld	e,-8 (ix)
   172A 16 00         [ 7] 4130 	ld	d,#0x00
   172C 21 0E 00      [10] 4131 	ld	hl,#0x000E
   172F 19            [11] 4132 	add	hl,de
   1730 4D            [ 4] 4133 	ld	c,l
   1731 44            [ 4] 4134 	ld	b,h
   1732 DD 71 FE      [19] 4135 	ld	-2 (ix),c
   1735 DD 70 FF      [19] 4136 	ld	-1 (ix),b
   1738 78            [ 4] 4137 	ld	a,b
   1739 07            [ 4] 4138 	rlca
   173A E6 01         [ 7] 4139 	and	a,#0x01
   173C DD 77 F8      [19] 4140 	ld	-8 (ix),a
   173F 21 1D 00      [10] 4141 	ld	hl,#0x001D
   1742 19            [11] 4142 	add	hl,de
   1743 DD 75 F9      [19] 4143 	ld	-7 (ix),l
   1746 DD 74 FA      [19] 4144 	ld	-6 (ix),h
   1749 DD 7E F8      [19] 4145 	ld	a,-8 (ix)
   174C B7            [ 4] 4146 	or	a, a
   174D 28 0C         [12] 4147 	jr	Z,00133$
   174F DD 7E F9      [19] 4148 	ld	a,-7 (ix)
   1752 DD 77 FE      [19] 4149 	ld	-2 (ix),a
   1755 DD 7E FA      [19] 4150 	ld	a,-6 (ix)
   1758 DD 77 FF      [19] 4151 	ld	-1 (ix),a
   175B                    4152 00133$:
   175B DD 6E FE      [19] 4153 	ld	l,-2 (ix)
   175E DD 66 FF      [19] 4154 	ld	h,-1 (ix)
   1761 CB 2C         [ 8] 4155 	sra	h
   1763 CB 1D         [ 8] 4156 	rr	l
   1765 CB 2C         [ 8] 4157 	sra	h
   1767 CB 1D         [ 8] 4158 	rr	l
   1769 CB 2C         [ 8] 4159 	sra	h
   176B CB 1D         [ 8] 4160 	rr	l
   176D CB 2C         [ 8] 4161 	sra	h
   176F CB 1D         [ 8] 4162 	rr	l
   1771 5D            [ 4] 4163 	ld	e, l
   1772 54            [ 4] 4164 	ld	d, h
   1773 29            [11] 4165 	add	hl, hl
   1774 29            [11] 4166 	add	hl, hl
   1775 19            [11] 4167 	add	hl, de
   1776 29            [11] 4168 	add	hl, hl
   1777 29            [11] 4169 	add	hl, hl
   1778 11r00r00      [10] 4170 	ld	de,#_scene
   177B 19            [11] 4171 	add	hl,de
   177C DD 5E F7      [19] 4172 	ld	e,-9 (ix)
   177F 16 00         [ 7] 4173 	ld	d,#0x00
   1781 19            [11] 4174 	add	hl,de
   1782 7E            [ 7] 4175 	ld	a,(hl)
   1783 3D            [ 4] 4176 	dec	a
   1784 28 62         [12] 4177 	jr	Z,00124$
                           4178 ;src/main.c:207: || scene[(player.y+tileheight-2)/tileheight][(player.x+tilewidth-1)/tilewidth] == 1
   1786 DD 71 FE      [19] 4179 	ld	-2 (ix),c
   1789 DD 70 FF      [19] 4180 	ld	-1 (ix),b
   178C DD 7E F8      [19] 4181 	ld	a,-8 (ix)
   178F B7            [ 4] 4182 	or	a, a
   1790 28 0C         [12] 4183 	jr	Z,00134$
   1792 DD 7E F9      [19] 4184 	ld	a,-7 (ix)
   1795 DD 77 FE      [19] 4185 	ld	-2 (ix),a
   1798 DD 7E FA      [19] 4186 	ld	a,-6 (ix)
   179B DD 77 FF      [19] 4187 	ld	-1 (ix),a
   179E                    4188 00134$:
   179E DD 6E FE      [19] 4189 	ld	l,-2 (ix)
   17A1 DD 66 FF      [19] 4190 	ld	h,-1 (ix)
   17A4 CB 2C         [ 8] 4191 	sra	h
   17A6 CB 1D         [ 8] 4192 	rr	l
   17A8 CB 2C         [ 8] 4193 	sra	h
   17AA CB 1D         [ 8] 4194 	rr	l
   17AC CB 2C         [ 8] 4195 	sra	h
   17AE CB 1D         [ 8] 4196 	rr	l
   17B0 CB 2C         [ 8] 4197 	sra	h
   17B2 CB 1D         [ 8] 4198 	rr	l
   17B4 5D            [ 4] 4199 	ld	e, l
   17B5 54            [ 4] 4200 	ld	d, h
   17B6 29            [11] 4201 	add	hl, hl
   17B7 29            [11] 4202 	add	hl, hl
   17B8 19            [11] 4203 	add	hl, de
   17B9 29            [11] 4204 	add	hl, hl
   17BA 29            [11] 4205 	add	hl, hl
   17BB 3Er00         [ 7] 4206 	ld	a,#<(_scene)
   17BD 85            [ 4] 4207 	add	a, l
   17BE DD 77 FE      [19] 4208 	ld	-2 (ix),a
   17C1 3Es00         [ 7] 4209 	ld	a,#>(_scene)
   17C3 8C            [ 4] 4210 	adc	a, h
   17C4 DD 77 FF      [19] 4211 	ld	-1 (ix),a
   17C7 DD 6E FB      [19] 4212 	ld	l,-5 (ix)
   17CA DD 66 FC      [19] 4213 	ld	h,-4 (ix)
   17CD DD 7E FD      [19] 4214 	ld	a,-3 (ix)
   17D0 B7            [ 4] 4215 	or	a, a
   17D1 28 02         [12] 4216 	jr	Z,00135$
   17D3 E1            [10] 4217 	pop	hl
   17D4 E5            [11] 4218 	push	hl
   17D5                    4219 00135$:
   17D5 CB 2C         [ 8] 4220 	sra	h
   17D7 CB 1D         [ 8] 4221 	rr	l
   17D9 CB 2C         [ 8] 4222 	sra	h
   17DB CB 1D         [ 8] 4223 	rr	l
   17DD DD 5E FE      [19] 4224 	ld	e,-2 (ix)
   17E0 DD 56 FF      [19] 4225 	ld	d,-1 (ix)
   17E3 19            [11] 4226 	add	hl,de
   17E4 7E            [ 7] 4227 	ld	a,(hl)
   17E5 3D            [ 4] 4228 	dec	a
   17E6 20 10         [12] 4229 	jr	NZ,00125$
   17E8                    4230 00124$:
                           4231 ;src/main.c:209: player.x=player.lx;
   17E8 3Ar10r01      [13] 4232 	ld	a, (#_player + 2)
   17EB 21r0Er01      [10] 4233 	ld	hl,#_player
   17EE 77            [ 7] 4234 	ld	(hl),a
                           4235 ;src/main.c:210: player.y=player.ly;
   17EF 3Ar11r01      [13] 4236 	ld	a, (#_player + 3)
   17F2 32r0Fr01      [13] 4237 	ld	(#(_player + 0x0001)),a
   17F5 C3r54r1A      [10] 4238 	jp	00130$
   17F8                    4239 00125$:
                           4240 ;src/main.c:212: else if(    scene[(player.y)/tileheight][(player.x)/tilewidth] == 2
   17F8 DD 7E F6      [19] 4241 	ld	a,-10 (ix)
   17FB D6 02         [ 7] 4242 	sub	a, #0x02
   17FD CArA0r18      [10] 4243 	jp	Z,00118$
                           4244 ;src/main.c:213: || scene[(player.y)/tileheight][(player.x+tilewidth-1)/tilewidth] == 2
   1800 DD 6E FB      [19] 4245 	ld	l,-5 (ix)
   1803 DD 66 FC      [19] 4246 	ld	h,-4 (ix)
   1806 DD 7E FD      [19] 4247 	ld	a,-3 (ix)
   1809 B7            [ 4] 4248 	or	a, a
   180A 28 02         [12] 4249 	jr	Z,00136$
   180C E1            [10] 4250 	pop	hl
   180D E5            [11] 4251 	push	hl
   180E                    4252 00136$:
   180E CB 2C         [ 8] 4253 	sra	h
   1810 CB 1D         [ 8] 4254 	rr	l
   1812 CB 2C         [ 8] 4255 	sra	h
   1814 CB 1D         [ 8] 4256 	rr	l
   1816 DD 5E F4      [19] 4257 	ld	e,-12 (ix)
   1819 DD 56 F5      [19] 4258 	ld	d,-11 (ix)
   181C 19            [11] 4259 	add	hl,de
   181D 7E            [ 7] 4260 	ld	a,(hl)
   181E D6 02         [ 7] 4261 	sub	a, #0x02
   1820 CArA0r18      [10] 4262 	jp	Z,00118$
                           4263 ;src/main.c:214: || scene[(player.y+tileheight-2)/tileheight][(player.x)/tilewidth] == 2
   1823 69            [ 4] 4264 	ld	l, c
   1824 60            [ 4] 4265 	ld	h, b
   1825 DD 7E F8      [19] 4266 	ld	a,-8 (ix)
   1828 B7            [ 4] 4267 	or	a, a
   1829 28 06         [12] 4268 	jr	Z,00137$
   182B DD 6E F9      [19] 4269 	ld	l,-7 (ix)
   182E DD 66 FA      [19] 4270 	ld	h,-6 (ix)
   1831                    4271 00137$:
   1831 CB 2C         [ 8] 4272 	sra	h
   1833 CB 1D         [ 8] 4273 	rr	l
   1835 CB 2C         [ 8] 4274 	sra	h
   1837 CB 1D         [ 8] 4275 	rr	l
   1839 CB 2C         [ 8] 4276 	sra	h
   183B CB 1D         [ 8] 4277 	rr	l
   183D CB 2C         [ 8] 4278 	sra	h
   183F CB 1D         [ 8] 4279 	rr	l
   1841 5D            [ 4] 4280 	ld	e, l
   1842 54            [ 4] 4281 	ld	d, h
   1843 29            [11] 4282 	add	hl, hl
   1844 29            [11] 4283 	add	hl, hl
   1845 19            [11] 4284 	add	hl, de
   1846 29            [11] 4285 	add	hl, hl
   1847 29            [11] 4286 	add	hl, hl
   1848 11r00r00      [10] 4287 	ld	de,#_scene
   184B 19            [11] 4288 	add	hl,de
   184C DD 5E F7      [19] 4289 	ld	e,-9 (ix)
   184F 16 00         [ 7] 4290 	ld	d,#0x00
   1851 19            [11] 4291 	add	hl,de
   1852 7E            [ 7] 4292 	ld	a,(hl)
   1853 D6 02         [ 7] 4293 	sub	a, #0x02
   1855 28 49         [12] 4294 	jr	Z,00118$
                           4295 ;src/main.c:215: || scene[(player.y+tileheight-2)/tileheight][(player.x+tilewidth-1)/tilewidth] == 2
   1857 69            [ 4] 4296 	ld	l, c
   1858 60            [ 4] 4297 	ld	h, b
   1859 DD 7E F8      [19] 4298 	ld	a,-8 (ix)
   185C B7            [ 4] 4299 	or	a, a
   185D 28 06         [12] 4300 	jr	Z,00138$
   185F DD 6E F9      [19] 4301 	ld	l,-7 (ix)
   1862 DD 66 FA      [19] 4302 	ld	h,-6 (ix)
   1865                    4303 00138$:
   1865 CB 2C         [ 8] 4304 	sra	h
   1867 CB 1D         [ 8] 4305 	rr	l
   1869 CB 2C         [ 8] 4306 	sra	h
   186B CB 1D         [ 8] 4307 	rr	l
   186D CB 2C         [ 8] 4308 	sra	h
   186F CB 1D         [ 8] 4309 	rr	l
   1871 CB 2C         [ 8] 4310 	sra	h
   1873 CB 1D         [ 8] 4311 	rr	l
   1875 5D            [ 4] 4312 	ld	e, l
   1876 54            [ 4] 4313 	ld	d, h
   1877 29            [11] 4314 	add	hl, hl
   1878 29            [11] 4315 	add	hl, hl
   1879 19            [11] 4316 	add	hl, de
   187A 29            [11] 4317 	add	hl, hl
   187B 29            [11] 4318 	add	hl, hl
   187C 3Er00         [ 7] 4319 	ld	a,#<(_scene)
   187E 85            [ 4] 4320 	add	a, l
   187F 5F            [ 4] 4321 	ld	e,a
   1880 3Es00         [ 7] 4322 	ld	a,#>(_scene)
   1882 8C            [ 4] 4323 	adc	a, h
   1883 57            [ 4] 4324 	ld	d,a
   1884 DD 6E FB      [19] 4325 	ld	l,-5 (ix)
   1887 DD 66 FC      [19] 4326 	ld	h,-4 (ix)
   188A DD 7E FD      [19] 4327 	ld	a,-3 (ix)
   188D B7            [ 4] 4328 	or	a, a
   188E 28 02         [12] 4329 	jr	Z,00139$
   1890 E1            [10] 4330 	pop	hl
   1891 E5            [11] 4331 	push	hl
   1892                    4332 00139$:
   1892 CB 2C         [ 8] 4333 	sra	h
   1894 CB 1D         [ 8] 4334 	rr	l
   1896 CB 2C         [ 8] 4335 	sra	h
   1898 CB 1D         [ 8] 4336 	rr	l
   189A 19            [11] 4337 	add	hl,de
   189B 7E            [ 7] 4338 	ld	a,(hl)
   189C D6 02         [ 7] 4339 	sub	a, #0x02
   189E 20 21         [12] 4340 	jr	NZ,00119$
   18A0                    4341 00118$:
                           4342 ;src/main.c:217: if(player.life < 3 && *corazon == 0){
   18A0 FD 21r14r01   [14] 4343 	ld	iy,#_player + 6
   18A4 FD 5E 00      [19] 4344 	ld	e, 0 (iy)
   18A7 7B            [ 4] 4345 	ld	a,e
   18A8 D6 03         [ 7] 4346 	sub	a, #0x03
   18AA D2r54r1A      [10] 4347 	jp	NC,00130$
   18AD DD 6E 04      [19] 4348 	ld	l,4 (ix)
   18B0 DD 66 05      [19] 4349 	ld	h,5 (ix)
   18B3 7E            [ 7] 4350 	ld	a,(hl)
   18B4 B7            [ 4] 4351 	or	a, a
   18B5 C2r54r1A      [10] 4352 	jp	NZ,00130$
                           4353 ;src/main.c:218: player.life += 1;
   18B8 1C            [ 4] 4354 	inc	e
   18B9 FD 73 00      [19] 4355 	ld	0 (iy), e
                           4356 ;src/main.c:219: *corazon = 1;
   18BC 36 01         [10] 4357 	ld	(hl),#0x01
   18BE C3r54r1A      [10] 4358 	jp	00130$
   18C1                    4359 00119$:
                           4360 ;src/main.c:222: else if(    scene[(player.y)/tileheight][(player.x)/tilewidth] == 5
   18C1 DD 7E F6      [19] 4361 	ld	a,-10 (ix)
   18C4 D6 05         [ 7] 4362 	sub	a, #0x05
   18C6 CAr69r19      [10] 4363 	jp	Z,00112$
                           4364 ;src/main.c:223: || scene[(player.y)/tileheight][(player.x+tilewidth-1)/tilewidth] == 5
   18C9 DD 6E FB      [19] 4365 	ld	l,-5 (ix)
   18CC DD 66 FC      [19] 4366 	ld	h,-4 (ix)
   18CF DD 7E FD      [19] 4367 	ld	a,-3 (ix)
   18D2 B7            [ 4] 4368 	or	a, a
   18D3 28 02         [12] 4369 	jr	Z,00140$
   18D5 E1            [10] 4370 	pop	hl
   18D6 E5            [11] 4371 	push	hl
   18D7                    4372 00140$:
   18D7 CB 2C         [ 8] 4373 	sra	h
   18D9 CB 1D         [ 8] 4374 	rr	l
   18DB CB 2C         [ 8] 4375 	sra	h
   18DD CB 1D         [ 8] 4376 	rr	l
   18DF DD 5E F4      [19] 4377 	ld	e,-12 (ix)
   18E2 DD 56 F5      [19] 4378 	ld	d,-11 (ix)
   18E5 19            [11] 4379 	add	hl,de
   18E6 7E            [ 7] 4380 	ld	a,(hl)
   18E7 D6 05         [ 7] 4381 	sub	a, #0x05
   18E9 CAr69r19      [10] 4382 	jp	Z,00112$
                           4383 ;src/main.c:224: || scene[(player.y+tileheight-2)/tileheight][(player.x)/tilewidth] == 5
   18EC 69            [ 4] 4384 	ld	l, c
   18ED 60            [ 4] 4385 	ld	h, b
   18EE DD 7E F8      [19] 4386 	ld	a,-8 (ix)
   18F1 B7            [ 4] 4387 	or	a, a
   18F2 28 06         [12] 4388 	jr	Z,00141$
   18F4 DD 6E F9      [19] 4389 	ld	l,-7 (ix)
   18F7 DD 66 FA      [19] 4390 	ld	h,-6 (ix)
   18FA                    4391 00141$:
   18FA CB 2C         [ 8] 4392 	sra	h
   18FC CB 1D         [ 8] 4393 	rr	l
   18FE CB 2C         [ 8] 4394 	sra	h
   1900 CB 1D         [ 8] 4395 	rr	l
   1902 CB 2C         [ 8] 4396 	sra	h
   1904 CB 1D         [ 8] 4397 	rr	l
   1906 CB 2C         [ 8] 4398 	sra	h
   1908 CB 1D         [ 8] 4399 	rr	l
   190A 5D            [ 4] 4400 	ld	e, l
   190B 54            [ 4] 4401 	ld	d, h
   190C 29            [11] 4402 	add	hl, hl
   190D 29            [11] 4403 	add	hl, hl
   190E 19            [11] 4404 	add	hl, de
   190F 29            [11] 4405 	add	hl, hl
   1910 29            [11] 4406 	add	hl, hl
   1911 11r00r00      [10] 4407 	ld	de,#_scene
   1914 19            [11] 4408 	add	hl,de
   1915 DD 5E F7      [19] 4409 	ld	e,-9 (ix)
   1918 16 00         [ 7] 4410 	ld	d,#0x00
   191A 19            [11] 4411 	add	hl,de
   191B 7E            [ 7] 4412 	ld	a,(hl)
   191C D6 05         [ 7] 4413 	sub	a, #0x05
   191E 28 49         [12] 4414 	jr	Z,00112$
                           4415 ;src/main.c:225: || scene[(player.y+tileheight-2)/tileheight][(player.x+tilewidth-1)/tilewidth] == 5
   1920 69            [ 4] 4416 	ld	l, c
   1921 60            [ 4] 4417 	ld	h, b
   1922 DD 7E F8      [19] 4418 	ld	a,-8 (ix)
   1925 B7            [ 4] 4419 	or	a, a
   1926 28 06         [12] 4420 	jr	Z,00142$
   1928 DD 6E F9      [19] 4421 	ld	l,-7 (ix)
   192B DD 66 FA      [19] 4422 	ld	h,-6 (ix)
   192E                    4423 00142$:
   192E CB 2C         [ 8] 4424 	sra	h
   1930 CB 1D         [ 8] 4425 	rr	l
   1932 CB 2C         [ 8] 4426 	sra	h
   1934 CB 1D         [ 8] 4427 	rr	l
   1936 CB 2C         [ 8] 4428 	sra	h
   1938 CB 1D         [ 8] 4429 	rr	l
   193A CB 2C         [ 8] 4430 	sra	h
   193C CB 1D         [ 8] 4431 	rr	l
   193E 5D            [ 4] 4432 	ld	e, l
   193F 54            [ 4] 4433 	ld	d, h
   1940 29            [11] 4434 	add	hl, hl
   1941 29            [11] 4435 	add	hl, hl
   1942 19            [11] 4436 	add	hl, de
   1943 29            [11] 4437 	add	hl, hl
   1944 29            [11] 4438 	add	hl, hl
   1945 3Er00         [ 7] 4439 	ld	a,#<(_scene)
   1947 85            [ 4] 4440 	add	a, l
   1948 5F            [ 4] 4441 	ld	e,a
   1949 3Es00         [ 7] 4442 	ld	a,#>(_scene)
   194B 8C            [ 4] 4443 	adc	a, h
   194C 57            [ 4] 4444 	ld	d,a
   194D DD 6E FB      [19] 4445 	ld	l,-5 (ix)
   1950 DD 66 FC      [19] 4446 	ld	h,-4 (ix)
   1953 DD 7E FD      [19] 4447 	ld	a,-3 (ix)
   1956 B7            [ 4] 4448 	or	a, a
   1957 28 02         [12] 4449 	jr	Z,00143$
   1959 E1            [10] 4450 	pop	hl
   195A E5            [11] 4451 	push	hl
   195B                    4452 00143$:
   195B CB 2C         [ 8] 4453 	sra	h
   195D CB 1D         [ 8] 4454 	rr	l
   195F CB 2C         [ 8] 4455 	sra	h
   1961 CB 1D         [ 8] 4456 	rr	l
   1963 19            [11] 4457 	add	hl,de
   1964 7E            [ 7] 4458 	ld	a,(hl)
   1965 D6 05         [ 7] 4459 	sub	a, #0x05
   1967 20 21         [12] 4460 	jr	NZ,00113$
   1969                    4461 00112$:
                           4462 ;src/main.c:227: if(player.bullets < 3 && *flecha == 0){
   1969 FD 21r18r01   [14] 4463 	ld	iy,#_player + 10
   196D FD 5E 00      [19] 4464 	ld	e, 0 (iy)
   1970 7B            [ 4] 4465 	ld	a,e
   1971 D6 03         [ 7] 4466 	sub	a, #0x03
   1973 D2r54r1A      [10] 4467 	jp	NC,00130$
   1976 DD 6E 06      [19] 4468 	ld	l,6 (ix)
   1979 DD 66 07      [19] 4469 	ld	h,7 (ix)
   197C 7E            [ 7] 4470 	ld	a,(hl)
   197D B7            [ 4] 4471 	or	a, a
   197E C2r54r1A      [10] 4472 	jp	NZ,00130$
                           4473 ;src/main.c:228: player.bullets += 1;
   1981 1C            [ 4] 4474 	inc	e
   1982 FD 73 00      [19] 4475 	ld	0 (iy), e
                           4476 ;src/main.c:229: *flecha = 1;
   1985 36 01         [10] 4477 	ld	(hl),#0x01
   1987 C3r54r1A      [10] 4478 	jp	00130$
   198A                    4479 00113$:
                           4480 ;src/main.c:231: }else if(    scene[(player.y)/tileheight][(player.x)/tilewidth] == 9
   198A DD 7E F6      [19] 4481 	ld	a,-10 (ix)
   198D D6 09         [ 7] 4482 	sub	a, #0x09
   198F CAr3Ar1A      [10] 4483 	jp	Z,00107$
                           4484 ;src/main.c:232: || scene[(player.y)/tileheight][(player.x+tilewidth-1)/tilewidth] == 9
   1992 DD 6E FB      [19] 4485 	ld	l,-5 (ix)
   1995 DD 66 FC      [19] 4486 	ld	h,-4 (ix)
   1998 DD 7E FD      [19] 4487 	ld	a,-3 (ix)
   199B B7            [ 4] 4488 	or	a, a
   199C 28 02         [12] 4489 	jr	Z,00144$
   199E E1            [10] 4490 	pop	hl
   199F E5            [11] 4491 	push	hl
   19A0                    4492 00144$:
   19A0 CB 2C         [ 8] 4493 	sra	h
   19A2 CB 1D         [ 8] 4494 	rr	l
   19A4 CB 2C         [ 8] 4495 	sra	h
   19A6 CB 1D         [ 8] 4496 	rr	l
   19A8 DD 5E F4      [19] 4497 	ld	e,-12 (ix)
   19AB DD 56 F5      [19] 4498 	ld	d,-11 (ix)
   19AE 19            [11] 4499 	add	hl,de
   19AF 7E            [ 7] 4500 	ld	a,(hl)
   19B0 D6 09         [ 7] 4501 	sub	a, #0x09
   19B2 CAr3Ar1A      [10] 4502 	jp	Z,00107$
                           4503 ;src/main.c:233: || scene[(player.y+tileheight-2)/tileheight][(player.x)/tilewidth] == 9
   19B5 69            [ 4] 4504 	ld	l, c
   19B6 60            [ 4] 4505 	ld	h, b
   19B7 DD 7E F8      [19] 4506 	ld	a,-8 (ix)
   19BA B7            [ 4] 4507 	or	a, a
   19BB 28 06         [12] 4508 	jr	Z,00145$
   19BD DD 6E F9      [19] 4509 	ld	l,-7 (ix)
   19C0 DD 66 FA      [19] 4510 	ld	h,-6 (ix)
   19C3                    4511 00145$:
   19C3 CB 2C         [ 8] 4512 	sra	h
   19C5 CB 1D         [ 8] 4513 	rr	l
   19C7 CB 2C         [ 8] 4514 	sra	h
   19C9 CB 1D         [ 8] 4515 	rr	l
   19CB CB 2C         [ 8] 4516 	sra	h
   19CD CB 1D         [ 8] 4517 	rr	l
   19CF CB 2C         [ 8] 4518 	sra	h
   19D1 CB 1D         [ 8] 4519 	rr	l
   19D3 5D            [ 4] 4520 	ld	e, l
   19D4 54            [ 4] 4521 	ld	d, h
   19D5 29            [11] 4522 	add	hl, hl
   19D6 29            [11] 4523 	add	hl, hl
   19D7 19            [11] 4524 	add	hl, de
   19D8 29            [11] 4525 	add	hl, hl
   19D9 29            [11] 4526 	add	hl, hl
   19DA 11r00r00      [10] 4527 	ld	de,#_scene
   19DD 19            [11] 4528 	add	hl,de
   19DE DD 5E F7      [19] 4529 	ld	e,-9 (ix)
   19E1 16 00         [ 7] 4530 	ld	d,#0x00
   19E3 19            [11] 4531 	add	hl,de
   19E4 7E            [ 7] 4532 	ld	a,(hl)
   19E5 D6 09         [ 7] 4533 	sub	a, #0x09
   19E7 28 51         [12] 4534 	jr	Z,00107$
                           4535 ;src/main.c:234: || scene[(player.y+tileheight-2)/tileheight][(player.x+tilewidth-1)/tilewidth] == 9
   19E9 DD 7E F8      [19] 4536 	ld	a,-8 (ix)
   19EC B7            [ 4] 4537 	or	a, a
   19ED 28 06         [12] 4538 	jr	Z,00146$
   19EF DD 4E F9      [19] 4539 	ld	c,-7 (ix)
   19F2 DD 46 FA      [19] 4540 	ld	b,-6 (ix)
   19F5                    4541 00146$:
   19F5 CB 28         [ 8] 4542 	sra	b
   19F7 CB 19         [ 8] 4543 	rr	c
   19F9 CB 28         [ 8] 4544 	sra	b
   19FB CB 19         [ 8] 4545 	rr	c
   19FD CB 28         [ 8] 4546 	sra	b
   19FF CB 19         [ 8] 4547 	rr	c
   1A01 CB 28         [ 8] 4548 	sra	b
   1A03 CB 19         [ 8] 4549 	rr	c
   1A05 69            [ 4] 4550 	ld	l, c
   1A06 60            [ 4] 4551 	ld	h, b
   1A07 29            [11] 4552 	add	hl, hl
   1A08 29            [11] 4553 	add	hl, hl
   1A09 09            [11] 4554 	add	hl, bc
   1A0A 29            [11] 4555 	add	hl, hl
   1A0B 29            [11] 4556 	add	hl, hl
   1A0C 3Er00         [ 7] 4557 	ld	a,#<(_scene)
   1A0E 85            [ 4] 4558 	add	a, l
   1A0F DD 77 F9      [19] 4559 	ld	-7 (ix),a
   1A12 3Es00         [ 7] 4560 	ld	a,#>(_scene)
   1A14 8C            [ 4] 4561 	adc	a, h
   1A15 DD 77 FA      [19] 4562 	ld	-6 (ix),a
   1A18 DD 6E FB      [19] 4563 	ld	l,-5 (ix)
   1A1B DD 66 FC      [19] 4564 	ld	h,-4 (ix)
   1A1E DD 7E FD      [19] 4565 	ld	a,-3 (ix)
   1A21 B7            [ 4] 4566 	or	a, a
   1A22 28 02         [12] 4567 	jr	Z,00147$
   1A24 E1            [10] 4568 	pop	hl
   1A25 E5            [11] 4569 	push	hl
   1A26                    4570 00147$:
   1A26 CB 2C         [ 8] 4571 	sra	h
   1A28 CB 1D         [ 8] 4572 	rr	l
   1A2A CB 2C         [ 8] 4573 	sra	h
   1A2C CB 1D         [ 8] 4574 	rr	l
   1A2E DD 5E F9      [19] 4575 	ld	e,-7 (ix)
   1A31 DD 56 FA      [19] 4576 	ld	d,-6 (ix)
   1A34 19            [11] 4577 	add	hl,de
   1A35 7E            [ 7] 4578 	ld	a,(hl)
   1A36 D6 09         [ 7] 4579 	sub	a, #0x09
   1A38 20 1A         [12] 4580 	jr	NZ,00130$
   1A3A                    4581 00107$:
                           4582 ;src/main.c:237: cpct_clearScreen(0);
   1A3A 21 00 40      [10] 4583 	ld	hl,#0x4000
   1A3D E5            [11] 4584 	push	hl
   1A3E AF            [ 4] 4585 	xor	a, a
   1A3F F5            [11] 4586 	push	af
   1A40 33            [ 6] 4587 	inc	sp
   1A41 26 C0         [ 7] 4588 	ld	h, #0xC0
   1A43 E5            [11] 4589 	push	hl
   1A44 CDr00r00      [17] 4590 	call	_cpct_memset
                           4591 ;src/main.c:238: map+=1;
   1A47 21rF1r00      [10] 4592 	ld	hl, #_map+0
   1A4A 34            [11] 4593 	inc	(hl)
                           4594 ;src/main.c:239: drawMap(map);
   1A4B 3ArF1r00      [13] 4595 	ld	a,(_map)
   1A4E F5            [11] 4596 	push	af
   1A4F 33            [ 6] 4597 	inc	sp
   1A50 CDr00r00      [17] 4598 	call	_drawMap
   1A53 33            [ 6] 4599 	inc	sp
   1A54                    4600 00130$:
   1A54 DD F9         [10] 4601 	ld	sp, ix
   1A56 DD E1         [14] 4602 	pop	ix
   1A58 C9            [10] 4603 	ret
                           4604 ;src/main.c:248: void followPlayer(){
                           4605 ;	---------------------------------
                           4606 ; Function followPlayer
                           4607 ; ---------------------------------
   1A59                    4608 _followPlayer::
   1A59 DD E5         [15] 4609 	push	ix
   1A5B DD 21 00 00   [14] 4610 	ld	ix,#0
   1A5F DD 39         [15] 4611 	add	ix,sp
   1A61 21 F6 FF      [10] 4612 	ld	hl,#-10
   1A64 39            [11] 4613 	add	hl,sp
   1A65 F9            [ 6] 4614 	ld	sp,hl
                           4615 ;src/main.c:251: if(detectPlayerRoom(player.x,player.y) != enemy.room){
   1A66 21r0Fr01      [10] 4616 	ld	hl, #(_player + 0x0001) + 0
   1A69 56            [ 7] 4617 	ld	d,(hl)
   1A6A 3Ar0Er01      [13] 4618 	ld	a, (#_player + 0)
   1A6D D5            [11] 4619 	push	de
   1A6E 33            [ 6] 4620 	inc	sp
   1A6F F5            [11] 4621 	push	af
   1A70 33            [ 6] 4622 	inc	sp
   1A71 CDr5Cr09      [17] 4623 	call	_detectPlayerRoom
   1A74 F1            [10] 4624 	pop	af
   1A75 DD 75 FD      [19] 4625 	ld	-3 (ix),l
   1A78 21r24r01      [10] 4626 	ld	hl, #_enemy + 11
   1A7B 56            [ 7] 4627 	ld	d,(hl)
   1A7C DD 7E FD      [19] 4628 	ld	a,-3 (ix)
   1A7F 92            [ 4] 4629 	sub	a, d
   1A80 28 0C         [12] 4630 	jr	Z,00102$
                           4631 ;src/main.c:252: auxX = enemy.seenX;
   1A82 3Ar25r01      [13] 4632 	ld	a,(#_enemy + 12)
   1A85 DD 77 FD      [19] 4633 	ld	-3 (ix),a
                           4634 ;src/main.c:253: auxY = enemy.seenY;
   1A88 21r26r01      [10] 4635 	ld	hl, #_enemy + 13
   1A8B 4E            [ 7] 4636 	ld	c,(hl)
   1A8C 18 0B         [12] 4637 	jr	00103$
   1A8E                    4638 00102$:
                           4639 ;src/main.c:255: auxX = player.x;
   1A8E 21r0Er01      [10] 4640 	ld	hl, #_player + 0
   1A91 7E            [ 7] 4641 	ld	a,(hl)
   1A92 DD 77 FD      [19] 4642 	ld	-3 (ix),a
                           4643 ;src/main.c:256: auxY = player.y;
   1A95 21r0Fr01      [10] 4644 	ld	hl, #(_player + 0x0001) + 0
   1A98 4E            [ 7] 4645 	ld	c,(hl)
   1A99                    4646 00103$:
                           4647 ;src/main.c:292: if(temp%2==0){
   1A99 3ArF0r00      [13] 4648 	ld	a,(#_temp + 0)
   1A9C E6 01         [ 7] 4649 	and	a, #0x01
   1A9E DD 77 FC      [19] 4650 	ld	-4 (ix),a
                           4651 ;src/main.c:293: if(auxX < enemy.x){
   1AA1 21r19r01      [10] 4652 	ld	hl, #_enemy + 0
   1AA4 5E            [ 7] 4653 	ld	e,(hl)
                           4654 ;src/main.c:294: if(scene[(enemy.y)/tileheight][(enemy.x)/tilewidth] != 1) enemy.x-=1;
   1AA5 3Ar1Ar01      [13] 4655 	ld	a,(#(_enemy + 0x0001) + 0)
   1AA8 DD 77 FE      [19] 4656 	ld	-2 (ix),a
   1AAB 7B            [ 4] 4657 	ld	a,e
   1AAC 0F            [ 4] 4658 	rrca
   1AAD 0F            [ 4] 4659 	rrca
   1AAE E6 3F         [ 7] 4660 	and	a,#0x3F
   1AB0 DD 77 FF      [19] 4661 	ld	-1 (ix),a
                           4662 ;src/main.c:297: if(scene[(enemy.y)/tileheight][(enemy.x+tilewidth)/tilewidth] != 1) enemy.x+=1;
   1AB3 DD 73 FA      [19] 4663 	ld	-6 (ix),e
   1AB6 DD 36 FB 00   [19] 4664 	ld	-5 (ix),#0x00
                           4665 ;src/main.c:294: if(scene[(enemy.y)/tileheight][(enemy.x)/tilewidth] != 1) enemy.x-=1;
   1ABA DD 7E FE      [19] 4666 	ld	a,-2 (ix)
   1ABD 07            [ 4] 4667 	rlca
   1ABE 07            [ 4] 4668 	rlca
   1ABF 07            [ 4] 4669 	rlca
   1AC0 07            [ 4] 4670 	rlca
   1AC1 E6 0F         [ 7] 4671 	and	a,#0x0F
   1AC3 D5            [11] 4672 	push	de
   1AC4 5F            [ 4] 4673 	ld	e,a
   1AC5 16 00         [ 7] 4674 	ld	d,#0x00
   1AC7 6B            [ 4] 4675 	ld	l, e
   1AC8 62            [ 4] 4676 	ld	h, d
   1AC9 29            [11] 4677 	add	hl, hl
   1ACA 29            [11] 4678 	add	hl, hl
   1ACB 19            [11] 4679 	add	hl, de
   1ACC 29            [11] 4680 	add	hl, hl
   1ACD 29            [11] 4681 	add	hl, hl
   1ACE D1            [10] 4682 	pop	de
   1ACF DD 75 F8      [19] 4683 	ld	-8 (ix),l
   1AD2 DD 74 F9      [19] 4684 	ld	-7 (ix),h
                           4685 ;src/main.c:292: if(temp%2==0){
   1AD5 DD 7E FC      [19] 4686 	ld	a,-4 (ix)
   1AD8 B7            [ 4] 4687 	or	a, a
   1AD9 20 69         [12] 4688 	jr	NZ,00119$
                           4689 ;src/main.c:293: if(auxX < enemy.x){
   1ADB DD 7E FD      [19] 4690 	ld	a,-3 (ix)
   1ADE 93            [ 4] 4691 	sub	a, e
   1ADF 30 1D         [12] 4692 	jr	NC,00109$
                           4693 ;src/main.c:294: if(scene[(enemy.y)/tileheight][(enemy.x)/tilewidth] != 1) enemy.x-=1;
   1AE1 21r00r00      [10] 4694 	ld	hl,#_scene+0
   1AE4 DD 4E F8      [19] 4695 	ld	c,-8 (ix)
   1AE7 DD 46 F9      [19] 4696 	ld	b,-7 (ix)
   1AEA 09            [11] 4697 	add	hl,bc
   1AEB DD 4E FF      [19] 4698 	ld	c,-1 (ix)
   1AEE 06 00         [ 7] 4699 	ld	b,#0x00
   1AF0 09            [11] 4700 	add	hl,bc
   1AF1 7E            [ 7] 4701 	ld	a,(hl)
   1AF2 3D            [ 4] 4702 	dec	a
   1AF3 CArBEr1B      [10] 4703 	jp	Z,00121$
   1AF6 1D            [ 4] 4704 	dec	e
   1AF7 21r19r01      [10] 4705 	ld	hl,#_enemy
   1AFA 73            [ 7] 4706 	ld	(hl),e
   1AFB C3rBEr1B      [10] 4707 	jp	00121$
   1AFE                    4708 00109$:
                           4709 ;src/main.c:297: if(scene[(enemy.y)/tileheight][(enemy.x+tilewidth)/tilewidth] != 1) enemy.x+=1;
   1AFE DD 7E F8      [19] 4710 	ld	a,-8 (ix)
   1B01 C6r00         [ 7] 4711 	add	a, #<(_scene)
   1B03 4F            [ 4] 4712 	ld	c,a
   1B04 DD 7E F9      [19] 4713 	ld	a,-7 (ix)
   1B07 CEs00         [ 7] 4714 	adc	a, #>(_scene)
   1B09 47            [ 4] 4715 	ld	b,a
   1B0A DD 7E FA      [19] 4716 	ld	a,-6 (ix)
   1B0D C6 04         [ 7] 4717 	add	a, #0x04
   1B0F DD 77 F6      [19] 4718 	ld	-10 (ix),a
   1B12 DD 7E FB      [19] 4719 	ld	a,-5 (ix)
   1B15 CE 00         [ 7] 4720 	adc	a, #0x00
   1B17 DD 77 F7      [19] 4721 	ld	-9 (ix),a
   1B1A E1            [10] 4722 	pop	hl
   1B1B E5            [11] 4723 	push	hl
   1B1C DD CB F7 7E   [20] 4724 	bit	7, -9 (ix)
   1B20 28 0C         [12] 4725 	jr	Z,00123$
   1B22 DD 7E FA      [19] 4726 	ld	a,-6 (ix)
   1B25 C6 07         [ 7] 4727 	add	a, #0x07
   1B27 6F            [ 4] 4728 	ld	l,a
   1B28 DD 7E FB      [19] 4729 	ld	a,-5 (ix)
   1B2B CE 00         [ 7] 4730 	adc	a, #0x00
   1B2D 67            [ 4] 4731 	ld	h,a
   1B2E                    4732 00123$:
   1B2E CB 2C         [ 8] 4733 	sra	h
   1B30 CB 1D         [ 8] 4734 	rr	l
   1B32 CB 2C         [ 8] 4735 	sra	h
   1B34 CB 1D         [ 8] 4736 	rr	l
   1B36 09            [11] 4737 	add	hl,bc
   1B37 7E            [ 7] 4738 	ld	a,(hl)
   1B38 3D            [ 4] 4739 	dec	a
   1B39 CArBEr1B      [10] 4740 	jp	Z,00121$
   1B3C 1C            [ 4] 4741 	inc	e
   1B3D 21r19r01      [10] 4742 	ld	hl,#_enemy
   1B40 73            [ 7] 4743 	ld	(hl),e
   1B41 C3rBEr1B      [10] 4744 	jp	00121$
   1B44                    4745 00119$:
                           4746 ;src/main.c:300: if(auxY < enemy.y){
   1B44 79            [ 4] 4747 	ld	a,c
   1B45 DD 96 FE      [19] 4748 	sub	a, -2 (ix)
   1B48 30 1E         [12] 4749 	jr	NC,00116$
                           4750 ;src/main.c:301: if(scene[(enemy.y)/tileheight][(enemy.x)/tilewidth] != 1) enemy.y-=1;
   1B4A 21r00r00      [10] 4751 	ld	hl,#_scene+0
   1B4D DD 5E F8      [19] 4752 	ld	e,-8 (ix)
   1B50 DD 56 F9      [19] 4753 	ld	d,-7 (ix)
   1B53 19            [11] 4754 	add	hl,de
   1B54 DD 5E FF      [19] 4755 	ld	e,-1 (ix)
   1B57 16 00         [ 7] 4756 	ld	d,#0x00
   1B59 19            [11] 4757 	add	hl,de
   1B5A 7E            [ 7] 4758 	ld	a,(hl)
   1B5B 3D            [ 4] 4759 	dec	a
   1B5C 28 60         [12] 4760 	jr	Z,00121$
   1B5E DD 56 FE      [19] 4761 	ld	d,-2 (ix)
   1B61 15            [ 4] 4762 	dec	d
   1B62 21r1Ar01      [10] 4763 	ld	hl,#(_enemy + 0x0001)
   1B65 72            [ 7] 4764 	ld	(hl),d
   1B66 18 56         [12] 4765 	jr	00121$
   1B68                    4766 00116$:
                           4767 ;src/main.c:304: if(scene[(enemy.y+tilewidth)/tileheight][(enemy.x-1)/tilewidth] != 1) enemy.y+=1;
   1B68 DD 4E FE      [19] 4768 	ld	c,-2 (ix)
   1B6B 06 00         [ 7] 4769 	ld	b,#0x00
   1B6D 21 04 00      [10] 4770 	ld	hl,#0x0004
   1B70 09            [11] 4771 	add	hl,bc
   1B71 5C            [ 4] 4772 	ld	e,h
   1B72 CB 7B         [ 8] 4773 	bit	7, e
   1B74 28 04         [12] 4774 	jr	Z,00124$
   1B76 21 13 00      [10] 4775 	ld	hl,#0x0013
   1B79 09            [11] 4776 	add	hl,bc
   1B7A                    4777 00124$:
   1B7A CB 2C         [ 8] 4778 	sra	h
   1B7C CB 1D         [ 8] 4779 	rr	l
   1B7E CB 2C         [ 8] 4780 	sra	h
   1B80 CB 1D         [ 8] 4781 	rr	l
   1B82 CB 2C         [ 8] 4782 	sra	h
   1B84 CB 1D         [ 8] 4783 	rr	l
   1B86 CB 2C         [ 8] 4784 	sra	h
   1B88 CB 1D         [ 8] 4785 	rr	l
   1B8A 4D            [ 4] 4786 	ld	c, l
   1B8B 44            [ 4] 4787 	ld	b, h
   1B8C 29            [11] 4788 	add	hl, hl
   1B8D 29            [11] 4789 	add	hl, hl
   1B8E 09            [11] 4790 	add	hl, bc
   1B8F 29            [11] 4791 	add	hl, hl
   1B90 29            [11] 4792 	add	hl, hl
   1B91 11r00r00      [10] 4793 	ld	de,#_scene
   1B94 19            [11] 4794 	add	hl,de
   1B95 DD 4E FA      [19] 4795 	ld	c,-6 (ix)
   1B98 DD 46 FB      [19] 4796 	ld	b,-5 (ix)
   1B9B 0B            [ 6] 4797 	dec	bc
   1B9C 59            [ 4] 4798 	ld	e, c
   1B9D 50            [ 4] 4799 	ld	d, b
   1B9E CB 78         [ 8] 4800 	bit	7, b
   1BA0 28 08         [12] 4801 	jr	Z,00125$
   1BA2 DD 5E FA      [19] 4802 	ld	e,-6 (ix)
   1BA5 DD 56 FB      [19] 4803 	ld	d,-5 (ix)
   1BA8 13            [ 6] 4804 	inc	de
   1BA9 13            [ 6] 4805 	inc	de
   1BAA                    4806 00125$:
   1BAA CB 2A         [ 8] 4807 	sra	d
   1BAC CB 1B         [ 8] 4808 	rr	e
   1BAE CB 2A         [ 8] 4809 	sra	d
   1BB0 CB 1B         [ 8] 4810 	rr	e
   1BB2 19            [11] 4811 	add	hl,de
   1BB3 7E            [ 7] 4812 	ld	a,(hl)
   1BB4 3D            [ 4] 4813 	dec	a
   1BB5 28 07         [12] 4814 	jr	Z,00121$
   1BB7 DD 7E FE      [19] 4815 	ld	a,-2 (ix)
   1BBA 3C            [ 4] 4816 	inc	a
   1BBB 32r1Ar01      [13] 4817 	ld	(#(_enemy + 0x0001)),a
   1BBE                    4818 00121$:
   1BBE DD F9         [10] 4819 	ld	sp, ix
   1BC0 DD E1         [14] 4820 	pop	ix
   1BC2 C9            [10] 4821 	ret
                           4822 ;src/main.c:311: u8 vissionSensor(){
                           4823 ;	---------------------------------
                           4824 ; Function vissionSensor
                           4825 ; ---------------------------------
   1BC3                    4826 _vissionSensor::
   1BC3 DD E5         [15] 4827 	push	ix
   1BC5 DD 21 00 00   [14] 4828 	ld	ix,#0
   1BC9 DD 39         [15] 4829 	add	ix,sp
   1BCB 21 F9 FF      [10] 4830 	ld	hl,#-7
   1BCE 39            [11] 4831 	add	hl,sp
   1BCF F9            [ 6] 4832 	ld	sp,hl
                           4833 ;src/main.c:312: u8 following = 0;
   1BD0 DD 36 FC 00   [19] 4834 	ld	-4 (ix),#0x00
                           4835 ;src/main.c:313: u8 cx = enemy.x/tilewidth;
   1BD4 3Ar19r01      [13] 4836 	ld	a, (#_enemy + 0)
   1BD7 0F            [ 4] 4837 	rrca
   1BD8 0F            [ 4] 4838 	rrca
   1BD9 E6 3F         [ 7] 4839 	and	a,#0x3F
   1BDB DD 77 F9      [19] 4840 	ld	-7 (ix),a
                           4841 ;src/main.c:314: u8 cy = enemy.y/tilewidth;
   1BDE 3Ar1Ar01      [13] 4842 	ld	a, (#(_enemy + 0x0001) + 0)
   1BE1 0F            [ 4] 4843 	rrca
   1BE2 0F            [ 4] 4844 	rrca
   1BE3 E6 3F         [ 7] 4845 	and	a,#0x3F
   1BE5 4F            [ 4] 4846 	ld	c,a
                           4847 ;src/main.c:315: u8 pcx = player.x/tilewidth;
   1BE6 3Ar0Er01      [13] 4848 	ld	a, (#_player + 0)
   1BE9 0F            [ 4] 4849 	rrca
   1BEA 0F            [ 4] 4850 	rrca
   1BEB E6 3F         [ 7] 4851 	and	a,#0x3F
   1BED DD 77 FF      [19] 4852 	ld	-1 (ix),a
                           4853 ;src/main.c:316: u8 pcy = player.y/tilewidth;
   1BF0 3Ar0Fr01      [13] 4854 	ld	a, (#(_player + 0x0001) + 0)
   1BF3 0F            [ 4] 4855 	rrca
   1BF4 0F            [ 4] 4856 	rrca
   1BF5 E6 3F         [ 7] 4857 	and	a,#0x3F
   1BF7 DD 77 FE      [19] 4858 	ld	-2 (ix),a
                           4859 ;src/main.c:319: for(i=0;i<3;i++){
   1BFA 1E 00         [ 7] 4860 	ld	e,#0x00
   1BFC                    4861 00107$:
                           4862 ;src/main.c:320: lex = cx - i;
   1BFC DD 7E F9      [19] 4863 	ld	a,-7 (ix)
   1BFF 93            [ 4] 4864 	sub	a, e
   1C00 DD 77 FD      [19] 4865 	ld	-3 (ix),a
                           4866 ;src/main.c:321: ley = cy - i;
   1C03 79            [ 4] 4867 	ld	a,c
   1C04 93            [ 4] 4868 	sub	a, e
   1C05 DD 77 FA      [19] 4869 	ld	-6 (ix),a
                           4870 ;src/main.c:322: mex = cx + i;
   1C08 DD 7E F9      [19] 4871 	ld	a,-7 (ix)
   1C0B 83            [ 4] 4872 	add	a, e
   1C0C DD 77 FB      [19] 4873 	ld	-5 (ix),a
                           4874 ;src/main.c:323: mey = cy + i;
   1C0F 79            [ 4] 4875 	ld	a,c
   1C10 83            [ 4] 4876 	add	a, e
   1C11 57            [ 4] 4877 	ld	d,a
                           4878 ;src/main.c:324: if(lex == pcx || ley == pcy || mex == pcx || mey == pcy){
   1C12 DD 7E FD      [19] 4879 	ld	a,-3 (ix)
   1C15 DD 96 FF      [19] 4880 	sub	a, -1 (ix)
   1C18 28 16         [12] 4881 	jr	Z,00101$
   1C1A DD 7E FA      [19] 4882 	ld	a,-6 (ix)
   1C1D DD 96 FE      [19] 4883 	sub	a, -2 (ix)
   1C20 28 0E         [12] 4884 	jr	Z,00101$
   1C22 DD 7E FB      [19] 4885 	ld	a,-5 (ix)
   1C25 DD 96 FF      [19] 4886 	sub	a, -1 (ix)
   1C28 28 06         [12] 4887 	jr	Z,00101$
   1C2A DD 7E FE      [19] 4888 	ld	a,-2 (ix)
   1C2D 92            [ 4] 4889 	sub	a, d
   1C2E 20 04         [12] 4890 	jr	NZ,00108$
   1C30                    4891 00101$:
                           4892 ;src/main.c:325: following = 1;
   1C30 DD 36 FC 01   [19] 4893 	ld	-4 (ix),#0x01
   1C34                    4894 00108$:
                           4895 ;src/main.c:319: for(i=0;i<3;i++){
   1C34 1C            [ 4] 4896 	inc	e
   1C35 7B            [ 4] 4897 	ld	a,e
   1C36 D6 03         [ 7] 4898 	sub	a, #0x03
   1C38 38 C2         [12] 4899 	jr	C,00107$
                           4900 ;src/main.c:329: return following;
   1C3A DD 6E FC      [19] 4901 	ld	l,-4 (ix)
   1C3D DD F9         [10] 4902 	ld	sp, ix
   1C3F DD E1         [14] 4903 	pop	ix
   1C41 C9            [10] 4904 	ret
                           4905 ;src/main.c:333: void shoot(){
                           4906 ;	---------------------------------
                           4907 ; Function shoot
                           4908 ; ---------------------------------
   1C42                    4909 _shoot::
   1C42 DD E5         [15] 4910 	push	ix
   1C44 DD 21 00 00   [14] 4911 	ld	ix,#0
   1C48 DD 39         [15] 4912 	add	ix,sp
   1C4A 3B            [ 6] 4913 	dec	sp
                           4914 ;src/main.c:334: u8 *spr = flecha_dcha,xs=2,ys=8;
   1C4B 01r00r00      [10] 4915 	ld	bc,#_flecha_dcha
   1C4E 1E 02         [ 7] 4916 	ld	e,#0x02
   1C50 DD 36 FF 08   [19] 4917 	ld	-1 (ix),#0x08
                           4918 ;src/main.c:335: switch(enemy.dir){
   1C54 3Ar22r01      [13] 4919 	ld	a,(#(_enemy + 0x0009) + 0)
   1C57 FE 02         [ 7] 4920 	cp	a,#0x02
   1C59 28 24         [12] 4921 	jr	Z,00103$
   1C5B FE 04         [ 7] 4922 	cp	a,#0x04
   1C5D 28 15         [12] 4923 	jr	Z,00102$
   1C5F FE 06         [ 7] 4924 	cp	a,#0x06
   1C61 28 06         [12] 4925 	jr	Z,00101$
   1C63 D6 08         [ 7] 4926 	sub	a, #0x08
   1C65 28 23         [12] 4927 	jr	Z,00104$
   1C67 18 2A         [12] 4928 	jr	00105$
                           4929 ;src/main.c:336: case 6: spr = flecha_dcha; xs=4;ys=4; break;
   1C69                    4930 00101$:
   1C69 01r00r00      [10] 4931 	ld	bc,#_flecha_dcha
   1C6C 1E 04         [ 7] 4932 	ld	e,#0x04
   1C6E DD 36 FF 04   [19] 4933 	ld	-1 (ix),#0x04
   1C72 18 1F         [12] 4934 	jr	00105$
                           4935 ;src/main.c:337: case 4: spr = flecha_izda; xs=4;ys=4; break;
   1C74                    4936 00102$:
   1C74 01r00r00      [10] 4937 	ld	bc,#_flecha_izda+0
   1C77 1E 04         [ 7] 4938 	ld	e,#0x04
   1C79 DD 36 FF 04   [19] 4939 	ld	-1 (ix),#0x04
   1C7D 18 14         [12] 4940 	jr	00105$
                           4941 ;src/main.c:338: case 2: spr = flecha_abajo; xs=2;ys=8; break;
   1C7F                    4942 00103$:
   1C7F 01r00r00      [10] 4943 	ld	bc,#_flecha_abajo+0
   1C82 1E 02         [ 7] 4944 	ld	e,#0x02
   1C84 DD 36 FF 08   [19] 4945 	ld	-1 (ix),#0x08
   1C88 18 09         [12] 4946 	jr	00105$
                           4947 ;src/main.c:339: case 8: spr = flecha_arriba; xs=2;ys=8; break;
   1C8A                    4948 00104$:
   1C8A 01r00r00      [10] 4949 	ld	bc,#_flecha_arriba+0
   1C8D 1E 02         [ 7] 4950 	ld	e,#0x02
   1C8F DD 36 FF 08   [19] 4951 	ld	-1 (ix),#0x08
                           4952 ;src/main.c:340: }
   1C93                    4953 00105$:
                           4954 ;src/main.c:341: earrow.x = enemy.x;
   1C93 3Ar19r01      [13] 4955 	ld	a, (#_enemy + 0)
   1C96 32r04r01      [13] 4956 	ld	(#_earrow),a
                           4957 ;src/main.c:342: earrow.y = enemy.y+8;
   1C99 3Ar1Ar01      [13] 4958 	ld	a, (#_enemy + 1)
   1C9C C6 08         [ 7] 4959 	add	a, #0x08
   1C9E 32r05r01      [13] 4960 	ld	(#(_earrow + 0x0001)),a
                           4961 ;src/main.c:343: earrow.x = earrow.x;
   1CA1 21r04r01      [10] 4962 	ld	hl, #_earrow + 0
   1CA4 56            [ 7] 4963 	ld	d,(hl)
   1CA5 21r04r01      [10] 4964 	ld	hl,#_earrow
   1CA8 72            [ 7] 4965 	ld	(hl),d
                           4966 ;src/main.c:344: earrow.y = earrow.y;
   1CA9 32r05r01      [13] 4967 	ld	(#(_earrow + 0x0001)),a
                           4968 ;src/main.c:345: earrow.sprite = spr;
   1CAC ED 43r08r01   [20] 4969 	ld	((_earrow + 0x0004)), bc
                           4970 ;src/main.c:346: earrow.vivo = 1;
   1CB0 21r0Ar01      [10] 4971 	ld	hl,#_earrow + 6
   1CB3 36 01         [10] 4972 	ld	(hl),#0x01
                           4973 ;src/main.c:347: earrow.dir = enemy.dir;
   1CB5 01r0Br01      [10] 4974 	ld	bc,#_earrow + 7
   1CB8 3Ar22r01      [13] 4975 	ld	a, (#(_enemy + 0x0009) + 0)
   1CBB 02            [ 7] 4976 	ld	(bc),a
                           4977 ;src/main.c:348: earrow.sizeX = xs;
   1CBC 21r0Cr01      [10] 4978 	ld	hl,#_earrow + 8
   1CBF 73            [ 7] 4979 	ld	(hl),e
                           4980 ;src/main.c:349: earrow.sizeY = ys;
   1CC0 21r0Dr01      [10] 4981 	ld	hl,#_earrow + 9
   1CC3 DD 7E FF      [19] 4982 	ld	a,-1 (ix)
   1CC6 77            [ 7] 4983 	ld	(hl),a
                           4984 ;src/main.c:350: enemy.bullets--;
   1CC7 21r23r01      [10] 4985 	ld	hl,#_enemy + 10
   1CCA 56            [ 7] 4986 	ld	d,(hl)
   1CCB 15            [ 4] 4987 	dec	d
   1CCC 72            [ 7] 4988 	ld	(hl),d
                           4989 ;src/main.c:351: shooted = 1;
   1CCD 21rF5r00      [10] 4990 	ld	hl,#_shooted + 0
   1CD0 36 01         [10] 4991 	ld	(hl), #0x01
   1CD2 33            [ 6] 4992 	inc	sp
   1CD3 DD E1         [14] 4993 	pop	ix
   1CD5 C9            [10] 4994 	ret
                           4995 ;src/main.c:360: void arrowCheckings(u8 c){
                           4996 ;	---------------------------------
                           4997 ; Function arrowCheckings
                           4998 ; ---------------------------------
   1CD6                    4999 _arrowCheckings::
   1CD6 DD E5         [15] 5000 	push	ix
   1CD8 DD 21 00 00   [14] 5001 	ld	ix,#0
   1CDC DD 39         [15] 5002 	add	ix,sp
   1CDE 3B            [ 6] 5003 	dec	sp
                           5004 ;src/main.c:362: if(c == 0){
   1CDF DD 7E 04      [19] 5005 	ld	a,4 (ix)
   1CE2 B7            [ 4] 5006 	or	a, a
   1CE3 C2r69r1D      [10] 5007 	jp	NZ,00122$
                           5008 ;src/main.c:363: if(arrow == 1){
   1CE6 3ArF4r00      [13] 5009 	ld	a,(#_arrow + 0)
   1CE9 3D            [ 4] 5010 	dec	a
   1CEA C2rE7r1D      [10] 5011 	jp	NZ,00124$
                           5012 ;src/main.c:364: moveObject(0);
   1CED AF            [ 4] 5013 	xor	a, a
   1CEE F5            [11] 5014 	push	af
   1CEF 33            [ 6] 5015 	inc	sp
   1CF0 CDrB0r13      [17] 5016 	call	_moveObject
   1CF3 33            [ 6] 5017 	inc	sp
                           5018 ;src/main.c:365: bound = checkArrowCollisions();
   1CF4 CDrF3r0C      [17] 5019 	call	_checkArrowCollisions
   1CF7 FD 21rF7r00   [14] 5020 	ld	iy,#_bound
   1CFB FD 75 00      [19] 5021 	ld	0 (iy),l
                           5022 ;src/main.c:367: if(parrow.dir == 2 || parrow.dir == 8) atkObj = 21;
   1CFE 3Ar01r01      [13] 5023 	ld	a,(#_parrow + 7)
   1D01 FE 02         [ 7] 5024 	cp	a,#0x02
   1D03 28 04         [12] 5025 	jr	Z,00101$
   1D05 D6 08         [ 7] 5026 	sub	a, #0x08
   1D07 20 04         [12] 5027 	jr	NZ,00102$
   1D09                    5028 00101$:
   1D09 0E 15         [ 7] 5029 	ld	c,#0x15
   1D0B 18 02         [12] 5030 	jr	00103$
   1D0D                    5031 00102$:
                           5032 ;src/main.c:368: else atkObj = 22;
   1D0D 0E 16         [ 7] 5033 	ld	c,#0x16
   1D0F                    5034 00103$:
                           5035 ;src/main.c:370: if(enemy.life > 0 && checkCollisions(parrow.x, parrow.y, enemy.x, enemy.y, atkObj) == 1 && bound == 0){
   1D0F 3Ar21r01      [13] 5036 	ld	a, (#(_enemy + 0x0008) + 0)
   1D12 B7            [ 4] 5037 	or	a, a
   1D13 CArE7r1D      [10] 5038 	jp	Z,00124$
   1D16 21r1Ar01      [10] 5039 	ld	hl, #(_enemy + 0x0001) + 0
   1D19 46            [ 7] 5040 	ld	b,(hl)
   1D1A 21r19r01      [10] 5041 	ld	hl, #_enemy + 0
   1D1D 5E            [ 7] 5042 	ld	e,(hl)
   1D1E 3ArFBr00      [13] 5043 	ld	a,(#_parrow + 1)
   1D21 DD 77 FF      [19] 5044 	ld	-1 (ix),a
   1D24 21rFAr00      [10] 5045 	ld	hl, #_parrow + 0
   1D27 56            [ 7] 5046 	ld	d,(hl)
   1D28 79            [ 4] 5047 	ld	a,c
   1D29 F5            [11] 5048 	push	af
   1D2A 33            [ 6] 5049 	inc	sp
   1D2B C5            [11] 5050 	push	bc
   1D2C 33            [ 6] 5051 	inc	sp
   1D2D 7B            [ 4] 5052 	ld	a,e
   1D2E F5            [11] 5053 	push	af
   1D2F 33            [ 6] 5054 	inc	sp
   1D30 DD 7E FF      [19] 5055 	ld	a,-1 (ix)
   1D33 F5            [11] 5056 	push	af
   1D34 33            [ 6] 5057 	inc	sp
   1D35 D5            [11] 5058 	push	de
   1D36 33            [ 6] 5059 	inc	sp
   1D37 CDrD2r0B      [17] 5060 	call	_checkCollisions
   1D3A F1            [10] 5061 	pop	af
   1D3B F1            [10] 5062 	pop	af
   1D3C 33            [ 6] 5063 	inc	sp
   1D3D 2D            [ 4] 5064 	dec	l
   1D3E C2rE7r1D      [10] 5065 	jp	NZ,00124$
   1D41 3ArF7r00      [13] 5066 	ld	a,(#_bound + 0)
   1D44 B7            [ 4] 5067 	or	a, a
   1D45 C2rE7r1D      [10] 5068 	jp	NZ,00124$
                           5069 ;src/main.c:371: enemy.life -= 1;
   1D48 3Ar21r01      [13] 5070 	ld	a, (#(_enemy + 0x0008) + 0)
   1D4B C6 FF         [ 7] 5071 	add	a,#0xFF
   1D4D 32r21r01      [13] 5072 	ld	(#(_enemy + 0x0008)),a
                           5073 ;src/main.c:372: enemy.x = enemy.ox;
   1D50 3Ar1Dr01      [13] 5074 	ld	a, (#_enemy + 4)
   1D53 32r19r01      [13] 5075 	ld	(#_enemy),a
                           5076 ;src/main.c:373: enemy.y = enemy.oy;
   1D56 3Ar1Er01      [13] 5077 	ld	a, (#_enemy + 5)
   1D59 32r1Ar01      [13] 5078 	ld	(#(_enemy + 0x0001)),a
                           5079 ;src/main.c:374: parrow.vivo = 0;
   1D5C 21r00r01      [10] 5080 	ld	hl,#_parrow + 6
   1D5F 36 00         [10] 5081 	ld	(hl),#0x00
                           5082 ;src/main.c:375: bound = 1;
   1D61 21rF7r00      [10] 5083 	ld	hl,#_bound + 0
   1D64 36 01         [10] 5084 	ld	(hl), #0x01
   1D66 C3rE7r1D      [10] 5085 	jp	00124$
   1D69                    5086 00122$:
                           5087 ;src/main.c:380: if(shooted == 1){
   1D69 3ArF5r00      [13] 5088 	ld	a,(#_shooted + 0)
   1D6C 3D            [ 4] 5089 	dec	a
   1D6D 20 78         [12] 5090 	jr	NZ,00124$
                           5091 ;src/main.c:381: moveObject(1);
   1D6F 3E 01         [ 7] 5092 	ld	a,#0x01
   1D71 F5            [11] 5093 	push	af
   1D72 33            [ 6] 5094 	inc	sp
   1D73 CDrB0r13      [17] 5095 	call	_moveObject
   1D76 33            [ 6] 5096 	inc	sp
                           5097 ;src/main.c:382: bounds = checkArrowCollisions();
   1D77 CDrF3r0C      [17] 5098 	call	_checkArrowCollisions
   1D7A FD 21rF8r00   [14] 5099 	ld	iy,#_bounds
   1D7E FD 75 00      [19] 5100 	ld	0 (iy),l
                           5101 ;src/main.c:384: if(earrow.dir == 2 || earrow.dir == 8) atkObj = 21;
   1D81 21r0Br01      [10] 5102 	ld	hl, #_earrow + 7
   1D84 66            [ 7] 5103 	ld	h,(hl)
   1D85 7C            [ 4] 5104 	ld	a,h
   1D86 D6 02         [ 7] 5105 	sub	a, #0x02
   1D88 28 05         [12] 5106 	jr	Z,00111$
   1D8A 7C            [ 4] 5107 	ld	a,h
   1D8B D6 08         [ 7] 5108 	sub	a, #0x08
   1D8D 20 04         [12] 5109 	jr	NZ,00112$
   1D8F                    5110 00111$:
   1D8F 0E 15         [ 7] 5111 	ld	c,#0x15
   1D91 18 02         [12] 5112 	jr	00113$
   1D93                    5113 00112$:
                           5114 ;src/main.c:385: else atkObj = 22;
   1D93 0E 16         [ 7] 5115 	ld	c,#0x16
   1D95                    5116 00113$:
                           5117 ;src/main.c:387: if(player.life > 0 && checkCollisions(earrow.x, earrow.y, player.x, player.y, atkObj) == 1 && bounds == 0){
   1D95 3Ar14r01      [13] 5118 	ld	a, (#(_player + 0x0006) + 0)
   1D98 B7            [ 4] 5119 	or	a, a
   1D99 28 4C         [12] 5120 	jr	Z,00124$
   1D9B 21r0Fr01      [10] 5121 	ld	hl, #(_player + 0x0001) + 0
   1D9E 46            [ 7] 5122 	ld	b,(hl)
   1D9F 21r0Er01      [10] 5123 	ld	hl, #_player + 0
   1DA2 5E            [ 7] 5124 	ld	e,(hl)
   1DA3 3Ar05r01      [13] 5125 	ld	a,(#_earrow + 1)
   1DA6 DD 77 FF      [19] 5126 	ld	-1 (ix),a
   1DA9 21r04r01      [10] 5127 	ld	hl, #_earrow + 0
   1DAC 56            [ 7] 5128 	ld	d,(hl)
   1DAD 79            [ 4] 5129 	ld	a,c
   1DAE F5            [11] 5130 	push	af
   1DAF 33            [ 6] 5131 	inc	sp
   1DB0 C5            [11] 5132 	push	bc
   1DB1 33            [ 6] 5133 	inc	sp
   1DB2 7B            [ 4] 5134 	ld	a,e
   1DB3 F5            [11] 5135 	push	af
   1DB4 33            [ 6] 5136 	inc	sp
   1DB5 DD 7E FF      [19] 5137 	ld	a,-1 (ix)
   1DB8 F5            [11] 5138 	push	af
   1DB9 33            [ 6] 5139 	inc	sp
   1DBA D5            [11] 5140 	push	de
   1DBB 33            [ 6] 5141 	inc	sp
   1DBC CDrD2r0B      [17] 5142 	call	_checkCollisions
   1DBF F1            [10] 5143 	pop	af
   1DC0 F1            [10] 5144 	pop	af
   1DC1 33            [ 6] 5145 	inc	sp
   1DC2 2D            [ 4] 5146 	dec	l
   1DC3 20 22         [12] 5147 	jr	NZ,00124$
   1DC5 3ArF8r00      [13] 5148 	ld	a,(#_bounds + 0)
   1DC8 B7            [ 4] 5149 	or	a, a
   1DC9 20 1C         [12] 5150 	jr	NZ,00124$
                           5151 ;src/main.c:388: player.life -= 1;
   1DCB 3Ar14r01      [13] 5152 	ld	a, (#(_player + 0x0006) + 0)
   1DCE C6 FF         [ 7] 5153 	add	a,#0xFF
   1DD0 32r14r01      [13] 5154 	ld	(#(_player + 0x0006)),a
                           5155 ;src/main.c:389: player.x = 0;
   1DD3 21r0Er01      [10] 5156 	ld	hl,#_player
   1DD6 36 00         [10] 5157 	ld	(hl),#0x00
                           5158 ;src/main.c:390: player.y = 80;
   1DD8 21r0Fr01      [10] 5159 	ld	hl,#(_player + 0x0001)
   1DDB 36 50         [10] 5160 	ld	(hl),#0x50
                           5161 ;src/main.c:391: earrow.vivo = 0;
   1DDD 21r0Ar01      [10] 5162 	ld	hl,#_earrow + 6
   1DE0 36 00         [10] 5163 	ld	(hl),#0x00
                           5164 ;src/main.c:392: bounds = 1;
   1DE2 21rF8r00      [10] 5165 	ld	hl,#_bounds + 0
   1DE5 36 01         [10] 5166 	ld	(hl), #0x01
   1DE7                    5167 00124$:
   1DE7 33            [ 6] 5168 	inc	sp
   1DE8 DD E1         [14] 5169 	pop	ix
   1DEA C9            [10] 5170 	ret
                           5171 ;src/main.c:400: void move(){
                           5172 ;	---------------------------------
                           5173 ; Function move
                           5174 ; ---------------------------------
   1DEB                    5175 _move::
                           5176 ;src/main.c:402: if(temp > 10){
   1DEB 3E 0A         [ 7] 5177 	ld	a,#0x0A
   1DED FD 21rF0r00   [14] 5178 	ld	iy,#_temp
   1DF1 FD 96 00      [19] 5179 	sub	a, 0 (iy)
   1DF4 30 49         [12] 5180 	jr	NC,00123$
                           5181 ;src/main.c:403: enemy.dir = chooseDirection();
   1DF6 CDr89r09      [17] 5182 	call	_chooseDirection
   1DF9 7D            [ 4] 5183 	ld	a,l
   1DFA 21r22r01      [10] 5184 	ld	hl,#(_enemy + 0x0009)
   1DFD 77            [ 7] 5185 	ld	(hl),a
                           5186 ;src/main.c:404: following = detectPlayerRoom(player.x,player.y);
   1DFE 21r0Fr01      [10] 5187 	ld	hl, #_player + 1
   1E01 56            [ 7] 5188 	ld	d,(hl)
   1E02 3Ar0Er01      [13] 5189 	ld	a, (#_player + 0)
   1E05 D5            [11] 5190 	push	de
   1E06 33            [ 6] 5191 	inc	sp
   1E07 F5            [11] 5192 	push	af
   1E08 33            [ 6] 5193 	inc	sp
   1E09 CDr5Cr09      [17] 5194 	call	_detectPlayerRoom
   1E0C F1            [10] 5195 	pop	af
   1E0D FD 21rF6r00   [14] 5196 	ld	iy,#_following
   1E11 FD 75 00      [19] 5197 	ld	0 (iy),l
                           5198 ;src/main.c:409: if(following == enemy.room || enemy.pursue != 0){
   1E14 21r24r01      [10] 5199 	ld	hl, #_enemy + 11
   1E17 4E            [ 7] 5200 	ld	c,(hl)
   1E18 11r27r01      [10] 5201 	ld	de,#_enemy + 14
   1E1B 1A            [ 7] 5202 	ld	a,(de)
   1E1C 47            [ 4] 5203 	ld	b,a
   1E1D 3ArF6r00      [13] 5204 	ld	a,(#_following + 0)
   1E20 91            [ 4] 5205 	sub	a, c
   1E21 28 04         [12] 5206 	jr	Z,00106$
   1E23 78            [ 4] 5207 	ld	a,b
   1E24 B7            [ 4] 5208 	or	a, a
   1E25 28 11         [12] 5209 	jr	Z,00107$
   1E27                    5210 00106$:
                           5211 ;src/main.c:410: if(enemy.pursue == 0)
   1E27 78            [ 4] 5212 	ld	a,b
   1E28 B7            [ 4] 5213 	or	a, a
   1E29 20 05         [12] 5214 	jr	NZ,00104$
                           5215 ;src/main.c:411: enemy.pursue = 3;
   1E2B 3E 03         [ 7] 5216 	ld	a,#0x03
   1E2D 12            [ 7] 5217 	ld	(de),a
   1E2E 18 08         [12] 5218 	jr	00107$
   1E30                    5219 00104$:
                           5220 ;src/main.c:412: else if(enemy.pursue > 1)
   1E30 3E 01         [ 7] 5221 	ld	a,#0x01
   1E32 90            [ 4] 5222 	sub	a, b
   1E33 30 03         [12] 5223 	jr	NC,00107$
                           5224 ;src/main.c:413: enemy.pursue -=1;
   1E35 05            [ 4] 5225 	dec	b
   1E36 78            [ 4] 5226 	ld	a,b
   1E37 12            [ 7] 5227 	ld	(de),a
   1E38                    5228 00107$:
                           5229 ;src/main.c:415: temp = 0;
   1E38 21rF0r00      [10] 5230 	ld	hl,#_temp + 0
   1E3B 36 00         [10] 5231 	ld	(hl), #0x00
   1E3D 18 5B         [12] 5232 	jr	00124$
   1E3F                    5233 00123$:
                           5234 ;src/main.c:417: if(enemy.pursue >= 1){
   1E3F 3Ar27r01      [13] 5235 	ld	a,(#(_enemy + 0x000e) + 0)
   1E42 D6 01         [ 7] 5236 	sub	a, #0x01
   1E44 38 51         [12] 5237 	jr	C,00120$
                           5238 ;src/main.c:418: if(archer >= 2 && enemy.bullets > 0 && shooted == 0){
   1E46 3ArF9r00      [13] 5239 	ld	a,(#_archer + 0)
   1E49 D6 02         [ 7] 5240 	sub	a, #0x02
   1E4B 38 16         [12] 5241 	jr	C,00115$
   1E4D 3Ar23r01      [13] 5242 	ld	a, (#_enemy + 10)
   1E50 B7            [ 4] 5243 	or	a, a
   1E51 28 10         [12] 5244 	jr	Z,00115$
   1E53 3ArF5r00      [13] 5245 	ld	a,(#_shooted + 0)
   1E56 B7            [ 4] 5246 	or	a, a
   1E57 20 0A         [12] 5247 	jr	NZ,00115$
                           5248 ;src/main.c:419: shoot();
   1E59 CDr42r1C      [17] 5249 	call	_shoot
                           5250 ;src/main.c:420: archer =0;
   1E5C 21rF9r00      [10] 5251 	ld	hl,#_archer + 0
   1E5F 36 00         [10] 5252 	ld	(hl), #0x00
   1E61 18 37         [12] 5253 	jr	00124$
   1E63                    5254 00115$:
                           5255 ;src/main.c:423: followPlayer();
   1E63 CDr59r1A      [17] 5256 	call	_followPlayer
                           5257 ;src/main.c:424: if(shooted == 1) arrowCheckings(1);
   1E66 3ArF5r00      [13] 5258 	ld	a,(#_shooted + 0)
   1E69 3D            [ 4] 5259 	dec	a
   1E6A 20 08         [12] 5260 	jr	NZ,00110$
   1E6C 3E 01         [ 7] 5261 	ld	a,#0x01
   1E6E F5            [11] 5262 	push	af
   1E6F 33            [ 6] 5263 	inc	sp
   1E70 CDrD6r1C      [17] 5264 	call	_arrowCheckings
   1E73 33            [ 6] 5265 	inc	sp
   1E74                    5266 00110$:
                           5267 ;src/main.c:425: if(enemy.seenX == enemy.x && enemy.seenY == enemy.y){
   1E74 21r25r01      [10] 5268 	ld	hl, #_enemy + 12
   1E77 56            [ 7] 5269 	ld	d,(hl)
   1E78 21r19r01      [10] 5270 	ld	hl, #_enemy + 0
   1E7B 5E            [ 7] 5271 	ld	e,(hl)
   1E7C 7A            [ 4] 5272 	ld	a,d
   1E7D 93            [ 4] 5273 	sub	a, e
   1E7E 20 1A         [12] 5274 	jr	NZ,00124$
   1E80 21r26r01      [10] 5275 	ld	hl, #_enemy + 13
   1E83 56            [ 7] 5276 	ld	d,(hl)
   1E84 21r1Ar01      [10] 5277 	ld	hl, #_enemy + 1
   1E87 5E            [ 7] 5278 	ld	e,(hl)
   1E88 7A            [ 4] 5279 	ld	a,d
   1E89 93            [ 4] 5280 	sub	a, e
   1E8A 20 0E         [12] 5281 	jr	NZ,00124$
                           5282 ;src/main.c:426: enemy.pursue = 0;
   1E8C 21r27r01      [10] 5283 	ld	hl,#(_enemy + 0x000e)
   1E8F 36 00         [10] 5284 	ld	(hl),#0x00
                           5285 ;src/main.c:427: archer++;
   1E91 21rF9r00      [10] 5286 	ld	hl, #_archer+0
   1E94 34            [11] 5287 	inc	(hl)
   1E95 18 03         [12] 5288 	jr	00124$
   1E97                    5289 00120$:
                           5290 ;src/main.c:432: patrol();
   1E97 CDr38r0A      [17] 5291 	call	_patrol
   1E9A                    5292 00124$:
                           5293 ;src/main.c:435: if((detectPlayerRoom(enemy.lx,enemy.ly) == detectPlayerRoom(player.x,player.y)) || enemy.pursue > 1){
   1E9A 21r1Cr01      [10] 5294 	ld	hl, #_enemy + 3
   1E9D 56            [ 7] 5295 	ld	d,(hl)
   1E9E 3Ar1Br01      [13] 5296 	ld	a, (#_enemy + 2)
   1EA1 D5            [11] 5297 	push	de
   1EA2 33            [ 6] 5298 	inc	sp
   1EA3 F5            [11] 5299 	push	af
   1EA4 33            [ 6] 5300 	inc	sp
   1EA5 CDr5Cr09      [17] 5301 	call	_detectPlayerRoom
   1EA8 F1            [10] 5302 	pop	af
   1EA9 55            [ 4] 5303 	ld	d,l
   1EAA 3Ar0Fr01      [13] 5304 	ld	a, (#(_player + 0x0001) + 0)
   1EAD 21r0Er01      [10] 5305 	ld	hl, #_player + 0
   1EB0 46            [ 7] 5306 	ld	b,(hl)
   1EB1 D5            [11] 5307 	push	de
   1EB2 F5            [11] 5308 	push	af
   1EB3 33            [ 6] 5309 	inc	sp
   1EB4 C5            [11] 5310 	push	bc
   1EB5 33            [ 6] 5311 	inc	sp
   1EB6 CDr5Cr09      [17] 5312 	call	_detectPlayerRoom
   1EB9 F1            [10] 5313 	pop	af
   1EBA 45            [ 4] 5314 	ld	b,l
   1EBB D1            [10] 5315 	pop	de
   1EBC 7A            [ 4] 5316 	ld	a,d
   1EBD 90            [ 4] 5317 	sub	a, b
   1EBE 28 09         [12] 5318 	jr	Z,00125$
   1EC0 21r27r01      [10] 5319 	ld	hl, #_enemy + 14
   1EC3 66            [ 7] 5320 	ld	h,(hl)
   1EC4 3E 01         [ 7] 5321 	ld	a,#0x01
   1EC6 94            [ 4] 5322 	sub	a, h
   1EC7 30 0E         [12] 5323 	jr	NC,00126$
   1EC9                    5324 00125$:
                           5325 ;src/main.c:436: enemy.seenX = player.x;
   1EC9 11r25r01      [10] 5326 	ld	de,#_enemy + 12
   1ECC 3Ar0Er01      [13] 5327 	ld	a, (#_player + 0)
   1ECF 12            [ 7] 5328 	ld	(de),a
                           5329 ;src/main.c:437: enemy.seenY = player.y;
   1ED0 11r26r01      [10] 5330 	ld	de,#_enemy + 13
   1ED3 3Ar0Fr01      [13] 5331 	ld	a, (#(_player + 0x0001) + 0)
   1ED6 12            [ 7] 5332 	ld	(de),a
   1ED7                    5333 00126$:
                           5334 ;src/main.c:439: enemy.room = detectPlayerRoom(enemy.x,enemy.y);
   1ED7 3Ar1Ar01      [13] 5335 	ld	a, (#_enemy + 1)
   1EDA 21r19r01      [10] 5336 	ld	hl, #_enemy + 0
   1EDD 56            [ 7] 5337 	ld	d,(hl)
   1EDE F5            [11] 5338 	push	af
   1EDF 33            [ 6] 5339 	inc	sp
   1EE0 D5            [11] 5340 	push	de
   1EE1 33            [ 6] 5341 	inc	sp
   1EE2 CDr5Cr09      [17] 5342 	call	_detectPlayerRoom
   1EE5 F1            [10] 5343 	pop	af
   1EE6 7D            [ 4] 5344 	ld	a,l
   1EE7 32r24r01      [13] 5345 	ld	(#(_enemy + 0x000b)),a
                           5346 ;src/main.c:440: temp += 1;
   1EEA 21rF0r00      [10] 5347 	ld	hl, #_temp+0
   1EED 34            [11] 5348 	inc	(hl)
   1EEE C9            [10] 5349 	ret
                           5350 ;src/main.c:444: void enemyIa(){
                           5351 ;	---------------------------------
                           5352 ; Function enemyIa
                           5353 ; ---------------------------------
   1EEF                    5354 _enemyIa::
   1EEF DD E5         [15] 5355 	push	ix
   1EF1 DD 21 00 00   [14] 5356 	ld	ix,#0
   1EF5 DD 39         [15] 5357 	add	ix,sp
   1EF7 3B            [ 6] 5358 	dec	sp
                           5359 ;src/main.c:445: if(enemy.life > 0){
   1EF8 3Ar21r01      [13] 5360 	ld	a,(#(_enemy + 0x0008) + 0)
   1EFB B7            [ 4] 5361 	or	a, a
   1EFC 28 74         [12] 5362 	jr	Z,00110$
                           5363 ;src/main.c:446: if(temp%2 == 1){
   1EFE 3ArF0r00      [13] 5364 	ld	a,(#_temp + 0)
   1F01 E6 01         [ 7] 5365 	and	a, #0x01
   1F03 67            [ 4] 5366 	ld	h,a
                           5367 ;src/main.c:448: enemy.ly = enemy.y;
                           5368 ;src/main.c:446: if(temp%2 == 1){
   1F04 25            [ 4] 5369 	dec	h
   1F05 20 0D         [12] 5370 	jr	NZ,00102$
                           5371 ;src/main.c:447: enemy.lx = enemy.x;
   1F07 3Ar19r01      [13] 5372 	ld	a, (#_enemy + 0)
   1F0A 32r1Br01      [13] 5373 	ld	(#(_enemy + 0x0002)),a
                           5374 ;src/main.c:448: enemy.ly = enemy.y;
   1F0D 11r1Cr01      [10] 5375 	ld	de,#_enemy + 3
   1F10 3Ar1Ar01      [13] 5376 	ld	a, (#(_enemy + 0x0001) + 0)
   1F13 12            [ 7] 5377 	ld	(de),a
   1F14                    5378 00102$:
                           5379 ;src/main.c:451: move();
   1F14 CDrEBr1D      [17] 5380 	call	_move
                           5381 ;src/main.c:453: switch(checkCollisions(player.x, player.y, enemy.x, enemy.y, player.atk)){
   1F17 21r16r01      [10] 5382 	ld	hl, #_player + 8
   1F1A 56            [ 7] 5383 	ld	d,(hl)
   1F1B 21r1Ar01      [10] 5384 	ld	hl, #(_enemy + 0x0001) + 0
   1F1E 5E            [ 7] 5385 	ld	e,(hl)
   1F1F 21r19r01      [10] 5386 	ld	hl, #_enemy + 0
   1F22 46            [ 7] 5387 	ld	b,(hl)
   1F23 21r0Fr01      [10] 5388 	ld	hl, #(_player + 0x0001) + 0
   1F26 4E            [ 7] 5389 	ld	c,(hl)
   1F27 3Ar0Er01      [13] 5390 	ld	a,(#_player + 0)
   1F2A DD 77 FF      [19] 5391 	ld	-1 (ix),a
   1F2D D5            [11] 5392 	push	de
   1F2E C5            [11] 5393 	push	bc
   1F2F DD 7E FF      [19] 5394 	ld	a,-1 (ix)
   1F32 F5            [11] 5395 	push	af
   1F33 33            [ 6] 5396 	inc	sp
   1F34 CDrD2r0B      [17] 5397 	call	_checkCollisions
   1F37 F1            [10] 5398 	pop	af
   1F38 F1            [10] 5399 	pop	af
   1F39 33            [ 6] 5400 	inc	sp
   1F3A 7D            [ 4] 5401 	ld	a,l
   1F3B 3D            [ 4] 5402 	dec	a
   1F3C 28 07         [12] 5403 	jr	Z,00103$
   1F3E 7D            [ 4] 5404 	ld	a,l
   1F3F D6 02         [ 7] 5405 	sub	a, #0x02
   1F41 28 18         [12] 5406 	jr	Z,00104$
   1F43 18 2D         [12] 5407 	jr	00110$
                           5408 ;src/main.c:454: case 1:
   1F45                    5409 00103$:
                           5410 ;src/main.c:455: enemy.x = enemy.ox;
   1F45 3Ar1Dr01      [13] 5411 	ld	a, (#_enemy + 4)
   1F48 32r19r01      [13] 5412 	ld	(#_enemy),a
                           5413 ;src/main.c:456: enemy.y = enemy.oy;
   1F4B 3Ar1Er01      [13] 5414 	ld	a, (#_enemy + 5)
   1F4E 32r1Ar01      [13] 5415 	ld	(#(_enemy + 0x0001)),a
                           5416 ;src/main.c:457: enemy.life -= 1;
   1F51 3Ar21r01      [13] 5417 	ld	a, (#(_enemy + 0x0008) + 0)
   1F54 C6 FF         [ 7] 5418 	add	a,#0xFF
   1F56 32r21r01      [13] 5419 	ld	(#(_enemy + 0x0008)),a
                           5420 ;src/main.c:458: break;
   1F59 18 17         [12] 5421 	jr	00110$
                           5422 ;src/main.c:459: case 2:
   1F5B                    5423 00104$:
                           5424 ;src/main.c:460: player.x = 0;
   1F5B 21r0Er01      [10] 5425 	ld	hl,#_player
   1F5E 36 00         [10] 5426 	ld	(hl),#0x00
                           5427 ;src/main.c:461: player.y = 80;
   1F60 21r0Fr01      [10] 5428 	ld	hl,#(_player + 0x0001)
   1F63 36 50         [10] 5429 	ld	(hl),#0x50
                           5430 ;src/main.c:462: player.life -= 1;
   1F65 21r14r01      [10] 5431 	ld	hl,#_player + 6
   1F68 7E            [ 7] 5432 	ld	a,(hl)
   1F69 C6 FF         [ 7] 5433 	add	a,#0xFF
   1F6B 77            [ 7] 5434 	ld	(hl),a
                           5435 ;src/main.c:463: if(player.life == 0){
   1F6C B7            [ 4] 5436 	or	a, a
   1F6D 20 03         [12] 5437 	jr	NZ,00110$
                           5438 ;src/main.c:464: gameOver();
   1F6F CDr61r11      [17] 5439 	call	_gameOver
                           5440 ;src/main.c:468: }
   1F72                    5441 00110$:
   1F72 33            [ 6] 5442 	inc	sp
   1F73 DD E1         [14] 5443 	pop	ix
   1F75 C9            [10] 5444 	ret
                           5445 ;src/main.c:480: void game(){
                           5446 ;	---------------------------------
                           5447 ; Function game
                           5448 ; ---------------------------------
   1F76                    5449 _game::
   1F76 DD E5         [15] 5450 	push	ix
   1F78 DD 21 00 00   [14] 5451 	ld	ix,#0
   1F7C DD 39         [15] 5452 	add	ix,sp
   1F7E 21 F4 FF      [10] 5453 	ld	hl,#-12
   1F81 39            [11] 5454 	add	hl,sp
   1F82 F9            [ 6] 5455 	ld	sp,hl
                           5456 ;src/main.c:482: TNivel n = {0,0,0};
   1F83 21 00 00      [10] 5457 	ld	hl,#0x0000
   1F86 39            [11] 5458 	add	hl,sp
   1F87 36 00         [10] 5459 	ld	(hl),#0x00
   1F89 21 00 00      [10] 5460 	ld	hl,#0x0000
   1F8C 39            [11] 5461 	add	hl,sp
   1F8D 5D            [ 4] 5462 	ld	e, l
   1F8E 54            [ 4] 5463 	ld	d, h
   1F8F 23            [ 6] 5464 	inc	hl
   1F90 DD 75 F9      [19] 5465 	ld	-7 (ix),l
   1F93 DD 74 FA      [19] 5466 	ld	-6 (ix),h
   1F96 DD 6E F9      [19] 5467 	ld	l,-7 (ix)
   1F99 DD 66 FA      [19] 5468 	ld	h,-6 (ix)
   1F9C 36 00         [10] 5469 	ld	(hl),#0x00
   1F9E 13            [ 6] 5470 	inc	de
   1F9F 13            [ 6] 5471 	inc	de
   1FA0 DD 73 F7      [19] 5472 	ld	-9 (ix),e
   1FA3 DD 72 F8      [19] 5473 	ld	-8 (ix),d
   1FA6 DD 6E F7      [19] 5474 	ld	l,-9 (ix)
   1FA9 DD 66 F8      [19] 5475 	ld	h,-8 (ix)
   1FAC 36 00         [10] 5476 	ld	(hl),#0x00
                           5477 ;src/main.c:483: bound =0;
   1FAE 21rF7r00      [10] 5478 	ld	hl,#_bound + 0
   1FB1 36 00         [10] 5479 	ld	(hl), #0x00
                           5480 ;src/main.c:484: temp = 0;
   1FB3 21rF0r00      [10] 5481 	ld	hl,#_temp + 0
   1FB6 36 00         [10] 5482 	ld	(hl), #0x00
                           5483 ;src/main.c:485: map = 1;
   1FB8 21rF1r00      [10] 5484 	ld	hl,#_map + 0
   1FBB 36 01         [10] 5485 	ld	(hl), #0x01
                           5486 ;src/main.c:486: arrow =0;
   1FBD 21rF4r00      [10] 5487 	ld	hl,#_arrow + 0
   1FC0 36 00         [10] 5488 	ld	(hl), #0x00
                           5489 ;src/main.c:487: finish =0;
   1FC2 21rF3r00      [10] 5490 	ld	hl,#_finish + 0
   1FC5 36 00         [10] 5491 	ld	(hl), #0x00
                           5492 ;src/main.c:488: following =0;
   1FC7 21rF6r00      [10] 5493 	ld	hl,#_following + 0
   1FCA 36 00         [10] 5494 	ld	(hl), #0x00
                           5495 ;src/main.c:489: archer = 0;
   1FCC 21rF9r00      [10] 5496 	ld	hl,#_archer + 0
   1FCF 36 00         [10] 5497 	ld	(hl), #0x00
                           5498 ;src/main.c:490: shooted =0;
   1FD1 21rF5r00      [10] 5499 	ld	hl,#_shooted + 0
   1FD4 36 00         [10] 5500 	ld	(hl), #0x00
                           5501 ;src/main.c:492: initPlayer();
   1FD6 CDrF2r10      [17] 5502 	call	_initPlayer
                           5503 ;src/main.c:493: initEnemies();
   1FD9 CDr28r11      [17] 5504 	call	_initEnemies
                           5505 ;src/main.c:495: cpct_clearScreen(0);
   1FDC 21 00 40      [10] 5506 	ld	hl,#0x4000
   1FDF E5            [11] 5507 	push	hl
   1FE0 AF            [ 4] 5508 	xor	a, a
   1FE1 F5            [11] 5509 	push	af
   1FE2 33            [ 6] 5510 	inc	sp
   1FE3 26 C0         [ 7] 5511 	ld	h, #0xC0
   1FE5 E5            [11] 5512 	push	hl
   1FE6 CDr00r00      [17] 5513 	call	_cpct_memset
                           5514 ;src/main.c:496: drawMap(map);
   1FE9 3ArF1r00      [13] 5515 	ld	a,(_map)
   1FEC F5            [11] 5516 	push	af
   1FED 33            [ 6] 5517 	inc	sp
   1FEE CDr00r00      [17] 5518 	call	_drawMap
   1FF1 33            [ 6] 5519 	inc	sp
                           5520 ;src/main.c:502: while (1){
   1FF2 DD 7E F7      [19] 5521 	ld	a,-9 (ix)
   1FF5 DD 77 FB      [19] 5522 	ld	-5 (ix),a
   1FF8 DD 7E F8      [19] 5523 	ld	a,-8 (ix)
   1FFB DD 77 FC      [19] 5524 	ld	-4 (ix),a
   1FFE DD 7E F9      [19] 5525 	ld	a,-7 (ix)
   2001 DD 77 FE      [19] 5526 	ld	-2 (ix),a
   2004 DD 7E FA      [19] 5527 	ld	a,-6 (ix)
   2007 DD 77 FF      [19] 5528 	ld	-1 (ix),a
   200A                    5529 00116$:
                           5530 ;src/main.c:505: cpct_waitVSYNC();
   200A CDr00r00      [17] 5531 	call	_cpct_waitVSYNC
                           5532 ;src/main.c:508: erases();
   200D CDr11r07      [17] 5533 	call	_erases
                           5534 ;src/main.c:511: if(temp == 10)
   2010 3ArF0r00      [13] 5535 	ld	a,(#_temp + 0)
   2013 D6 0A         [ 7] 5536 	sub	a, #0x0A
   2015 20 1C         [12] 5537 	jr	NZ,00102$
                           5538 ;src/main.c:512: drawPickUps(n.corazon,n.bullet);
   2017 DD 6E F7      [19] 5539 	ld	l,-9 (ix)
   201A DD 66 F8      [19] 5540 	ld	h,-8 (ix)
   201D 7E            [ 7] 5541 	ld	a,(hl)
   201E DD 77 FD      [19] 5542 	ld	-3 (ix),a
   2021 DD 6E F9      [19] 5543 	ld	l,-7 (ix)
   2024 DD 66 FA      [19] 5544 	ld	h,-6 (ix)
   2027 56            [ 7] 5545 	ld	d,(hl)
   2028 DD 7E FD      [19] 5546 	ld	a,-3 (ix)
   202B F5            [11] 5547 	push	af
   202C 33            [ 6] 5548 	inc	sp
   202D D5            [11] 5549 	push	de
   202E 33            [ 6] 5550 	inc	sp
   202F CDrF4r08      [17] 5551 	call	_drawPickUps
   2032 F1            [10] 5552 	pop	af
   2033                    5553 00102$:
                           5554 ;src/main.c:515: draws();
   2033 CDrEEr05      [17] 5555 	call	_draws
                           5556 ;src/main.c:518: if(temp == 10){
   2036 3ArF0r00      [13] 5557 	ld	a,(#_temp + 0)
   2039 D6 0A         [ 7] 5558 	sub	a, #0x0A
   203B 20 2F         [12] 5559 	jr	NZ,00110$
                           5560 ;src/main.c:519: if(player.atk < 20) drawFatiga(player.atk,2);
   203D 21r16r01      [10] 5561 	ld	hl, #(_player + 0x0008) + 0
   2040 56            [ 7] 5562 	ld	d,(hl)
   2041 7A            [ 4] 5563 	ld	a,d
   2042 D6 14         [ 7] 5564 	sub	a, #0x14
   2044 30 0C         [12] 5565 	jr	NC,00107$
   2046 3E 02         [ 7] 5566 	ld	a,#0x02
   2048 F5            [11] 5567 	push	af
   2049 33            [ 6] 5568 	inc	sp
   204A D5            [11] 5569 	push	de
   204B 33            [ 6] 5570 	inc	sp
   204C CDrCEr07      [17] 5571 	call	_drawFatiga
   204F F1            [10] 5572 	pop	af
   2050 18 1A         [12] 5573 	jr	00110$
   2052                    5574 00107$:
                           5575 ;src/main.c:520: else if(player.atk > 20) drawFatiga(player.atk,1);
   2052 3E 14         [ 7] 5576 	ld	a,#0x14
   2054 92            [ 4] 5577 	sub	a, d
   2055 30 0C         [12] 5578 	jr	NC,00104$
   2057 3E 01         [ 7] 5579 	ld	a,#0x01
   2059 F5            [11] 5580 	push	af
   205A 33            [ 6] 5581 	inc	sp
   205B D5            [11] 5582 	push	de
   205C 33            [ 6] 5583 	inc	sp
   205D CDrCEr07      [17] 5584 	call	_drawFatiga
   2060 F1            [10] 5585 	pop	af
   2061 18 09         [12] 5586 	jr	00110$
   2063                    5587 00104$:
                           5588 ;src/main.c:521: else drawFatiga(player.atk,0);
   2063 AF            [ 4] 5589 	xor	a, a
   2064 F5            [11] 5590 	push	af
   2065 33            [ 6] 5591 	inc	sp
   2066 D5            [11] 5592 	push	de
   2067 33            [ 6] 5593 	inc	sp
   2068 CDrCEr07      [17] 5594 	call	_drawFatiga
   206B F1            [10] 5595 	pop	af
   206C                    5596 00110$:
                           5597 ;src/main.c:526: if(temp%2 == 0){
   206C FD 21rF0r00   [14] 5598 	ld	iy,#_temp
   2070 FD CB 00 46   [20] 5599 	bit	0, 0 (iy)
   2074 20 0E         [12] 5600 	jr	NZ,00112$
                           5601 ;src/main.c:527: player.lx = player.x;
   2076 3Ar0Er01      [13] 5602 	ld	a, (#_player + 0)
   2079 21r10r01      [10] 5603 	ld	hl,#(_player + 0x0002)
   207C 77            [ 7] 5604 	ld	(hl),a
                           5605 ;src/main.c:528: player.ly = player.y;
   207D 11r11r01      [10] 5606 	ld	de,#_player + 3
   2080 3Ar0Fr01      [13] 5607 	ld	a, (#_player + 1)
   2083 12            [ 7] 5608 	ld	(de),a
   2084                    5609 00112$:
                           5610 ;src/main.c:531: enemyIa();
   2084 CDrEFr1E      [17] 5611 	call	_enemyIa
                           5612 ;src/main.c:532: player.latk = player.atk;
   2087 11r17r01      [10] 5613 	ld	de,#_player + 9
   208A 3Ar16r01      [13] 5614 	ld	a, (#(_player + 0x0008) + 0)
   208D 12            [ 7] 5615 	ld	(de),a
                           5616 ;src/main.c:537: cpct_scanKeyboard_f();
   208E CDr00r00      [17] 5617 	call	_cpct_scanKeyboard_f
                           5618 ;src/main.c:538: player.sprite = checkKeyboard();
   2091 CDr56r0E      [17] 5619 	call	_checkKeyboard
   2094 5D            [ 4] 5620 	ld	e,l
   2095 54            [ 4] 5621 	ld	d,h
   2096 ED 53r12r01   [20] 5622 	ld	((_player + 0x0004)), de
                           5623 ;src/main.c:539: checkBoundsCollisions(&n.corazon,&n.bullet);
   209A DD 6E FB      [19] 5624 	ld	l,-5 (ix)
   209D DD 66 FC      [19] 5625 	ld	h,-4 (ix)
   20A0 DD 5E FE      [19] 5626 	ld	e,-2 (ix)
   20A3 DD 56 FF      [19] 5627 	ld	d,-1 (ix)
   20A6 E5            [11] 5628 	push	hl
   20A7 D5            [11] 5629 	push	de
   20A8 CDr88r16      [17] 5630 	call	_checkBoundsCollisions
   20AB F1            [10] 5631 	pop	af
   20AC F1            [10] 5632 	pop	af
                           5633 ;src/main.c:541: arrowCheckings(0);
   20AD AF            [ 4] 5634 	xor	a, a
   20AE F5            [11] 5635 	push	af
   20AF 33            [ 6] 5636 	inc	sp
   20B0 CDrD6r1C      [17] 5637 	call	_arrowCheckings
   20B3 33            [ 6] 5638 	inc	sp
                           5639 ;src/main.c:543: if(finish == 1) return;
   20B4 3ArF3r00      [13] 5640 	ld	a,(#_finish + 0)
   20B7 3D            [ 4] 5641 	dec	a
   20B8 C2r0Ar20      [10] 5642 	jp	NZ,00116$
   20BB DD F9         [10] 5643 	ld	sp, ix
   20BD DD E1         [14] 5644 	pop	ix
   20BF C9            [10] 5645 	ret
                           5646 ;src/main.c:550: void credits(){
                           5647 ;	---------------------------------
                           5648 ; Function credits
                           5649 ; ---------------------------------
   20C0                    5650 _credits::
                           5651 ;src/main.c:552: cpct_clearScreen(0);
   20C0 21 00 40      [10] 5652 	ld	hl,#0x4000
   20C3 E5            [11] 5653 	push	hl
   20C4 AF            [ 4] 5654 	xor	a, a
   20C5 F5            [11] 5655 	push	af
   20C6 33            [ 6] 5656 	inc	sp
   20C7 26 C0         [ 7] 5657 	ld	h, #0xC0
   20C9 E5            [11] 5658 	push	hl
   20CA CDr00r00      [17] 5659 	call	_cpct_memset
                           5660 ;src/main.c:553: memptr = cpct_getScreenPtr(VMEM,10,10);
   20CD 21 0A 0A      [10] 5661 	ld	hl,#0x0A0A
   20D0 E5            [11] 5662 	push	hl
   20D1 21 00 C0      [10] 5663 	ld	hl,#0xC000
   20D4 E5            [11] 5664 	push	hl
   20D5 CDr00r00      [17] 5665 	call	_cpct_getScreenPtr
                           5666 ;src/main.c:554: cpct_drawStringM0("Lounge Gladiator",memptr,1,0);
   20D8 EB            [ 4] 5667 	ex	de,hl
   20D9 01r22r21      [10] 5668 	ld	bc,#___str_5
   20DC D5            [11] 5669 	push	de
   20DD 21 01 00      [10] 5670 	ld	hl,#0x0001
   20E0 E5            [11] 5671 	push	hl
   20E1 D5            [11] 5672 	push	de
   20E2 C5            [11] 5673 	push	bc
   20E3 CDr00r00      [17] 5674 	call	_cpct_drawStringM0
   20E6 21 06 00      [10] 5675 	ld	hl,#6
   20E9 39            [11] 5676 	add	hl,sp
   20EA F9            [ 6] 5677 	ld	sp,hl
   20EB D1            [10] 5678 	pop	de
                           5679 ;src/main.c:556: while (1){
   20EC                    5680 00104$:
                           5681 ;src/main.c:558: cpct_scanKeyboard_f();
   20EC D5            [11] 5682 	push	de
   20ED CDr00r00      [17] 5683 	call	_cpct_scanKeyboard_f
   20F0 D1            [10] 5684 	pop	de
                           5685 ;src/main.c:559: cpct_drawStringM0("Josep Domenech Mingot",memptr,1,0);
   20F1 01r33r21      [10] 5686 	ld	bc,#___str_6
   20F4 D5            [11] 5687 	push	de
   20F5 21 01 00      [10] 5688 	ld	hl,#0x0001
   20F8 E5            [11] 5689 	push	hl
   20F9 D5            [11] 5690 	push	de
   20FA C5            [11] 5691 	push	bc
   20FB CDr00r00      [17] 5692 	call	_cpct_drawStringM0
   20FE 21 06 00      [10] 5693 	ld	hl,#6
   2101 39            [11] 5694 	add	hl,sp
   2102 F9            [ 6] 5695 	ld	sp,hl
   2103 D1            [10] 5696 	pop	de
                           5697 ;src/main.c:560: cpct_drawStringM0("Alberto Martinez Martinez",memptr,1,0);
   2104 01r49r21      [10] 5698 	ld	bc,#___str_7
   2107 D5            [11] 5699 	push	de
   2108 21 01 00      [10] 5700 	ld	hl,#0x0001
   210B E5            [11] 5701 	push	hl
   210C D5            [11] 5702 	push	de
   210D C5            [11] 5703 	push	bc
   210E CDr00r00      [17] 5704 	call	_cpct_drawStringM0
   2111 21 06 00      [10] 5705 	ld	hl,#6
   2114 39            [11] 5706 	add	hl,sp
   2115 F9            [ 6] 5707 	ld	sp,hl
   2116 21 08 04      [10] 5708 	ld	hl,#0x0408
   2119 CDr00r00      [17] 5709 	call	_cpct_isKeyPressed
   211C 7D            [ 4] 5710 	ld	a,l
   211D D1            [10] 5711 	pop	de
   211E B7            [ 4] 5712 	or	a, a
   211F 28 CB         [12] 5713 	jr	Z,00104$
                           5714 ;src/main.c:564: return;
   2121 C9            [10] 5715 	ret
   2122                    5716 ___str_5:
   2122 4C 6F 75 6E 67 65  5717 	.ascii "Lounge Gladiator"
        20 47 6C 61 64 69
        61 74 6F 72
   2132 00                 5718 	.db 0x00
   2133                    5719 ___str_6:
   2133 4A 6F 73 65 70 20  5720 	.ascii "Josep Domenech Mingot"
        44 6F 6D 65 6E 65
        63 68 20 4D 69 6E
        67 6F 74
   2148 00                 5721 	.db 0x00
   2149                    5722 ___str_7:
   2149 41 6C 62 65 72 74  5723 	.ascii "Alberto Martinez Martinez"
        6F 20 4D 61 72 74
        69 6E 65 7A 20 4D
        61 72 74 69 6E 65
        7A
   2162 00                 5724 	.db 0x00
                           5725 ;src/main.c:574: void main(void) {
                           5726 ;	---------------------------------
                           5727 ; Function main
                           5728 ; ---------------------------------
   2163                    5729 _main::
                           5730 ;src/main.c:578: init();
   2163 CDrCDr10      [17] 5731 	call	_init
                           5732 ;src/main.c:581: while(1){
   2166                    5733 00106$:
                           5734 ;src/main.c:582: x=menu();
   2166 CDr9Fr11      [17] 5735 	call	_menu
   2169 5D            [ 4] 5736 	ld	e, l
   216A 54            [ 4] 5737 	ld	d, h
                           5738 ;src/main.c:583: switch(x){
   216B CB 7A         [ 8] 5739 	bit	7, d
   216D 20 F7         [12] 5740 	jr	NZ,00106$
   216F 3E 02         [ 7] 5741 	ld	a,#0x02
   2171 BB            [ 4] 5742 	cp	a, e
   2172 3E 00         [ 7] 5743 	ld	a,#0x00
   2174 9A            [ 4] 5744 	sbc	a, d
   2175 E2r7Ar21      [10] 5745 	jp	PO, 00122$
   2178 EE 80         [ 7] 5746 	xor	a, #0x80
   217A                    5747 00122$:
   217A FAr66r21      [10] 5748 	jp	M,00106$
   217D 16 00         [ 7] 5749 	ld	d,#0x00
   217F 21r85r21      [10] 5750 	ld	hl,#00123$
   2182 19            [11] 5751 	add	hl,de
   2183 19            [11] 5752 	add	hl,de
                           5753 ;src/main.c:584: case 0: return;break;
                           5754 ;src/main.c:585: case 1: game(); break;
   2184 E9            [ 4] 5755 	jp	(hl)
   2185                    5756 00123$:
   2185 18 10         [12] 5757 	jr	00108$
   2187 18 04         [12] 5758 	jr	00102$
   2189 18 07         [12] 5759 	jr	00103$
   218B 18 0A         [12] 5760 	jr	00108$
   218D                    5761 00102$:
   218D CDr76r1F      [17] 5762 	call	_game
   2190 18 D4         [12] 5763 	jr	00106$
                           5764 ;src/main.c:586: case 2: credits();break;
   2192                    5765 00103$:
   2192 CDrC0r20      [17] 5766 	call	_credits
                           5767 ;src/main.c:587: }
   2195 18 CF         [12] 5768 	jr	00106$
   2197                    5769 00108$:
   2197 C9            [10] 5770 	ret
                           5771 	.area _CODE
                           5772 	.area _INITIALIZER
                           5773 	.area _CABS (ABS)
